
/home/oxiin/pico/RP2040matrix-v2/RP2040matrix_64_BCM.elf:     file format elf32-littlearm

Sections:
Idx Name          Size      VMA       LMA       File off  Algn
  0 .boot2        00000100  10000000  10000000  00001000  2**0
                  CONTENTS, ALLOC, LOAD, READONLY, CODE
  1 .text         0000b178  10000100  10000100  00001100  2**4
                  CONTENTS, ALLOC, LOAD, READONLY, CODE
  2 .rodata       000006d0  1000b278  1000b278  0000c278  2**3
                  CONTENTS, ALLOC, LOAD, READONLY, DATA
  3 .binary_info  00000020  1000b948  1000b948  0000c948  2**2
                  CONTENTS, ALLOC, LOAD, DATA
  4 .ram_vector_table 000000c0  20000000  20000000  0000d8cc  2**2
                  CONTENTS
  5 .data         0000080c  200000c0  1000b968  0000d0c0  2**4
                  CONTENTS, ALLOC, LOAD, READONLY, CODE
  6 .uninitialized_data 00000000  200008cc  200008cc  0000d98c  2**0
                  CONTENTS
  7 .scratch_x    00000000  20040000  20040000  0000d98c  2**0
                  CONTENTS
  8 .scratch_y    00000000  20041000  20041000  0000d98c  2**0
                  CONTENTS
  9 .bss          000124f4  200008d0  200008d0  0000d8d0  2**3
                  ALLOC
 10 .heap         00000800  20012dc4  20012dc4  0000d98c  2**2
                  CONTENTS, READONLY
 11 .stack_dummy  00000800  20041000  20041000  0000e1a0  2**5
                  CONTENTS, READONLY
 12 .ARM.attributes 00000028  00000000  00000000  0000e9a0  2**0
                  CONTENTS, READONLY
 13 .comment      00000033  00000000  00000000  0000e9c8  2**0
                  CONTENTS, READONLY
 14 .debug_line   0000043c  00000000  00000000  0000e9fb  2**0
                  CONTENTS, READONLY, DEBUGGING, OCTETS
 15 .debug_info   000013b2  00000000  00000000  0000ee37  2**0
                  CONTENTS, READONLY, DEBUGGING, OCTETS
 16 .debug_abbrev 00000474  00000000  00000000  000101e9  2**0
                  CONTENTS, READONLY, DEBUGGING, OCTETS
 17 .debug_aranges 00000078  00000000  00000000  00010660  2**3
                  CONTENTS, READONLY, DEBUGGING, OCTETS
 18 .debug_str    0000072b  00000000  00000000  000106d8  2**0
                  CONTENTS, READONLY, DEBUGGING, OCTETS
 19 .debug_loc    000000e6  00000000  00000000  00010e03  2**0
                  CONTENTS, READONLY, DEBUGGING, OCTETS
 20 .debug_frame  00000060  00000000  00000000  00010eec  2**2
                  CONTENTS, READONLY, DEBUGGING, OCTETS

/home/oxiin/pico/RP2040matrix-v2/RP2040matrix_64_BCM.elf:     file format elf32-littlearm


Disassembly of section .boot2:

10000000 <__boot2_start__>:
10000000:	4b32b500 	.word	0x4b32b500
10000004:	60582021 	.word	0x60582021
10000008:	21026898 	.word	0x21026898
1000000c:	60984388 	.word	0x60984388
10000010:	611860d8 	.word	0x611860d8
10000014:	4b2e6158 	.word	0x4b2e6158
10000018:	60992100 	.word	0x60992100
1000001c:	61592102 	.word	0x61592102
10000020:	22f02101 	.word	0x22f02101
10000024:	492b5099 	.word	0x492b5099
10000028:	21016019 	.word	0x21016019
1000002c:	20356099 	.word	0x20356099
10000030:	f844f000 	.word	0xf844f000
10000034:	42902202 	.word	0x42902202
10000038:	2106d014 	.word	0x2106d014
1000003c:	f0006619 	.word	0xf0006619
10000040:	6e19f834 	.word	0x6e19f834
10000044:	66192101 	.word	0x66192101
10000048:	66182000 	.word	0x66182000
1000004c:	f000661a 	.word	0xf000661a
10000050:	6e19f82c 	.word	0x6e19f82c
10000054:	6e196e19 	.word	0x6e196e19
10000058:	f0002005 	.word	0xf0002005
1000005c:	2101f82f 	.word	0x2101f82f
10000060:	d1f94208 	.word	0xd1f94208
10000064:	60992100 	.word	0x60992100
10000068:	6019491b 	.word	0x6019491b
1000006c:	60592100 	.word	0x60592100
10000070:	481b491a 	.word	0x481b491a
10000074:	21016001 	.word	0x21016001
10000078:	21eb6099 	.word	0x21eb6099
1000007c:	21a06619 	.word	0x21a06619
10000080:	f0006619 	.word	0xf0006619
10000084:	2100f812 	.word	0x2100f812
10000088:	49166099 	.word	0x49166099
1000008c:	60014814 	.word	0x60014814
10000090:	60992101 	.word	0x60992101
10000094:	2800bc01 	.word	0x2800bc01
10000098:	4700d000 	.word	0x4700d000
1000009c:	49134812 	.word	0x49134812
100000a0:	c8036008 	.word	0xc8036008
100000a4:	8808f380 	.word	0x8808f380
100000a8:	b5034708 	.word	0xb5034708
100000ac:	20046a99 	.word	0x20046a99
100000b0:	d0fb4201 	.word	0xd0fb4201
100000b4:	42012001 	.word	0x42012001
100000b8:	bd03d1f8 	.word	0xbd03d1f8
100000bc:	6618b502 	.word	0x6618b502
100000c0:	f7ff6618 	.word	0xf7ff6618
100000c4:	6e18fff2 	.word	0x6e18fff2
100000c8:	bd026e18 	.word	0xbd026e18
100000cc:	40020000 	.word	0x40020000
100000d0:	18000000 	.word	0x18000000
100000d4:	00070000 	.word	0x00070000
100000d8:	005f0300 	.word	0x005f0300
100000dc:	00002221 	.word	0x00002221
100000e0:	180000f4 	.word	0x180000f4
100000e4:	a0002022 	.word	0xa0002022
100000e8:	10000100 	.word	0x10000100
100000ec:	e000ed08 	.word	0xe000ed08
	...
100000fc:	7a4eb274 	.word	0x7a4eb274

Disassembly of section .text:

10000100 <__VECTOR_TABLE>:
10000100:	20042000 	.word	0x20042000
10000104:	100001f7 	.word	0x100001f7
10000108:	100001c3 	.word	0x100001c3
1000010c:	100001c5 	.word	0x100001c5
10000110:	100001c1 	.word	0x100001c1
10000114:	100001c1 	.word	0x100001c1
10000118:	100001c1 	.word	0x100001c1
1000011c:	100001c1 	.word	0x100001c1
10000120:	100001c1 	.word	0x100001c1
10000124:	100001c1 	.word	0x100001c1
10000128:	100001c1 	.word	0x100001c1
1000012c:	100030fd 	.word	0x100030fd
10000130:	100001c1 	.word	0x100001c1
10000134:	100001c1 	.word	0x100001c1
10000138:	10003141 	.word	0x10003141
1000013c:	100032c1 	.word	0x100032c1
10000140:	100001cd 	.word	0x100001cd
10000144:	100001cd 	.word	0x100001cd
10000148:	100001cd 	.word	0x100001cd
1000014c:	100001cd 	.word	0x100001cd
10000150:	100001cd 	.word	0x100001cd
10000154:	100001cd 	.word	0x100001cd
10000158:	100001cd 	.word	0x100001cd
1000015c:	100001cd 	.word	0x100001cd
10000160:	100001cd 	.word	0x100001cd
10000164:	100001cd 	.word	0x100001cd
10000168:	100001cd 	.word	0x100001cd
1000016c:	100001cd 	.word	0x100001cd
10000170:	100001cd 	.word	0x100001cd
10000174:	100001cd 	.word	0x100001cd
10000178:	100001cd 	.word	0x100001cd
1000017c:	100001cd 	.word	0x100001cd
10000180:	100001cd 	.word	0x100001cd
10000184:	100001cd 	.word	0x100001cd
10000188:	100001cd 	.word	0x100001cd
1000018c:	100001cd 	.word	0x100001cd
10000190:	100001cd 	.word	0x100001cd
10000194:	100001cd 	.word	0x100001cd
10000198:	100001cd 	.word	0x100001cd
1000019c:	100001cd 	.word	0x100001cd
100001a0:	100001cd 	.word	0x100001cd
100001a4:	100001cd 	.word	0x100001cd
100001a8:	100001cd 	.word	0x100001cd
100001ac:	100001cd 	.word	0x100001cd
100001b0:	100001cd 	.word	0x100001cd
100001b4:	100001cd 	.word	0x100001cd
100001b8:	100001cd 	.word	0x100001cd
100001bc:	100001cd 	.word	0x100001cd

100001c0 <isr_invalid>:
100001c0:	be00      	bkpt	0x0000

100001c2 <isr_nmi>:
100001c2:	be00      	bkpt	0x0000

100001c4 <isr_hardfault>:
100001c4:	be00      	bkpt	0x0000
100001c6:	be00      	bkpt	0x0000
100001c8:	be00      	bkpt	0x0000
100001ca:	be00      	bkpt	0x0000

100001cc <__unhandled_user_irq>:
100001cc:	f000 f84b 	bl	10000266 <__get_current_exception>
100001d0:	3810      	subs	r0, #16

100001d2 <unhandled_user_irq_num_in_r0>:
100001d2:	be00      	bkpt	0x0000

100001d4 <binary_info_header>:
100001d4:	7188ebf2 	.word	0x7188ebf2
100001d8:	1000b948 	.word	0x1000b948
100001dc:	1000b968 	.word	0x1000b968
100001e0:	10000234 	.word	0x10000234
100001e4:	e71aa390 	.word	0xe71aa390

100001e8 <_entry_point>:
100001e8:	2000      	movs	r0, #0
100001ea:	4921      	ldr	r1, [pc, #132]	; (10000270 <__get_current_exception+0xa>)
100001ec:	6008      	str	r0, [r1, #0]
100001ee:	c806      	ldmia	r0!, {r1, r2}
100001f0:	f381 8808 	msr	MSP, r1
100001f4:	4710      	bx	r2

100001f6 <_reset_handler>:
100001f6:	481f      	ldr	r0, [pc, #124]	; (10000274 <__get_current_exception+0xe>)
100001f8:	6800      	ldr	r0, [r0, #0]
100001fa:	2800      	cmp	r0, #0
100001fc:	d12f      	bne.n	1000025e <hold_non_core0_in_bootrom>
100001fe:	a40d      	add	r4, pc, #52	; (adr r4, 10000234 <data_cpy_table>)
10000200:	cc0e      	ldmia	r4!, {r1, r2, r3}
10000202:	2900      	cmp	r1, #0
10000204:	d002      	beq.n	1000020c <_reset_handler+0x16>
10000206:	f000 f812 	bl	1000022e <data_cpy>
1000020a:	e7f9      	b.n	10000200 <_reset_handler+0xa>
1000020c:	491a      	ldr	r1, [pc, #104]	; (10000278 <__get_current_exception+0x12>)
1000020e:	4a1b      	ldr	r2, [pc, #108]	; (1000027c <__get_current_exception+0x16>)
10000210:	2000      	movs	r0, #0
10000212:	e000      	b.n	10000216 <bss_fill_test>

10000214 <bss_fill_loop>:
10000214:	c101      	stmia	r1!, {r0}

10000216 <bss_fill_test>:
10000216:	4291      	cmp	r1, r2
10000218:	d1fc      	bne.n	10000214 <bss_fill_loop>

1000021a <platform_entry>:
1000021a:	4919      	ldr	r1, [pc, #100]	; (10000280 <__get_current_exception+0x1a>)
1000021c:	4788      	blx	r1
1000021e:	4919      	ldr	r1, [pc, #100]	; (10000284 <__get_current_exception+0x1e>)
10000220:	4788      	blx	r1
10000222:	4919      	ldr	r1, [pc, #100]	; (10000288 <__get_current_exception+0x22>)
10000224:	4788      	blx	r1
10000226:	be00      	bkpt	0x0000
10000228:	e7fd      	b.n	10000226 <platform_entry+0xc>

1000022a <data_cpy_loop>:
1000022a:	c901      	ldmia	r1!, {r0}
1000022c:	c201      	stmia	r2!, {r0}

1000022e <data_cpy>:
1000022e:	429a      	cmp	r2, r3
10000230:	d3fb      	bcc.n	1000022a <data_cpy_loop>
10000232:	4770      	bx	lr

10000234 <data_cpy_table>:
10000234:	1000b968 	.word	0x1000b968
10000238:	200000c0 	.word	0x200000c0
1000023c:	200008cc 	.word	0x200008cc
10000240:	1000c174 	.word	0x1000c174
10000244:	20040000 	.word	0x20040000
10000248:	20040000 	.word	0x20040000
1000024c:	1000c174 	.word	0x1000c174
10000250:	20041000 	.word	0x20041000
10000254:	20041000 	.word	0x20041000
10000258:	00000000 	.word	0x00000000
1000025c:	4770      	bx	lr

1000025e <hold_non_core0_in_bootrom>:
1000025e:	480b      	ldr	r0, [pc, #44]	; (1000028c <__get_current_exception+0x26>)
10000260:	f007 f9aa 	bl	100075b8 <rom_func_lookup>
10000264:	4700      	bx	r0

10000266 <__get_current_exception>:
10000266:	f3ef 8005 	mrs	r0, IPSR
1000026a:	b2c0      	uxtb	r0, r0
1000026c:	4770      	bx	lr
1000026e:	0000      	.short	0x0000
10000270:	e000ed08 	.word	0xe000ed08
10000274:	d0000000 	.word	0xd0000000
10000278:	200008d0 	.word	0x200008d0
1000027c:	20012dc4 	.word	0x20012dc4
10000280:	10005a61 	.word	0x10005a61
10000284:	10000499 	.word	0x10000499
10000288:	10005b51 	.word	0x10005b51
1000028c:	00005657 	.word	0x00005657

10000290 <__bi_50>:
10000290:	50520006 5360b3ab 1000b700              ..RP..`S....

1000029c <__bi_38>:
1000029c:	50520006 02031c86 1000b710              ..RP........

100002a8 <__bi_30>:
100002a8:	50520006 9da22254 1000b724              ..RPT"..$...

100002b4 <__bi_22>:
100002b4:	50520005 68f465de 1000c174              ..RP.e.ht...

100002c0 <_init>:
100002c0:	b5f8      	push	{r3, r4, r5, r6, r7, lr}
100002c2:	46c0      	nop			; (mov r8, r8)

100002c4 <deregister_tm_clones>:
100002c4:	4804      	ldr	r0, [pc, #16]	; (100002d8 <deregister_tm_clones+0x14>)
100002c6:	4b05      	ldr	r3, [pc, #20]	; (100002dc <deregister_tm_clones+0x18>)
100002c8:	b510      	push	{r4, lr}
100002ca:	4283      	cmp	r3, r0
100002cc:	d003      	beq.n	100002d6 <deregister_tm_clones+0x12>
100002ce:	4b04      	ldr	r3, [pc, #16]	; (100002e0 <deregister_tm_clones+0x1c>)
100002d0:	2b00      	cmp	r3, #0
100002d2:	d000      	beq.n	100002d6 <deregister_tm_clones+0x12>
100002d4:	4798      	blx	r3
100002d6:	bd10      	pop	{r4, pc}
100002d8:	200008cc 	.word	0x200008cc
100002dc:	200008cc 	.word	0x200008cc
100002e0:	00000000 	.word	0x00000000

100002e4 <register_tm_clones>:
100002e4:	4806      	ldr	r0, [pc, #24]	; (10000300 <register_tm_clones+0x1c>)
100002e6:	4907      	ldr	r1, [pc, #28]	; (10000304 <register_tm_clones+0x20>)
100002e8:	1a09      	subs	r1, r1, r0
100002ea:	108b      	asrs	r3, r1, #2
100002ec:	0fc9      	lsrs	r1, r1, #31
100002ee:	18c9      	adds	r1, r1, r3
100002f0:	b510      	push	{r4, lr}
100002f2:	1049      	asrs	r1, r1, #1
100002f4:	d003      	beq.n	100002fe <register_tm_clones+0x1a>
100002f6:	4b04      	ldr	r3, [pc, #16]	; (10000308 <register_tm_clones+0x24>)
100002f8:	2b00      	cmp	r3, #0
100002fa:	d000      	beq.n	100002fe <register_tm_clones+0x1a>
100002fc:	4798      	blx	r3
100002fe:	bd10      	pop	{r4, pc}
10000300:	200008cc 	.word	0x200008cc
10000304:	200008cc 	.word	0x200008cc
10000308:	00000000 	.word	0x00000000

1000030c <__do_global_dtors_aux>:
1000030c:	b510      	push	{r4, lr}
1000030e:	4c07      	ldr	r4, [pc, #28]	; (1000032c <__do_global_dtors_aux+0x20>)
10000310:	7823      	ldrb	r3, [r4, #0]
10000312:	2b00      	cmp	r3, #0
10000314:	d109      	bne.n	1000032a <__do_global_dtors_aux+0x1e>
10000316:	f7ff ffd5 	bl	100002c4 <deregister_tm_clones>
1000031a:	4b05      	ldr	r3, [pc, #20]	; (10000330 <__do_global_dtors_aux+0x24>)
1000031c:	2b00      	cmp	r3, #0
1000031e:	d002      	beq.n	10000326 <__do_global_dtors_aux+0x1a>
10000320:	4804      	ldr	r0, [pc, #16]	; (10000334 <__do_global_dtors_aux+0x28>)
10000322:	e000      	b.n	10000326 <__do_global_dtors_aux+0x1a>
10000324:	bf00      	nop
10000326:	2301      	movs	r3, #1
10000328:	7023      	strb	r3, [r4, #0]
1000032a:	bd10      	pop	{r4, pc}
1000032c:	20000c28 	.word	0x20000c28
10000330:	00000000 	.word	0x00000000
10000334:	1000b278 	.word	0x1000b278

10000338 <frame_dummy>:
10000338:	4b05      	ldr	r3, [pc, #20]	; (10000350 <frame_dummy+0x18>)
1000033a:	b510      	push	{r4, lr}
1000033c:	2b00      	cmp	r3, #0
1000033e:	d003      	beq.n	10000348 <frame_dummy+0x10>
10000340:	4904      	ldr	r1, [pc, #16]	; (10000354 <frame_dummy+0x1c>)
10000342:	4805      	ldr	r0, [pc, #20]	; (10000358 <frame_dummy+0x20>)
10000344:	e000      	b.n	10000348 <frame_dummy+0x10>
10000346:	bf00      	nop
10000348:	f7ff ffcc 	bl	100002e4 <register_tm_clones>
1000034c:	bd10      	pop	{r4, pc}
1000034e:	46c0      	nop			; (mov r8, r8)
10000350:	00000000 	.word	0x00000000
10000354:	20000c2c 	.word	0x20000c2c
10000358:	1000b278 	.word	0x1000b278

1000035c <pongTask>:
1000035c:	23d0      	movs	r3, #208	; 0xd0
1000035e:	b530      	push	{r4, r5, lr}
10000360:	061b      	lsls	r3, r3, #24
10000362:	b083      	sub	sp, #12
10000364:	681d      	ldr	r5, [r3, #0]
10000366:	f005 fb71 	bl	10005a4c <xPortGetFreeHeapSize>
1000036a:	0004      	movs	r4, r0
1000036c:	2000      	movs	r0, #0
1000036e:	f005 f815 	bl	1000539c <uxTaskGetStackHighWaterMark>
10000372:	0023      	movs	r3, r4
10000374:	002a      	movs	r2, r5
10000376:	490a      	ldr	r1, [pc, #40]	; (100003a0 <pongTask+0x44>)
10000378:	9000      	str	r0, [sp, #0]
1000037a:	480a      	ldr	r0, [pc, #40]	; (100003a4 <pongTask+0x48>)
1000037c:	f008 fa14 	bl	100087a8 <__wrap_printf>
10000380:	4809      	ldr	r0, [pc, #36]	; (100003a8 <pongTask+0x4c>)
10000382:	f008 f96f 	bl	10008664 <__wrap_puts>
10000386:	2064      	movs	r0, #100	; 0x64
10000388:	f004 fd52 	bl	10004e30 <vTaskDelay>
1000038c:	f000 fdc6 	bl	10000f1c <initPongGame>
10000390:	2003      	movs	r0, #3
10000392:	f004 fd4d 	bl	10004e30 <vTaskDelay>
10000396:	20fa      	movs	r0, #250	; 0xfa
10000398:	0080      	lsls	r0, r0, #2
1000039a:	f000 fe4b 	bl	10001034 <playPongGame>
1000039e:	e7f7      	b.n	10000390 <pongTask+0x34>
100003a0:	20009e84 	.word	0x20009e84
100003a4:	1000b278 	.word	0x1000b278
100003a8:	1000b290 	.word	0x1000b290

100003ac <app_main>:
100003ac:	20fa      	movs	r0, #250	; 0xfa
100003ae:	b530      	push	{r4, r5, lr}
100003b0:	0040      	lsls	r0, r0, #1
100003b2:	b085      	sub	sp, #20
100003b4:	f004 fd3c 	bl	10004e30 <vTaskDelay>
100003b8:	23d0      	movs	r3, #208	; 0xd0
100003ba:	061b      	lsls	r3, r3, #24
100003bc:	681d      	ldr	r5, [r3, #0]
100003be:	f005 fb45 	bl	10005a4c <xPortGetFreeHeapSize>
100003c2:	0004      	movs	r4, r0
100003c4:	2000      	movs	r0, #0
100003c6:	f004 ffe9 	bl	1000539c <uxTaskGetStackHighWaterMark>
100003ca:	0023      	movs	r3, r4
100003cc:	002a      	movs	r2, r5
100003ce:	4928      	ldr	r1, [pc, #160]	; (10000470 <app_main+0xc4>)
100003d0:	9000      	str	r0, [sp, #0]
100003d2:	4828      	ldr	r0, [pc, #160]	; (10000474 <app_main+0xc8>)
100003d4:	f008 f9e8 	bl	100087a8 <__wrap_printf>
100003d8:	2119      	movs	r1, #25
100003da:	4827      	ldr	r0, [pc, #156]	; (10000478 <app_main+0xcc>)
100003dc:	f008 f9e4 	bl	100087a8 <__wrap_printf>
100003e0:	f000 fff2 	bl	100013c8 <LEDmx_start>
100003e4:	2280      	movs	r2, #128	; 0x80
100003e6:	2100      	movs	r1, #0
100003e8:	01d2      	lsls	r2, r2, #7
100003ea:	4824      	ldr	r0, [pc, #144]	; (1000047c <app_main+0xd0>)
100003ec:	f007 ffce 	bl	1000838c <__wrap_memset>
100003f0:	2014      	movs	r0, #20
100003f2:	f001 f82d 	bl	10001450 <LEDmx_SetMasterBrightness>
100003f6:	4822      	ldr	r0, [pc, #136]	; (10000480 <app_main+0xd4>)
100003f8:	f001 fa26 	bl	10001848 <LEDmx_ClearScreen>
100003fc:	2064      	movs	r0, #100	; 0x64
100003fe:	f004 fd17 	bl	10004e30 <vTaskDelay>
10000402:	2000      	movs	r0, #0
10000404:	f001 fa20 	bl	10001848 <LEDmx_ClearScreen>
10000408:	2401      	movs	r4, #1
1000040a:	0020      	movs	r0, r4
1000040c:	2100      	movs	r1, #0
1000040e:	4a1d      	ldr	r2, [pc, #116]	; (10000484 <app_main+0xd8>)
10000410:	f001 f814 	bl	1000143c <LEDmx_SetPixel>
10000414:	0020      	movs	r0, r4
10000416:	213f      	movs	r1, #63	; 0x3f
10000418:	4a1b      	ldr	r2, [pc, #108]	; (10000488 <app_main+0xdc>)
1000041a:	3401      	adds	r4, #1
1000041c:	f001 f80e 	bl	1000143c <LEDmx_SetPixel>
10000420:	2c3f      	cmp	r4, #63	; 0x3f
10000422:	d1f2      	bne.n	1000040a <app_main+0x5e>
10000424:	2400      	movs	r4, #0
10000426:	22cc      	movs	r2, #204	; 0xcc
10000428:	0021      	movs	r1, r4
1000042a:	2000      	movs	r0, #0
1000042c:	0192      	lsls	r2, r2, #6
1000042e:	f001 f805 	bl	1000143c <LEDmx_SetPixel>
10000432:	0021      	movs	r1, r4
10000434:	2233      	movs	r2, #51	; 0x33
10000436:	203f      	movs	r0, #63	; 0x3f
10000438:	3401      	adds	r4, #1
1000043a:	f000 ffff 	bl	1000143c <LEDmx_SetPixel>
1000043e:	2c40      	cmp	r4, #64	; 0x40
10000440:	d1f1      	bne.n	10000426 <app_main+0x7a>
10000442:	2120      	movs	r1, #32
10000444:	2001      	movs	r0, #1
10000446:	4a11      	ldr	r2, [pc, #68]	; (1000048c <app_main+0xe0>)
10000448:	f000 fff8 	bl	1000143c <LEDmx_SetPixel>
1000044c:	aa03      	add	r2, sp, #12
1000044e:	2300      	movs	r3, #0
10000450:	9201      	str	r2, [sp, #4]
10000452:	22fa      	movs	r2, #250	; 0xfa
10000454:	490e      	ldr	r1, [pc, #56]	; (10000490 <app_main+0xe4>)
10000456:	9303      	str	r3, [sp, #12]
10000458:	9300      	str	r3, [sp, #0]
1000045a:	0092      	lsls	r2, r2, #2
1000045c:	3301      	adds	r3, #1
1000045e:	480d      	ldr	r0, [pc, #52]	; (10000494 <app_main+0xe8>)
10000460:	f004 f986 	bl	10004770 <xTaskCreate>
10000464:	2000      	movs	r0, #0
10000466:	f004 fac5 	bl	100049f4 <vTaskDelete>
1000046a:	b005      	add	sp, #20
1000046c:	bd30      	pop	{r4, r5, pc}
1000046e:	46c0      	nop			; (mov r8, r8)
10000470:	20009e84 	.word	0x20009e84
10000474:	1000b278 	.word	0x1000b278
10000478:	1000b2a4 	.word	0x1000b2a4
1000047c:	20001a64 	.word	0x20001a64
10000480:	00020202 	.word	0x00020202
10000484:	00333300 	.word	0x00333300
10000488:	00330033 	.word	0x00330033
1000048c:	00003333 	.word	0x00003333
10000490:	1000b2c0 	.word	0x1000b2c0
10000494:	1000035d 	.word	0x1000035d

10000498 <main>:
10000498:	b500      	push	{lr}
1000049a:	b083      	sub	sp, #12
1000049c:	f008 f990 	bl	100087c0 <stdio_init_all>
100004a0:	200f      	movs	r0, #15
100004a2:	f001 fc51 	bl	10001d48 <gpio_init>
100004a6:	23d0      	movs	r3, #208	; 0xd0
100004a8:	2280      	movs	r2, #128	; 0x80
100004aa:	061b      	lsls	r3, r3, #24
100004ac:	0212      	lsls	r2, r2, #8
100004ae:	625a      	str	r2, [r3, #36]	; 0x24
100004b0:	2300      	movs	r3, #0
100004b2:	22fa      	movs	r2, #250	; 0xfa
100004b4:	4905      	ldr	r1, [pc, #20]	; (100004cc <main+0x34>)
100004b6:	9301      	str	r3, [sp, #4]
100004b8:	9300      	str	r3, [sp, #0]
100004ba:	00d2      	lsls	r2, r2, #3
100004bc:	3301      	adds	r3, #1
100004be:	4804      	ldr	r0, [pc, #16]	; (100004d0 <main+0x38>)
100004c0:	f004 f956 	bl	10004770 <xTaskCreate>
100004c4:	f004 faf2 	bl	10004aac <vTaskStartScheduler>
100004c8:	e7fe      	b.n	100004c8 <main+0x30>
100004ca:	46c0      	nop			; (mov r8, r8)
100004cc:	1000b2cc 	.word	0x1000b2cc
100004d0:	100003ad 	.word	0x100003ad

100004d4 <dma_hub75_handler>:
100004d4:	2101      	movs	r1, #1
100004d6:	b530      	push	{r4, r5, lr}
100004d8:	000c      	movs	r4, r1
100004da:	4b1b      	ldr	r3, [pc, #108]	; (10000548 <dma_hub75_handler+0x74>)
100004dc:	20a0      	movs	r0, #160	; 0xa0
100004de:	681b      	ldr	r3, [r3, #0]
100004e0:	4a1a      	ldr	r2, [pc, #104]	; (1000054c <dma_hub75_handler+0x78>)
100004e2:	409c      	lsls	r4, r3
100004e4:	05c0      	lsls	r0, r0, #23
100004e6:	5885      	ldr	r5, [r0, r2]
100004e8:	422c      	tst	r4, r5
100004ea:	d014      	beq.n	10000516 <dma_hub75_handler+0x42>
100004ec:	5084      	str	r4, [r0, r2]
100004ee:	24a0      	movs	r4, #160	; 0xa0
100004f0:	05e4      	lsls	r4, r4, #23
100004f2:	46a4      	mov	ip, r4
100004f4:	4816      	ldr	r0, [pc, #88]	; (10000550 <dma_hub75_handler+0x7c>)
100004f6:	4c17      	ldr	r4, [pc, #92]	; (10000554 <dma_hub75_handler+0x80>)
100004f8:	8802      	ldrh	r2, [r0, #0]
100004fa:	019b      	lsls	r3, r3, #6
100004fc:	0095      	lsls	r5, r2, #2
100004fe:	592c      	ldr	r4, [r5, r4]
10000500:	4463      	add	r3, ip
10000502:	63dc      	str	r4, [r3, #60]	; 0x3c
10000504:	000c      	movs	r4, r1
10000506:	3201      	adds	r2, #1
10000508:	b293      	uxth	r3, r2
1000050a:	4a13      	ldr	r2, [pc, #76]	; (10000558 <dma_hub75_handler+0x84>)
1000050c:	8003      	strh	r3, [r0, #0]
1000050e:	8812      	ldrh	r2, [r2, #0]
10000510:	4094      	lsls	r4, r2
10000512:	42a3      	cmp	r3, r4
10000514:	da10      	bge.n	10000538 <dma_hub75_handler+0x64>
10000516:	2201      	movs	r2, #1
10000518:	4b10      	ldr	r3, [pc, #64]	; (1000055c <dma_hub75_handler+0x88>)
1000051a:	20a0      	movs	r0, #160	; 0xa0
1000051c:	681b      	ldr	r3, [r3, #0]
1000051e:	490b      	ldr	r1, [pc, #44]	; (1000054c <dma_hub75_handler+0x78>)
10000520:	409a      	lsls	r2, r3
10000522:	05c0      	lsls	r0, r0, #23
10000524:	5844      	ldr	r4, [r0, r1]
10000526:	4222      	tst	r2, r4
10000528:	d005      	beq.n	10000536 <dma_hub75_handler+0x62>
1000052a:	4684      	mov	ip, r0
1000052c:	5042      	str	r2, [r0, r1]
1000052e:	019b      	lsls	r3, r3, #6
10000530:	4a0b      	ldr	r2, [pc, #44]	; (10000560 <dma_hub75_handler+0x8c>)
10000532:	4463      	add	r3, ip
10000534:	63da      	str	r2, [r3, #60]	; 0x3c
10000536:	bd30      	pop	{r4, r5, pc}
10000538:	23d0      	movs	r3, #208	; 0xd0
1000053a:	2280      	movs	r2, #128	; 0x80
1000053c:	061b      	lsls	r3, r3, #24
1000053e:	0212      	lsls	r2, r2, #8
10000540:	61da      	str	r2, [r3, #28]
10000542:	8001      	strh	r1, [r0, #0]
10000544:	e7e7      	b.n	10000516 <dma_hub75_handler+0x42>
10000546:	46c0      	nop			; (mov r8, r8)
10000548:	20005a64 	.word	0x20005a64
1000054c:	0000040c 	.word	0x0000040c
10000550:	20000388 	.word	0x20000388
10000554:	200010a0 	.word	0x200010a0
10000558:	2000038a 	.word	0x2000038a
1000055c:	200019f8 	.word	0x200019f8
10000560:	200015f8 	.word	0x200015f8

10000564 <hub75_config>:
10000564:	b5f0      	push	{r4, r5, r6, r7, lr}
10000566:	46de      	mov	lr, fp
10000568:	4657      	mov	r7, sl
1000056a:	464e      	mov	r6, r9
1000056c:	4645      	mov	r5, r8
1000056e:	b5e0      	push	{r5, r6, r7, lr}
10000570:	b08d      	sub	sp, #52	; 0x34
10000572:	2808      	cmp	r0, #8
10000574:	dd00      	ble.n	10000578 <hub75_config+0x14>
10000576:	2008      	movs	r0, #8
10000578:	2804      	cmp	r0, #4
1000057a:	da00      	bge.n	1000057e <hub75_config+0x1a>
1000057c:	2004      	movs	r0, #4
1000057e:	4bf0      	ldr	r3, [pc, #960]	; (10000940 <hub75_config+0x3dc>)
10000580:	2100      	movs	r1, #0
10000582:	8018      	strh	r0, [r3, #0]
10000584:	200b      	movs	r0, #11
10000586:	f001 fbfd 	bl	10001d84 <irq_set_enabled>
1000058a:	201b      	movs	r0, #27
1000058c:	f001 fbdc 	bl	10001d48 <gpio_init>
10000590:	23d0      	movs	r3, #208	; 0xd0
10000592:	2280      	movs	r2, #128	; 0x80
10000594:	061b      	lsls	r3, r3, #24
10000596:	0512      	lsls	r2, r2, #20
10000598:	625a      	str	r2, [r3, #36]	; 0x24
1000059a:	4cea      	ldr	r4, [pc, #936]	; (10000944 <hub75_config+0x3e0>)
1000059c:	615a      	str	r2, [r3, #20]
1000059e:	4bea      	ldr	r3, [pc, #936]	; (10000948 <hub75_config+0x3e4>)
100005a0:	0020      	movs	r0, r4
100005a2:	6819      	ldr	r1, [r3, #0]
100005a4:	469a      	mov	sl, r3
100005a6:	f001 f9bd 	bl	10001924 <pio_sm_is_claimed>
100005aa:	2800      	cmp	r0, #0
100005ac:	d000      	beq.n	100005b0 <hub75_config+0x4c>
100005ae:	e246      	b.n	10000a3e <hub75_config+0x4da>
100005b0:	4be6      	ldr	r3, [pc, #920]	; (1000094c <hub75_config+0x3e8>)
100005b2:	4ce4      	ldr	r4, [pc, #912]	; (10000944 <hub75_config+0x3e0>)
100005b4:	6819      	ldr	r1, [r3, #0]
100005b6:	0020      	movs	r0, r4
100005b8:	469b      	mov	fp, r3
100005ba:	f001 f9b3 	bl	10001924 <pio_sm_is_claimed>
100005be:	2800      	cmp	r0, #0
100005c0:	d000      	beq.n	100005c4 <hub75_config+0x60>
100005c2:	e22a      	b.n	10000a1a <hub75_config+0x4b6>
100005c4:	48df      	ldr	r0, [pc, #892]	; (10000944 <hub75_config+0x3e0>)
100005c6:	f001 fa21 	bl	10001a0c <pio_clear_instruction_memory>
100005ca:	4be1      	ldr	r3, [pc, #900]	; (10000950 <hub75_config+0x3ec>)
100005cc:	681b      	ldr	r3, [r3, #0]
100005ce:	0018      	movs	r0, r3
100005d0:	9303      	str	r3, [sp, #12]
100005d2:	f002 fd8b 	bl	100030ec <dma_channel_is_claimed>
100005d6:	2800      	cmp	r0, #0
100005d8:	d019      	beq.n	1000060e <hub75_config+0xaa>
100005da:	4bdd      	ldr	r3, [pc, #884]	; (10000950 <hub75_config+0x3ec>)
100005dc:	21a0      	movs	r1, #160	; 0xa0
100005de:	6818      	ldr	r0, [r3, #0]
100005e0:	2301      	movs	r3, #1
100005e2:	4083      	lsls	r3, r0
100005e4:	4adb      	ldr	r2, [pc, #876]	; (10000954 <hub75_config+0x3f0>)
100005e6:	05c9      	lsls	r1, r1, #23
100005e8:	508b      	str	r3, [r1, r2]
100005ea:	4bdb      	ldr	r3, [pc, #876]	; (10000958 <hub75_config+0x3f4>)
100005ec:	0182      	lsls	r2, r0, #6
100005ee:	1854      	adds	r4, r2, r1
100005f0:	469c      	mov	ip, r3
100005f2:	2180      	movs	r1, #128	; 0x80
100005f4:	4462      	add	r2, ip
100005f6:	0449      	lsls	r1, r1, #17
100005f8:	6813      	ldr	r3, [r2, #0]
100005fa:	420b      	tst	r3, r1
100005fc:	d1fc      	bne.n	100005f8 <hub75_config+0x94>
100005fe:	4ad7      	ldr	r2, [pc, #860]	; (1000095c <hub75_config+0x3f8>)
10000600:	02c3      	lsls	r3, r0, #11
10000602:	401a      	ands	r2, r3
10000604:	4bd6      	ldr	r3, [pc, #856]	; (10000960 <hub75_config+0x3fc>)
10000606:	4313      	orrs	r3, r2
10000608:	6123      	str	r3, [r4, #16]
1000060a:	f002 fd57 	bl	100030bc <dma_channel_unclaim>
1000060e:	4bd5      	ldr	r3, [pc, #852]	; (10000964 <hub75_config+0x400>)
10000610:	681b      	ldr	r3, [r3, #0]
10000612:	0018      	movs	r0, r3
10000614:	9303      	str	r3, [sp, #12]
10000616:	f002 fd69 	bl	100030ec <dma_channel_is_claimed>
1000061a:	2800      	cmp	r0, #0
1000061c:	d019      	beq.n	10000652 <hub75_config+0xee>
1000061e:	4bd1      	ldr	r3, [pc, #836]	; (10000964 <hub75_config+0x400>)
10000620:	21a0      	movs	r1, #160	; 0xa0
10000622:	6818      	ldr	r0, [r3, #0]
10000624:	2301      	movs	r3, #1
10000626:	4083      	lsls	r3, r0
10000628:	4aca      	ldr	r2, [pc, #808]	; (10000954 <hub75_config+0x3f0>)
1000062a:	05c9      	lsls	r1, r1, #23
1000062c:	508b      	str	r3, [r1, r2]
1000062e:	4bca      	ldr	r3, [pc, #808]	; (10000958 <hub75_config+0x3f4>)
10000630:	0182      	lsls	r2, r0, #6
10000632:	1854      	adds	r4, r2, r1
10000634:	469c      	mov	ip, r3
10000636:	2180      	movs	r1, #128	; 0x80
10000638:	4462      	add	r2, ip
1000063a:	0449      	lsls	r1, r1, #17
1000063c:	6813      	ldr	r3, [r2, #0]
1000063e:	420b      	tst	r3, r1
10000640:	d1fc      	bne.n	1000063c <hub75_config+0xd8>
10000642:	4ac6      	ldr	r2, [pc, #792]	; (1000095c <hub75_config+0x3f8>)
10000644:	02c3      	lsls	r3, r0, #11
10000646:	401a      	ands	r2, r3
10000648:	4bc5      	ldr	r3, [pc, #788]	; (10000960 <hub75_config+0x3fc>)
1000064a:	4313      	orrs	r3, r2
1000064c:	6123      	str	r3, [r4, #16]
1000064e:	f002 fd35 	bl	100030bc <dma_channel_unclaim>
10000652:	200b      	movs	r0, #11
10000654:	49c4      	ldr	r1, [pc, #784]	; (10000968 <hub75_config+0x404>)
10000656:	f001 fce9 	bl	1000202c <irq_remove_handler>
1000065a:	4bb9      	ldr	r3, [pc, #740]	; (10000940 <hub75_config+0x3dc>)
1000065c:	2100      	movs	r1, #0
1000065e:	881b      	ldrh	r3, [r3, #0]
10000660:	48c2      	ldr	r0, [pc, #776]	; (1000096c <hub75_config+0x408>)
10000662:	4699      	mov	r9, r3
10000664:	02da      	lsls	r2, r3, #11
10000666:	f007 fe91 	bl	1000838c <__wrap_memset>
1000066a:	464b      	mov	r3, r9
1000066c:	2100      	movs	r1, #0
1000066e:	01da      	lsls	r2, r3, #7
10000670:	48bf      	ldr	r0, [pc, #764]	; (10000970 <hub75_config+0x40c>)
10000672:	f007 fe8b 	bl	1000838c <__wrap_memset>
10000676:	464b      	mov	r3, r9
10000678:	2204      	movs	r2, #4
1000067a:	2100      	movs	r1, #0
1000067c:	409a      	lsls	r2, r3
1000067e:	48bd      	ldr	r0, [pc, #756]	; (10000974 <hub75_config+0x410>)
10000680:	f007 fe84 	bl	1000838c <__wrap_memset>
10000684:	2300      	movs	r3, #0
10000686:	4698      	mov	r8, r3
10000688:	464b      	mov	r3, r9
1000068a:	2b00      	cmp	r3, #0
1000068c:	d01b      	beq.n	100006c6 <hub75_config+0x162>
1000068e:	2601      	movs	r6, #1
10000690:	464a      	mov	r2, r9
10000692:	0033      	movs	r3, r6
10000694:	4093      	lsls	r3, r2
10000696:	2b01      	cmp	r3, #1
10000698:	dd15      	ble.n	100006c6 <hub75_config+0x162>
1000069a:	0037      	movs	r7, r6
1000069c:	4643      	mov	r3, r8
1000069e:	2401      	movs	r4, #1
100006a0:	409f      	lsls	r7, r3
100006a2:	4db5      	ldr	r5, [pc, #724]	; (10000978 <hub75_config+0x414>)
100006a4:	4227      	tst	r7, r4
100006a6:	d003      	beq.n	100006b0 <hub75_config+0x14c>
100006a8:	682b      	ldr	r3, [r5, #0]
100006aa:	2b00      	cmp	r3, #0
100006ac:	d100      	bne.n	100006b0 <hub75_config+0x14c>
100006ae:	e190      	b.n	100009d2 <hub75_config+0x46e>
100006b0:	0033      	movs	r3, r6
100006b2:	3401      	adds	r4, #1
100006b4:	4093      	lsls	r3, r2
100006b6:	3504      	adds	r5, #4
100006b8:	42a3      	cmp	r3, r4
100006ba:	dcf3      	bgt.n	100006a4 <hub75_config+0x140>
100006bc:	2301      	movs	r3, #1
100006be:	469c      	mov	ip, r3
100006c0:	44e0      	add	r8, ip
100006c2:	4590      	cmp	r8, r2
100006c4:	dbe5      	blt.n	10000692 <hub75_config+0x12e>
100006c6:	2101      	movs	r1, #1
100006c8:	489e      	ldr	r0, [pc, #632]	; (10000944 <hub75_config+0x3e0>)
100006ca:	f001 f90d 	bl	100018e8 <pio_claim_unused_sm>
100006ce:	465b      	mov	r3, fp
100006d0:	2101      	movs	r1, #1
100006d2:	6018      	str	r0, [r3, #0]
100006d4:	489b      	ldr	r0, [pc, #620]	; (10000944 <hub75_config+0x3e0>)
100006d6:	f001 f907 	bl	100018e8 <pio_claim_unused_sm>
100006da:	4653      	mov	r3, sl
100006dc:	49a7      	ldr	r1, [pc, #668]	; (1000097c <hub75_config+0x418>)
100006de:	6018      	str	r0, [r3, #0]
100006e0:	4898      	ldr	r0, [pc, #608]	; (10000944 <hub75_config+0x3e0>)
100006e2:	f001 f92f 	bl	10001944 <pio_add_program>
100006e6:	465b      	mov	r3, fp
100006e8:	681d      	ldr	r5, [r3, #0]
100006ea:	2380      	movs	r3, #128	; 0x80
100006ec:	025b      	lsls	r3, r3, #9
100006ee:	9308      	str	r3, [sp, #32]
100006f0:	0003      	movs	r3, r0
100006f2:	330a      	adds	r3, #10
100006f4:	01c2      	lsls	r2, r0, #7
100006f6:	031b      	lsls	r3, r3, #12
100006f8:	4313      	orrs	r3, r2
100006fa:	4aa1      	ldr	r2, [pc, #644]	; (10000980 <hub75_config+0x41c>)
100006fc:	ac08      	add	r4, sp, #32
100006fe:	4013      	ands	r3, r2
10000700:	6063      	str	r3, [r4, #4]
10000702:	23c0      	movs	r3, #192	; 0xc0
10000704:	031b      	lsls	r3, r3, #12
10000706:	930a      	str	r3, [sp, #40]	; 0x28
10000708:	2380      	movs	r3, #128	; 0x80
1000070a:	059b      	lsls	r3, r3, #22
1000070c:	60e3      	str	r3, [r4, #12]
1000070e:	2301      	movs	r3, #1
10000710:	0007      	movs	r7, r0
10000712:	9300      	str	r3, [sp, #0]
10000714:	2206      	movs	r2, #6
10000716:	0029      	movs	r1, r5
10000718:	488a      	ldr	r0, [pc, #552]	; (10000944 <hub75_config+0x3e0>)
1000071a:	3305      	adds	r3, #5
1000071c:	f001 f992 	bl	10001a44 <pio_sm_set_consecutive_pindirs>
10000720:	2606      	movs	r6, #6
10000722:	0030      	movs	r0, r6
10000724:	2106      	movs	r1, #6
10000726:	3601      	adds	r6, #1
10000728:	f001 faf6 	bl	10001d18 <gpio_set_function>
1000072c:	2e0c      	cmp	r6, #12
1000072e:	d1f8      	bne.n	10000722 <hub75_config+0x1be>
10000730:	68e3      	ldr	r3, [r4, #12]
10000732:	4a94      	ldr	r2, [pc, #592]	; (10000984 <hub75_config+0x420>)
10000734:	4e83      	ldr	r6, [pc, #524]	; (10000944 <hub75_config+0x3e0>)
10000736:	401a      	ands	r2, r3
10000738:	4b93      	ldr	r3, [pc, #588]	; (10000988 <hub75_config+0x424>)
1000073a:	0029      	movs	r1, r5
1000073c:	4313      	orrs	r3, r2
1000073e:	60e3      	str	r3, [r4, #12]
10000740:	2301      	movs	r3, #1
10000742:	4699      	mov	r9, r3
10000744:	221a      	movs	r2, #26
10000746:	0030      	movs	r0, r6
10000748:	9300      	str	r3, [sp, #0]
1000074a:	3301      	adds	r3, #1
1000074c:	f001 f97a 	bl	10001a44 <pio_sm_set_consecutive_pindirs>
10000750:	2106      	movs	r1, #6
10000752:	201a      	movs	r0, #26
10000754:	f001 fae0 	bl	10001d18 <gpio_set_function>
10000758:	2106      	movs	r1, #6
1000075a:	201b      	movs	r0, #27
1000075c:	f001 fadc 	bl	10001d18 <gpio_set_function>
10000760:	68e3      	ldr	r3, [r4, #12]
10000762:	4a8a      	ldr	r2, [pc, #552]	; (1000098c <hub75_config+0x428>)
10000764:	0029      	movs	r1, r5
10000766:	401a      	ands	r2, r3
10000768:	4b89      	ldr	r3, [pc, #548]	; (10000990 <hub75_config+0x42c>)
1000076a:	0030      	movs	r0, r6
1000076c:	4313      	orrs	r3, r2
1000076e:	60e3      	str	r3, [r4, #12]
10000770:	464b      	mov	r3, r9
10000772:	221c      	movs	r2, #28
10000774:	9300      	str	r3, [sp, #0]
10000776:	f001 f965 	bl	10001a44 <pio_sm_set_consecutive_pindirs>
1000077a:	2106      	movs	r1, #6
1000077c:	201c      	movs	r0, #28
1000077e:	f001 facb 	bl	10001d18 <gpio_set_function>
10000782:	68e3      	ldr	r3, [r4, #12]
10000784:	4a83      	ldr	r2, [pc, #524]	; (10000994 <hub75_config+0x430>)
10000786:	0029      	movs	r1, r5
10000788:	401a      	ands	r2, r3
1000078a:	4b83      	ldr	r3, [pc, #524]	; (10000998 <hub75_config+0x434>)
1000078c:	0030      	movs	r0, r6
1000078e:	4313      	orrs	r3, r2
10000790:	60e3      	str	r3, [r4, #12]
10000792:	6862      	ldr	r2, [r4, #4]
10000794:	4b7a      	ldr	r3, [pc, #488]	; (10000980 <hub75_config+0x41c>)
10000796:	4013      	ands	r3, r2
10000798:	6063      	str	r3, [r4, #4]
1000079a:	8922      	ldrh	r2, [r4, #8]
1000079c:	4b7f      	ldr	r3, [pc, #508]	; (1000099c <hub75_config+0x438>)
1000079e:	4313      	orrs	r3, r2
100007a0:	60a3      	str	r3, [r4, #8]
100007a2:	003a      	movs	r2, r7
100007a4:	0023      	movs	r3, r4
100007a6:	f001 f98f 	bl	10001ac8 <pio_sm_init>
100007aa:	4a7d      	ldr	r2, [pc, #500]	; (100009a0 <hub75_config+0x43c>)
100007ac:	006b      	lsls	r3, r5, #1
100007ae:	4694      	mov	ip, r2
100007b0:	195b      	adds	r3, r3, r5
100007b2:	00db      	lsls	r3, r3, #3
100007b4:	4463      	add	r3, ip
100007b6:	601f      	str	r7, [r3, #0]
100007b8:	464b      	mov	r3, r9
100007ba:	40ab      	lsls	r3, r5
100007bc:	6832      	ldr	r2, [r6, #0]
100007be:	4979      	ldr	r1, [pc, #484]	; (100009a4 <hub75_config+0x440>)
100007c0:	4313      	orrs	r3, r2
100007c2:	6033      	str	r3, [r6, #0]
100007c4:	0030      	movs	r0, r6
100007c6:	f001 f8bd 	bl	10001944 <pio_add_program>
100007ca:	4653      	mov	r3, sl
100007cc:	681f      	ldr	r7, [r3, #0]
100007ce:	2300      	movs	r3, #0
100007d0:	2280      	movs	r2, #128	; 0x80
100007d2:	9307      	str	r3, [sp, #28]
100007d4:	23f8      	movs	r3, #248	; 0xf8
100007d6:	0252      	lsls	r2, r2, #9
100007d8:	025b      	lsls	r3, r3, #9
100007da:	9204      	str	r2, [sp, #16]
100007dc:	9305      	str	r3, [sp, #20]
100007de:	23c0      	movs	r3, #192	; 0xc0
100007e0:	4680      	mov	r8, r0
100007e2:	ad04      	add	r5, sp, #16
100007e4:	031b      	lsls	r3, r3, #12
100007e6:	2210      	movs	r2, #16
100007e8:	0029      	movs	r1, r5
100007ea:	0020      	movs	r0, r4
100007ec:	60ab      	str	r3, [r5, #8]
100007ee:	f007 fdd3 	bl	10008398 <__wrap___aeabi_memcpy>
100007f2:	4643      	mov	r3, r8
100007f4:	4642      	mov	r2, r8
100007f6:	3304      	adds	r3, #4
100007f8:	01d2      	lsls	r2, r2, #7
100007fa:	031b      	lsls	r3, r3, #12
100007fc:	4313      	orrs	r3, r2
100007fe:	0021      	movs	r1, r4
10000800:	6063      	str	r3, [r4, #4]
10000802:	2210      	movs	r2, #16
10000804:	0028      	movs	r0, r5
10000806:	f007 fdc7 	bl	10008398 <__wrap___aeabi_memcpy>
1000080a:	464b      	mov	r3, r9
1000080c:	2212      	movs	r2, #18
1000080e:	9300      	str	r3, [sp, #0]
10000810:	0039      	movs	r1, r7
10000812:	0030      	movs	r0, r6
10000814:	3304      	adds	r3, #4
10000816:	f001 f915 	bl	10001a44 <pio_sm_set_consecutive_pindirs>
1000081a:	2412      	movs	r4, #18
1000081c:	0020      	movs	r0, r4
1000081e:	2106      	movs	r1, #6
10000820:	3401      	adds	r4, #1
10000822:	f001 fa79 	bl	10001d18 <gpio_set_function>
10000826:	2c17      	cmp	r4, #23
10000828:	d1f8      	bne.n	1000081c <hub75_config+0x2b8>
1000082a:	68eb      	ldr	r3, [r5, #12]
1000082c:	4a55      	ldr	r2, [pc, #340]	; (10000984 <hub75_config+0x420>)
1000082e:	4e45      	ldr	r6, [pc, #276]	; (10000944 <hub75_config+0x3e0>)
10000830:	401a      	ands	r2, r3
10000832:	4b5d      	ldr	r3, [pc, #372]	; (100009a8 <hub75_config+0x444>)
10000834:	3c16      	subs	r4, #22
10000836:	4313      	orrs	r3, r2
10000838:	60eb      	str	r3, [r5, #12]
1000083a:	221a      	movs	r2, #26
1000083c:	2302      	movs	r3, #2
1000083e:	0039      	movs	r1, r7
10000840:	0030      	movs	r0, r6
10000842:	9400      	str	r4, [sp, #0]
10000844:	f001 f8fe 	bl	10001a44 <pio_sm_set_consecutive_pindirs>
10000848:	2106      	movs	r1, #6
1000084a:	201a      	movs	r0, #26
1000084c:	f001 fa64 	bl	10001d18 <gpio_set_function>
10000850:	2106      	movs	r1, #6
10000852:	201b      	movs	r0, #27
10000854:	f001 fa60 	bl	10001d18 <gpio_set_function>
10000858:	68eb      	ldr	r3, [r5, #12]
1000085a:	4a4c      	ldr	r2, [pc, #304]	; (1000098c <hub75_config+0x428>)
1000085c:	0039      	movs	r1, r7
1000085e:	401a      	ands	r2, r3
10000860:	4b4b      	ldr	r3, [pc, #300]	; (10000990 <hub75_config+0x42c>)
10000862:	0030      	movs	r0, r6
10000864:	4313      	orrs	r3, r2
10000866:	60eb      	str	r3, [r5, #12]
10000868:	892a      	ldrh	r2, [r5, #8]
1000086a:	4b4c      	ldr	r3, [pc, #304]	; (1000099c <hub75_config+0x438>)
1000086c:	4313      	orrs	r3, r2
1000086e:	60ab      	str	r3, [r5, #8]
10000870:	4642      	mov	r2, r8
10000872:	002b      	movs	r3, r5
10000874:	f001 f928 	bl	10001ac8 <pio_sm_init>
10000878:	4a49      	ldr	r2, [pc, #292]	; (100009a0 <hub75_config+0x43c>)
1000087a:	007b      	lsls	r3, r7, #1
1000087c:	4694      	mov	ip, r2
1000087e:	4642      	mov	r2, r8
10000880:	19db      	adds	r3, r3, r7
10000882:	00db      	lsls	r3, r3, #3
10000884:	4463      	add	r3, ip
10000886:	601a      	str	r2, [r3, #0]
10000888:	0023      	movs	r3, r4
1000088a:	40bb      	lsls	r3, r7
1000088c:	6832      	ldr	r2, [r6, #0]
1000088e:	2001      	movs	r0, #1
10000890:	4313      	orrs	r3, r2
10000892:	6033      	str	r3, [r6, #0]
10000894:	f002 fc1a 	bl	100030cc <dma_claim_unused_channel>
10000898:	25a0      	movs	r5, #160	; 0xa0
1000089a:	4b2d      	ldr	r3, [pc, #180]	; (10000950 <hub75_config+0x3ec>)
1000089c:	05ed      	lsls	r5, r5, #23
1000089e:	6018      	str	r0, [r3, #0]
100008a0:	465b      	mov	r3, fp
100008a2:	46ac      	mov	ip, r5
100008a4:	6819      	ldr	r1, [r3, #0]
100008a6:	4a41      	ldr	r2, [pc, #260]	; (100009ac <hub75_config+0x448>)
100008a8:	02c3      	lsls	r3, r0, #11
100008aa:	4690      	mov	r8, r2
100008ac:	4d40      	ldr	r5, [pc, #256]	; (100009b0 <hub75_config+0x44c>)
100008ae:	4013      	ands	r3, r2
100008b0:	03ca      	lsls	r2, r1, #15
100008b2:	4313      	orrs	r3, r2
100008b4:	0182      	lsls	r2, r0, #6
100008b6:	4462      	add	r2, ip
100008b8:	46ac      	mov	ip, r5
100008ba:	2600      	movs	r6, #0
100008bc:	0089      	lsls	r1, r1, #2
100008be:	4461      	add	r1, ip
100008c0:	6016      	str	r6, [r2, #0]
100008c2:	2719      	movs	r7, #25
100008c4:	6051      	str	r1, [r2, #4]
100008c6:	2180      	movs	r1, #128	; 0x80
100008c8:	433b      	orrs	r3, r7
100008ca:	0089      	lsls	r1, r1, #2
100008cc:	6091      	str	r1, [r2, #8]
100008ce:	6113      	str	r3, [r2, #16]
100008d0:	0023      	movs	r3, r4
100008d2:	4083      	lsls	r3, r0
100008d4:	4d37      	ldr	r5, [pc, #220]	; (100009b4 <hub75_config+0x450>)
100008d6:	2001      	movs	r0, #1
100008d8:	602b      	str	r3, [r5, #0]
100008da:	f002 fbf7 	bl	100030cc <dma_claim_unused_channel>
100008de:	4b21      	ldr	r3, [pc, #132]	; (10000964 <hub75_config+0x400>)
100008e0:	4641      	mov	r1, r8
100008e2:	6018      	str	r0, [r3, #0]
100008e4:	4653      	mov	r3, sl
100008e6:	681a      	ldr	r2, [r3, #0]
100008e8:	02c3      	lsls	r3, r0, #11
100008ea:	400b      	ands	r3, r1
100008ec:	03d1      	lsls	r1, r2, #15
100008ee:	430b      	orrs	r3, r1
100008f0:	21a0      	movs	r1, #160	; 0xa0
100008f2:	05c9      	lsls	r1, r1, #23
100008f4:	468c      	mov	ip, r1
100008f6:	492e      	ldr	r1, [pc, #184]	; (100009b0 <hub75_config+0x44c>)
100008f8:	431f      	orrs	r7, r3
100008fa:	0183      	lsls	r3, r0, #6
100008fc:	4463      	add	r3, ip
100008fe:	468c      	mov	ip, r1
10000900:	0092      	lsls	r2, r2, #2
10000902:	4462      	add	r2, ip
10000904:	601e      	str	r6, [r3, #0]
10000906:	4084      	lsls	r4, r0
10000908:	605a      	str	r2, [r3, #4]
1000090a:	2220      	movs	r2, #32
1000090c:	200b      	movs	r0, #11
1000090e:	609a      	str	r2, [r3, #8]
10000910:	4915      	ldr	r1, [pc, #84]	; (10000968 <hub75_config+0x404>)
10000912:	611f      	str	r7, [r3, #16]
10000914:	602c      	str	r4, [r5, #0]
10000916:	f001 fa6d 	bl	10001df4 <irq_set_exclusive_handler>
1000091a:	2101      	movs	r1, #1
1000091c:	200b      	movs	r0, #11
1000091e:	f001 fc5f 	bl	100021e0 <irq_set_priority>
10000922:	2101      	movs	r1, #1
10000924:	200b      	movs	r0, #11
10000926:	f001 fa2d 	bl	10001d84 <irq_set_enabled>
1000092a:	22a0      	movs	r2, #160	; 0xa0
1000092c:	05d2      	lsls	r2, r2, #23
1000092e:	4694      	mov	ip, r2
10000930:	4b07      	ldr	r3, [pc, #28]	; (10000950 <hub75_config+0x3ec>)
10000932:	4a0e      	ldr	r2, [pc, #56]	; (1000096c <hub75_config+0x408>)
10000934:	681b      	ldr	r3, [r3, #0]
10000936:	019b      	lsls	r3, r3, #6
10000938:	4463      	add	r3, ip
1000093a:	63da      	str	r2, [r3, #60]	; 0x3c
1000093c:	e03c      	b.n	100009b8 <hub75_config+0x454>
1000093e:	46c0      	nop			; (mov r8, r8)
10000940:	2000038a 	.word	0x2000038a
10000944:	50200000 	.word	0x50200000
10000948:	20005a68 	.word	0x20005a68
1000094c:	20005a6c 	.word	0x20005a6c
10000950:	20005a64 	.word	0x20005a64
10000954:	00000444 	.word	0x00000444
10000958:	5000000c 	.word	0x5000000c
1000095c:	ff1ffffd 	.word	0xff1ffffd
10000960:	001f8018 	.word	0x001f8018
10000964:	200019f8 	.word	0x200019f8
10000968:	100004d5 	.word	0x100004d5
1000096c:	20005a7c 	.word	0x20005a7c
10000970:	200015f8 	.word	0x200015f8
10000974:	200010a0 	.word	0x200010a0
10000978:	200010a4 	.word	0x200010a4
1000097c:	1000b308 	.word	0x1000b308
10000980:	9fffffff 	.word	0x9fffffff
10000984:	fc0fffe0 	.word	0xfc0fffe0
10000988:	00600006 	.word	0x00600006
1000098c:	e3fffc1f 	.word	0xe3fffc1f
10000990:	08000340 	.word	0x08000340
10000994:	1fff83ff 	.word	0x1fff83ff
10000998:	20007000 	.word	0x20007000
1000099c:	40080000 	.word	0x40080000
100009a0:	502000d8 	.word	0x502000d8
100009a4:	1000b2f4 	.word	0x1000b2f4
100009a8:	00500012 	.word	0x00500012
100009ac:	ff007ffd 	.word	0xff007ffd
100009b0:	50200010 	.word	0x50200010
100009b4:	50002404 	.word	0x50002404
100009b8:	4b2a      	ldr	r3, [pc, #168]	; (10000a64 <hub75_config+0x500>)
100009ba:	4a2b      	ldr	r2, [pc, #172]	; (10000a68 <hub75_config+0x504>)
100009bc:	681b      	ldr	r3, [r3, #0]
100009be:	019b      	lsls	r3, r3, #6
100009c0:	4463      	add	r3, ip
100009c2:	63da      	str	r2, [r3, #60]	; 0x3c
100009c4:	b00d      	add	sp, #52	; 0x34
100009c6:	bcf0      	pop	{r4, r5, r6, r7}
100009c8:	46bb      	mov	fp, r7
100009ca:	46b2      	mov	sl, r6
100009cc:	46a9      	mov	r9, r5
100009ce:	46a0      	mov	r8, r4
100009d0:	bdf0      	pop	{r4, r5, r6, r7, pc}
100009d2:	23d0      	movs	r3, #208	; 0xd0
100009d4:	061b      	lsls	r3, r3, #24
100009d6:	681b      	ldr	r3, [r3, #0]
100009d8:	9303      	str	r3, [sp, #12]
100009da:	f005 f837 	bl	10005a4c <xPortGetFreeHeapSize>
100009de:	4681      	mov	r9, r0
100009e0:	2000      	movs	r0, #0
100009e2:	f004 fcdb 	bl	1000539c <uxTaskGetStackHighWaterMark>
100009e6:	464b      	mov	r3, r9
100009e8:	9a03      	ldr	r2, [sp, #12]
100009ea:	4920      	ldr	r1, [pc, #128]	; (10000a6c <hub75_config+0x508>)
100009ec:	9000      	str	r0, [sp, #0]
100009ee:	4820      	ldr	r0, [pc, #128]	; (10000a70 <hub75_config+0x50c>)
100009f0:	f007 feda 	bl	100087a8 <__wrap_printf>
100009f4:	4b1f      	ldr	r3, [pc, #124]	; (10000a74 <hub75_config+0x510>)
100009f6:	0021      	movs	r1, r4
100009f8:	881a      	ldrh	r2, [r3, #0]
100009fa:	4643      	mov	r3, r8
100009fc:	481e      	ldr	r0, [pc, #120]	; (10000a78 <hub75_config+0x514>)
100009fe:	1ad2      	subs	r2, r2, r3
10000a00:	f007 fed2 	bl	100087a8 <__wrap_printf>
10000a04:	4641      	mov	r1, r8
10000a06:	4b1b      	ldr	r3, [pc, #108]	; (10000a74 <hub75_config+0x510>)
10000a08:	881a      	ldrh	r2, [r3, #0]
10000a0a:	1e53      	subs	r3, r2, #1
10000a0c:	1a5b      	subs	r3, r3, r1
10000a0e:	491b      	ldr	r1, [pc, #108]	; (10000a7c <hub75_config+0x518>)
10000a10:	02db      	lsls	r3, r3, #11
10000a12:	468c      	mov	ip, r1
10000a14:	4463      	add	r3, ip
10000a16:	602b      	str	r3, [r5, #0]
10000a18:	e64a      	b.n	100006b0 <hub75_config+0x14c>
10000a1a:	465b      	mov	r3, fp
10000a1c:	2201      	movs	r2, #1
10000a1e:	6819      	ldr	r1, [r3, #0]
10000a20:	6823      	ldr	r3, [r4, #0]
10000a22:	408a      	lsls	r2, r1
10000a24:	4393      	bics	r3, r2
10000a26:	0020      	movs	r0, r4
10000a28:	6023      	str	r3, [r4, #0]
10000a2a:	2200      	movs	r2, #0
10000a2c:	2300      	movs	r3, #0
10000a2e:	f001 f84b 	bl	10001ac8 <pio_sm_init>
10000a32:	465b      	mov	r3, fp
10000a34:	0020      	movs	r0, r4
10000a36:	6819      	ldr	r1, [r3, #0]
10000a38:	f000 ff46 	bl	100018c8 <pio_sm_unclaim>
10000a3c:	e5c2      	b.n	100005c4 <hub75_config+0x60>
10000a3e:	4653      	mov	r3, sl
10000a40:	2201      	movs	r2, #1
10000a42:	6819      	ldr	r1, [r3, #0]
10000a44:	6823      	ldr	r3, [r4, #0]
10000a46:	408a      	lsls	r2, r1
10000a48:	4393      	bics	r3, r2
10000a4a:	0020      	movs	r0, r4
10000a4c:	6023      	str	r3, [r4, #0]
10000a4e:	2200      	movs	r2, #0
10000a50:	2300      	movs	r3, #0
10000a52:	f001 f839 	bl	10001ac8 <pio_sm_init>
10000a56:	4653      	mov	r3, sl
10000a58:	0020      	movs	r0, r4
10000a5a:	6819      	ldr	r1, [r3, #0]
10000a5c:	f000 ff34 	bl	100018c8 <pio_sm_unclaim>
10000a60:	e5a6      	b.n	100005b0 <hub75_config+0x4c>
10000a62:	46c0      	nop			; (mov r8, r8)
10000a64:	200019f8 	.word	0x200019f8
10000a68:	200015f8 	.word	0x200015f8
10000a6c:	20009e84 	.word	0x20009e84
10000a70:	1000b278 	.word	0x1000b278
10000a74:	2000038a 	.word	0x2000038a
10000a78:	1000b2d8 	.word	0x1000b2d8
10000a7c:	20005a7c 	.word	0x20005a7c

10000a80 <hub75_set_masterbrightness>:
10000a80:	3004      	adds	r0, #4
10000a82:	283f      	cmp	r0, #63	; 0x3f
10000a84:	dd00      	ble.n	10000a88 <hub75_set_masterbrightness+0x8>
10000a86:	203f      	movs	r0, #63	; 0x3f
10000a88:	2804      	cmp	r0, #4
10000a8a:	da00      	bge.n	10000a8e <hub75_set_masterbrightness+0xe>
10000a8c:	2004      	movs	r0, #4
10000a8e:	4b01      	ldr	r3, [pc, #4]	; (10000a94 <hub75_set_masterbrightness+0x14>)
10000a90:	8018      	strh	r0, [r3, #0]
10000a92:	4770      	bx	lr
10000a94:	20012db6 	.word	0x20012db6

10000a98 <hub75_set_overlaycolor>:
10000a98:	1e43      	subs	r3, r0, #1
10000a9a:	2b0e      	cmp	r3, #14
10000a9c:	d802      	bhi.n	10000aa4 <hub75_set_overlaycolor+0xc>
10000a9e:	4b02      	ldr	r3, [pc, #8]	; (10000aa8 <hub75_set_overlaycolor+0x10>)
10000aa0:	0080      	lsls	r0, r0, #2
10000aa2:	50c1      	str	r1, [r0, r3]
10000aa4:	4770      	bx	lr
10000aa6:	46c0      	nop			; (mov r8, r8)
10000aa8:	2000aea8 	.word	0x2000aea8

10000aac <hub75_update>:
10000aac:	b5f0      	push	{r4, r5, r6, r7, lr}
10000aae:	4657      	mov	r7, sl
10000ab0:	46de      	mov	lr, fp
10000ab2:	464e      	mov	r6, r9
10000ab4:	4645      	mov	r5, r8
10000ab6:	2208      	movs	r2, #8
10000ab8:	b5e0      	push	{r5, r6, r7, lr}
10000aba:	4bb4      	ldr	r3, [pc, #720]	; (10000d8c <hub75_update+0x2e0>)
10000abc:	b08f      	sub	sp, #60	; 0x3c
10000abe:	881f      	ldrh	r7, [r3, #0]
10000ac0:	900b      	str	r0, [sp, #44]	; 0x2c
10000ac2:	910c      	str	r1, [sp, #48]	; 0x30
10000ac4:	1bd7      	subs	r7, r2, r7
10000ac6:	2f08      	cmp	r7, #8
10000ac8:	d100      	bne.n	10000acc <hub75_update+0x20>
10000aca:	e157      	b.n	10000d7c <hub75_update+0x2d0>
10000acc:	4bb0      	ldr	r3, [pc, #704]	; (10000d90 <hub75_update+0x2e4>)
10000ace:	881a      	ldrh	r2, [r3, #0]
10000ad0:	0003      	movs	r3, r0
10000ad2:	9203      	str	r2, [sp, #12]
10000ad4:	4aaf      	ldr	r2, [pc, #700]	; (10000d94 <hub75_update+0x2e8>)
10000ad6:	9209      	str	r2, [sp, #36]	; 0x24
10000ad8:	4aaf      	ldr	r2, [pc, #700]	; (10000d98 <hub75_update+0x2ec>)
10000ada:	920a      	str	r2, [sp, #40]	; 0x28
10000adc:	2280      	movs	r2, #128	; 0x80
10000ade:	0192      	lsls	r2, r2, #6
10000ae0:	4694      	mov	ip, r2
10000ae2:	4463      	add	r3, ip
10000ae4:	930d      	str	r3, [sp, #52]	; 0x34
10000ae6:	2601      	movs	r6, #1
10000ae8:	9b0a      	ldr	r3, [sp, #40]	; 0x28
10000aea:	40be      	lsls	r6, r7
10000aec:	9304      	str	r3, [sp, #16]
10000aee:	9b0b      	ldr	r3, [sp, #44]	; 0x2c
10000af0:	9307      	str	r3, [sp, #28]
10000af2:	9b0d      	ldr	r3, [sp, #52]	; 0x34
10000af4:	9306      	str	r3, [sp, #24]
10000af6:	9b0c      	ldr	r3, [sp, #48]	; 0x30
10000af8:	9305      	str	r3, [sp, #20]
10000afa:	2300      	movs	r3, #0
10000afc:	9308      	str	r3, [sp, #32]
10000afe:	2280      	movs	r2, #128	; 0x80
10000b00:	0112      	lsls	r2, r2, #4
10000b02:	4694      	mov	ip, r2
10000b04:	9b05      	ldr	r3, [sp, #20]
10000b06:	9d06      	ldr	r5, [sp, #24]
10000b08:	4698      	mov	r8, r3
10000b0a:	4463      	add	r3, ip
10000b0c:	469c      	mov	ip, r3
10000b0e:	9b04      	ldr	r3, [sp, #16]
10000b10:	9c07      	ldr	r4, [sp, #28]
10000b12:	4699      	mov	r9, r3
10000b14:	4663      	mov	r3, ip
10000b16:	9302      	str	r3, [sp, #8]
10000b18:	4643      	mov	r3, r8
10000b1a:	2001      	movs	r0, #1
10000b1c:	46a0      	mov	r8, r4
10000b1e:	46ac      	mov	ip, r5
10000b20:	9301      	str	r3, [sp, #4]
10000b22:	4643      	mov	r3, r8
10000b24:	6819      	ldr	r1, [r3, #0]
10000b26:	4663      	mov	r3, ip
10000b28:	9a01      	ldr	r2, [sp, #4]
10000b2a:	681b      	ldr	r3, [r3, #0]
10000b2c:	7812      	ldrb	r2, [r2, #0]
10000b2e:	2a00      	cmp	r2, #0
10000b30:	d002      	beq.n	10000b38 <hub75_update+0x8c>
10000b32:	499a      	ldr	r1, [pc, #616]	; (10000d9c <hub75_update+0x2f0>)
10000b34:	0092      	lsls	r2, r2, #2
10000b36:	5851      	ldr	r1, [r2, r1]
10000b38:	9a02      	ldr	r2, [sp, #8]
10000b3a:	7812      	ldrb	r2, [r2, #0]
10000b3c:	2a00      	cmp	r2, #0
10000b3e:	d002      	beq.n	10000b46 <hub75_update+0x9a>
10000b40:	4b96      	ldr	r3, [pc, #600]	; (10000d9c <hub75_update+0x2f0>)
10000b42:	0092      	lsls	r2, r2, #2
10000b44:	589b      	ldr	r3, [r3, r2]
10000b46:	001a      	movs	r2, r3
10000b48:	4032      	ands	r2, r6
10000b4a:	40fa      	lsrs	r2, r7
10000b4c:	0092      	lsls	r2, r2, #2
10000b4e:	4692      	mov	sl, r2
10000b50:	0c1a      	lsrs	r2, r3, #16
10000b52:	0a1b      	lsrs	r3, r3, #8
10000b54:	4032      	ands	r2, r6
10000b56:	4033      	ands	r3, r6
10000b58:	4654      	mov	r4, sl
10000b5a:	40fa      	lsrs	r2, r7
10000b5c:	40fb      	lsrs	r3, r7
10000b5e:	4322      	orrs	r2, r4
10000b60:	005b      	lsls	r3, r3, #1
10000b62:	431a      	orrs	r2, r3
10000b64:	000b      	movs	r3, r1
10000b66:	4033      	ands	r3, r6
10000b68:	40fb      	lsrs	r3, r7
10000b6a:	009b      	lsls	r3, r3, #2
10000b6c:	469a      	mov	sl, r3
10000b6e:	0c0b      	lsrs	r3, r1, #16
10000b70:	0a09      	lsrs	r1, r1, #8
10000b72:	4033      	ands	r3, r6
10000b74:	4031      	ands	r1, r6
10000b76:	40fb      	lsrs	r3, r7
10000b78:	4654      	mov	r4, sl
10000b7a:	40f9      	lsrs	r1, r7
10000b7c:	4323      	orrs	r3, r4
10000b7e:	0049      	lsls	r1, r1, #1
10000b80:	430b      	orrs	r3, r1
10000b82:	00d2      	lsls	r2, r2, #3
10000b84:	431a      	orrs	r2, r3
10000b86:	9b03      	ldr	r3, [sp, #12]
10000b88:	4283      	cmp	r3, r0
10000b8a:	d201      	bcs.n	10000b90 <hub75_update+0xe4>
10000b8c:	2380      	movs	r3, #128	; 0x80
10000b8e:	431a      	orrs	r2, r3
10000b90:	4643      	mov	r3, r8
10000b92:	4661      	mov	r1, ip
10000b94:	9c01      	ldr	r4, [sp, #4]
10000b96:	685b      	ldr	r3, [r3, #4]
10000b98:	7864      	ldrb	r4, [r4, #1]
10000b9a:	6849      	ldr	r1, [r1, #4]
10000b9c:	2c00      	cmp	r4, #0
10000b9e:	d002      	beq.n	10000ba6 <hub75_update+0xfa>
10000ba0:	00a3      	lsls	r3, r4, #2
10000ba2:	4c7e      	ldr	r4, [pc, #504]	; (10000d9c <hub75_update+0x2f0>)
10000ba4:	58e3      	ldr	r3, [r4, r3]
10000ba6:	9c02      	ldr	r4, [sp, #8]
10000ba8:	7864      	ldrb	r4, [r4, #1]
10000baa:	2c00      	cmp	r4, #0
10000bac:	d002      	beq.n	10000bb4 <hub75_update+0x108>
10000bae:	00a1      	lsls	r1, r4, #2
10000bb0:	4c7a      	ldr	r4, [pc, #488]	; (10000d9c <hub75_update+0x2f0>)
10000bb2:	5861      	ldr	r1, [r4, r1]
10000bb4:	000c      	movs	r4, r1
10000bb6:	4034      	ands	r4, r6
10000bb8:	40fc      	lsrs	r4, r7
10000bba:	00a4      	lsls	r4, r4, #2
10000bbc:	46a3      	mov	fp, r4
10000bbe:	0c0c      	lsrs	r4, r1, #16
10000bc0:	4034      	ands	r4, r6
10000bc2:	40fc      	lsrs	r4, r7
10000bc4:	46a2      	mov	sl, r4
10000bc6:	0a09      	lsrs	r1, r1, #8
10000bc8:	4031      	ands	r1, r6
10000bca:	4655      	mov	r5, sl
10000bcc:	465c      	mov	r4, fp
10000bce:	40f9      	lsrs	r1, r7
10000bd0:	432c      	orrs	r4, r5
10000bd2:	0049      	lsls	r1, r1, #1
10000bd4:	4321      	orrs	r1, r4
10000bd6:	001c      	movs	r4, r3
10000bd8:	4034      	ands	r4, r6
10000bda:	40fc      	lsrs	r4, r7
10000bdc:	00a4      	lsls	r4, r4, #2
10000bde:	46a3      	mov	fp, r4
10000be0:	0c1c      	lsrs	r4, r3, #16
10000be2:	4034      	ands	r4, r6
10000be4:	40fc      	lsrs	r4, r7
10000be6:	46a2      	mov	sl, r4
10000be8:	0a1b      	lsrs	r3, r3, #8
10000bea:	4033      	ands	r3, r6
10000bec:	465c      	mov	r4, fp
10000bee:	4655      	mov	r5, sl
10000bf0:	40fb      	lsrs	r3, r7
10000bf2:	432c      	orrs	r4, r5
10000bf4:	005b      	lsls	r3, r3, #1
10000bf6:	00c9      	lsls	r1, r1, #3
10000bf8:	4323      	orrs	r3, r4
10000bfa:	430b      	orrs	r3, r1
10000bfc:	021b      	lsls	r3, r3, #8
10000bfe:	4313      	orrs	r3, r2
10000c00:	9903      	ldr	r1, [sp, #12]
10000c02:	1c42      	adds	r2, r0, #1
10000c04:	b292      	uxth	r2, r2
10000c06:	4291      	cmp	r1, r2
10000c08:	d202      	bcs.n	10000c10 <hub75_update+0x164>
10000c0a:	2280      	movs	r2, #128	; 0x80
10000c0c:	0212      	lsls	r2, r2, #8
10000c0e:	4313      	orrs	r3, r2
10000c10:	4642      	mov	r2, r8
10000c12:	6891      	ldr	r1, [r2, #8]
10000c14:	4662      	mov	r2, ip
10000c16:	9c01      	ldr	r4, [sp, #4]
10000c18:	6892      	ldr	r2, [r2, #8]
10000c1a:	78a4      	ldrb	r4, [r4, #2]
10000c1c:	2c00      	cmp	r4, #0
10000c1e:	d002      	beq.n	10000c26 <hub75_update+0x17a>
10000c20:	00a1      	lsls	r1, r4, #2
10000c22:	4c5e      	ldr	r4, [pc, #376]	; (10000d9c <hub75_update+0x2f0>)
10000c24:	5909      	ldr	r1, [r1, r4]
10000c26:	9c02      	ldr	r4, [sp, #8]
10000c28:	78a4      	ldrb	r4, [r4, #2]
10000c2a:	2c00      	cmp	r4, #0
10000c2c:	d002      	beq.n	10000c34 <hub75_update+0x188>
10000c2e:	00a2      	lsls	r2, r4, #2
10000c30:	4c5a      	ldr	r4, [pc, #360]	; (10000d9c <hub75_update+0x2f0>)
10000c32:	58a2      	ldr	r2, [r4, r2]
10000c34:	0014      	movs	r4, r2
10000c36:	4034      	ands	r4, r6
10000c38:	40fc      	lsrs	r4, r7
10000c3a:	00a4      	lsls	r4, r4, #2
10000c3c:	46a3      	mov	fp, r4
10000c3e:	0c14      	lsrs	r4, r2, #16
10000c40:	4034      	ands	r4, r6
10000c42:	40fc      	lsrs	r4, r7
10000c44:	46a2      	mov	sl, r4
10000c46:	0a12      	lsrs	r2, r2, #8
10000c48:	4032      	ands	r2, r6
10000c4a:	4655      	mov	r5, sl
10000c4c:	465c      	mov	r4, fp
10000c4e:	40fa      	lsrs	r2, r7
10000c50:	432c      	orrs	r4, r5
10000c52:	0052      	lsls	r2, r2, #1
10000c54:	4322      	orrs	r2, r4
10000c56:	000c      	movs	r4, r1
10000c58:	4034      	ands	r4, r6
10000c5a:	40fc      	lsrs	r4, r7
10000c5c:	00a4      	lsls	r4, r4, #2
10000c5e:	46a3      	mov	fp, r4
10000c60:	0c0c      	lsrs	r4, r1, #16
10000c62:	4034      	ands	r4, r6
10000c64:	40fc      	lsrs	r4, r7
10000c66:	46a2      	mov	sl, r4
10000c68:	0a09      	lsrs	r1, r1, #8
10000c6a:	4031      	ands	r1, r6
10000c6c:	465c      	mov	r4, fp
10000c6e:	4655      	mov	r5, sl
10000c70:	40f9      	lsrs	r1, r7
10000c72:	432c      	orrs	r4, r5
10000c74:	0049      	lsls	r1, r1, #1
10000c76:	4321      	orrs	r1, r4
10000c78:	00d2      	lsls	r2, r2, #3
10000c7a:	430a      	orrs	r2, r1
10000c7c:	0412      	lsls	r2, r2, #16
10000c7e:	431a      	orrs	r2, r3
10000c80:	9903      	ldr	r1, [sp, #12]
10000c82:	1c83      	adds	r3, r0, #2
10000c84:	b29b      	uxth	r3, r3
10000c86:	4299      	cmp	r1, r3
10000c88:	d202      	bcs.n	10000c90 <hub75_update+0x1e4>
10000c8a:	2380      	movs	r3, #128	; 0x80
10000c8c:	041b      	lsls	r3, r3, #16
10000c8e:	431a      	orrs	r2, r3
10000c90:	4643      	mov	r3, r8
10000c92:	68d9      	ldr	r1, [r3, #12]
10000c94:	4663      	mov	r3, ip
10000c96:	9c01      	ldr	r4, [sp, #4]
10000c98:	68db      	ldr	r3, [r3, #12]
10000c9a:	78e4      	ldrb	r4, [r4, #3]
10000c9c:	2c00      	cmp	r4, #0
10000c9e:	d002      	beq.n	10000ca6 <hub75_update+0x1fa>
10000ca0:	00a1      	lsls	r1, r4, #2
10000ca2:	4c3e      	ldr	r4, [pc, #248]	; (10000d9c <hub75_update+0x2f0>)
10000ca4:	5861      	ldr	r1, [r4, r1]
10000ca6:	9c01      	ldr	r4, [sp, #4]
10000ca8:	3404      	adds	r4, #4
10000caa:	9401      	str	r4, [sp, #4]
10000cac:	9c02      	ldr	r4, [sp, #8]
10000cae:	78e4      	ldrb	r4, [r4, #3]
10000cb0:	2c00      	cmp	r4, #0
10000cb2:	d002      	beq.n	10000cba <hub75_update+0x20e>
10000cb4:	00a3      	lsls	r3, r4, #2
10000cb6:	4c39      	ldr	r4, [pc, #228]	; (10000d9c <hub75_update+0x2f0>)
10000cb8:	58e3      	ldr	r3, [r4, r3]
10000cba:	9c02      	ldr	r4, [sp, #8]
10000cbc:	3404      	adds	r4, #4
10000cbe:	9402      	str	r4, [sp, #8]
10000cc0:	001c      	movs	r4, r3
10000cc2:	4034      	ands	r4, r6
10000cc4:	40fc      	lsrs	r4, r7
10000cc6:	00a4      	lsls	r4, r4, #2
10000cc8:	46a3      	mov	fp, r4
10000cca:	0c1c      	lsrs	r4, r3, #16
10000ccc:	4034      	ands	r4, r6
10000cce:	40fc      	lsrs	r4, r7
10000cd0:	46a2      	mov	sl, r4
10000cd2:	0a1b      	lsrs	r3, r3, #8
10000cd4:	4033      	ands	r3, r6
10000cd6:	4655      	mov	r5, sl
10000cd8:	465c      	mov	r4, fp
10000cda:	40fb      	lsrs	r3, r7
10000cdc:	432c      	orrs	r4, r5
10000cde:	005b      	lsls	r3, r3, #1
10000ce0:	4323      	orrs	r3, r4
10000ce2:	000c      	movs	r4, r1
10000ce4:	4034      	ands	r4, r6
10000ce6:	40fc      	lsrs	r4, r7
10000ce8:	00a4      	lsls	r4, r4, #2
10000cea:	46a3      	mov	fp, r4
10000cec:	0c0c      	lsrs	r4, r1, #16
10000cee:	4034      	ands	r4, r6
10000cf0:	40fc      	lsrs	r4, r7
10000cf2:	46a2      	mov	sl, r4
10000cf4:	0a09      	lsrs	r1, r1, #8
10000cf6:	4031      	ands	r1, r6
10000cf8:	465c      	mov	r4, fp
10000cfa:	4655      	mov	r5, sl
10000cfc:	40f9      	lsrs	r1, r7
10000cfe:	432c      	orrs	r4, r5
10000d00:	0049      	lsls	r1, r1, #1
10000d02:	4321      	orrs	r1, r4
10000d04:	00db      	lsls	r3, r3, #3
10000d06:	430b      	orrs	r3, r1
10000d08:	061b      	lsls	r3, r3, #24
10000d0a:	431a      	orrs	r2, r3
10000d0c:	9903      	ldr	r1, [sp, #12]
10000d0e:	1cc3      	adds	r3, r0, #3
10000d10:	b29b      	uxth	r3, r3
10000d12:	4299      	cmp	r1, r3
10000d14:	d202      	bcs.n	10000d1c <hub75_update+0x270>
10000d16:	2380      	movs	r3, #128	; 0x80
10000d18:	061b      	lsls	r3, r3, #24
10000d1a:	431a      	orrs	r2, r3
10000d1c:	464b      	mov	r3, r9
10000d1e:	c304      	stmia	r3!, {r2}
10000d20:	4699      	mov	r9, r3
10000d22:	2310      	movs	r3, #16
10000d24:	469a      	mov	sl, r3
10000d26:	3004      	adds	r0, #4
10000d28:	b280      	uxth	r0, r0
10000d2a:	44d0      	add	r8, sl
10000d2c:	44d4      	add	ip, sl
10000d2e:	2841      	cmp	r0, #65	; 0x41
10000d30:	d000      	beq.n	10000d34 <hub75_update+0x288>
10000d32:	e6f6      	b.n	10000b22 <hub75_update+0x76>
10000d34:	9b04      	ldr	r3, [sp, #16]
10000d36:	9a08      	ldr	r2, [sp, #32]
10000d38:	3340      	adds	r3, #64	; 0x40
10000d3a:	9909      	ldr	r1, [sp, #36]	; 0x24
10000d3c:	9304      	str	r3, [sp, #16]
10000d3e:	0093      	lsls	r3, r2, #2
10000d40:	50ca      	str	r2, [r1, r3]
10000d42:	1c53      	adds	r3, r2, #1
10000d44:	9a07      	ldr	r2, [sp, #28]
10000d46:	9308      	str	r3, [sp, #32]
10000d48:	3201      	adds	r2, #1
10000d4a:	32ff      	adds	r2, #255	; 0xff
10000d4c:	9207      	str	r2, [sp, #28]
10000d4e:	9a06      	ldr	r2, [sp, #24]
10000d50:	3201      	adds	r2, #1
10000d52:	32ff      	adds	r2, #255	; 0xff
10000d54:	9206      	str	r2, [sp, #24]
10000d56:	9a05      	ldr	r2, [sp, #20]
10000d58:	3240      	adds	r2, #64	; 0x40
10000d5a:	9205      	str	r2, [sp, #20]
10000d5c:	2b20      	cmp	r3, #32
10000d5e:	d000      	beq.n	10000d62 <hub75_update+0x2b6>
10000d60:	e6cd      	b.n	10000afe <hub75_update+0x52>
10000d62:	2280      	movs	r2, #128	; 0x80
10000d64:	000b      	movs	r3, r1
10000d66:	0112      	lsls	r2, r2, #4
10000d68:	4694      	mov	ip, r2
10000d6a:	3380      	adds	r3, #128	; 0x80
10000d6c:	9309      	str	r3, [sp, #36]	; 0x24
10000d6e:	9b0a      	ldr	r3, [sp, #40]	; 0x28
10000d70:	3701      	adds	r7, #1
10000d72:	4463      	add	r3, ip
10000d74:	930a      	str	r3, [sp, #40]	; 0x28
10000d76:	2f08      	cmp	r7, #8
10000d78:	d000      	beq.n	10000d7c <hub75_update+0x2d0>
10000d7a:	e6b4      	b.n	10000ae6 <hub75_update+0x3a>
10000d7c:	2000      	movs	r0, #0
10000d7e:	b00f      	add	sp, #60	; 0x3c
10000d80:	bcf0      	pop	{r4, r5, r6, r7}
10000d82:	46bb      	mov	fp, r7
10000d84:	46b2      	mov	sl, r6
10000d86:	46a9      	mov	r9, r5
10000d88:	46a0      	mov	r8, r4
10000d8a:	bdf0      	pop	{r4, r5, r6, r7, pc}
10000d8c:	2000038a 	.word	0x2000038a
10000d90:	20012db6 	.word	0x20012db6
10000d94:	200015f8 	.word	0x200015f8
10000d98:	20005a7c 	.word	0x20005a7c
10000d9c:	2000aea8 	.word	0x2000aea8

10000da0 <move_paddle>:
10000da0:	b5f0      	push	{r4, r5, r6, r7, lr}
10000da2:	4657      	mov	r7, sl
10000da4:	464e      	mov	r6, r9
10000da6:	4645      	mov	r5, r8
10000da8:	46de      	mov	lr, fp
10000daa:	b5e0      	push	{r5, r6, r7, lr}
10000dac:	4e58      	ldr	r6, [pc, #352]	; (10000f10 <move_paddle+0x170>)
10000dae:	0103      	lsls	r3, r0, #4
10000db0:	b083      	sub	sp, #12
10000db2:	4699      	mov	r9, r3
10000db4:	18f3      	adds	r3, r6, r3
10000db6:	9101      	str	r1, [sp, #4]
10000db8:	6859      	ldr	r1, [r3, #4]
10000dba:	68db      	ldr	r3, [r3, #12]
10000dbc:	4a55      	ldr	r2, [pc, #340]	; (10000f14 <move_paddle+0x174>)
10000dbe:	469c      	mov	ip, r3
10000dc0:	6857      	ldr	r7, [r2, #4]
10000dc2:	68d5      	ldr	r5, [r2, #12]
10000dc4:	0fdb      	lsrs	r3, r3, #31
10000dc6:	1bec      	subs	r4, r5, r7
10000dc8:	0fe2      	lsrs	r2, r4, #31
10000dca:	1912      	adds	r2, r2, r4
10000dcc:	1052      	asrs	r2, r2, #1
10000dce:	19d2      	adds	r2, r2, r7
10000dd0:	9200      	str	r2, [sp, #0]
10000dd2:	4a51      	ldr	r2, [pc, #324]	; (10000f18 <move_paddle+0x178>)
10000dd4:	4463      	add	r3, ip
10000dd6:	6914      	ldr	r4, [r2, #16]
10000dd8:	4690      	mov	r8, r2
10000dda:	6952      	ldr	r2, [r2, #20]
10000ddc:	105b      	asrs	r3, r3, #1
10000dde:	4692      	mov	sl, r2
10000de0:	185b      	adds	r3, r3, r1
10000de2:	4322      	orrs	r2, r4
10000de4:	d01d      	beq.n	10000e22 <move_paddle+0x82>
10000de6:	2800      	cmp	r0, #0
10000de8:	d122      	bne.n	10000e30 <move_paddle+0x90>
10000dea:	2c00      	cmp	r4, #0
10000dec:	db52      	blt.n	10000e94 <move_paddle+0xf4>
10000dee:	2c00      	cmp	r4, #0
10000df0:	d020      	beq.n	10000e34 <move_paddle+0x94>
10000df2:	9a00      	ldr	r2, [sp, #0]
10000df4:	1ed0      	subs	r0, r2, #3
10000df6:	4298      	cmp	r0, r3
10000df8:	dd03      	ble.n	10000e02 <move_paddle+0x62>
10000dfa:	464a      	mov	r2, r9
10000dfc:	3103      	adds	r1, #3
10000dfe:	18b0      	adds	r0, r6, r2
10000e00:	6041      	str	r1, [r0, #4]
10000e02:	9a00      	ldr	r2, [sp, #0]
10000e04:	3203      	adds	r2, #3
10000e06:	429a      	cmp	r2, r3
10000e08:	db2c      	blt.n	10000e64 <move_paddle+0xc4>
10000e0a:	428f      	cmp	r7, r1
10000e0c:	dd03      	ble.n	10000e16 <move_paddle+0x76>
10000e0e:	464b      	mov	r3, r9
10000e10:	0039      	movs	r1, r7
10000e12:	18f3      	adds	r3, r6, r3
10000e14:	605f      	str	r7, [r3, #4]
10000e16:	4663      	mov	r3, ip
10000e18:	1aed      	subs	r5, r5, r3
10000e1a:	428d      	cmp	r5, r1
10000e1c:	da01      	bge.n	10000e22 <move_paddle+0x82>
10000e1e:	444e      	add	r6, r9
10000e20:	6075      	str	r5, [r6, #4]
10000e22:	b003      	add	sp, #12
10000e24:	bcf0      	pop	{r4, r5, r6, r7}
10000e26:	46bb      	mov	fp, r7
10000e28:	46b2      	mov	sl, r6
10000e2a:	46a9      	mov	r9, r5
10000e2c:	46a0      	mov	r8, r4
10000e2e:	bdf0      	pop	{r4, r5, r6, r7, pc}
10000e30:	2c00      	cmp	r4, #0
10000e32:	dddc      	ble.n	10000dee <move_paddle+0x4e>
10000e34:	17e2      	asrs	r2, r4, #31
10000e36:	18a4      	adds	r4, r4, r2
10000e38:	4054      	eors	r4, r2
10000e3a:	4652      	mov	r2, sl
10000e3c:	3401      	adds	r4, #1
10000e3e:	2a00      	cmp	r2, #0
10000e40:	dd15      	ble.n	10000e6e <move_paddle+0xce>
10000e42:	4642      	mov	r2, r8
10000e44:	6852      	ldr	r2, [r2, #4]
10000e46:	1b18      	subs	r0, r3, r4
10000e48:	4282      	cmp	r2, r0
10000e4a:	dd03      	ble.n	10000e54 <move_paddle+0xb4>
10000e4c:	4648      	mov	r0, r9
10000e4e:	1909      	adds	r1, r1, r4
10000e50:	1830      	adds	r0, r6, r0
10000e52:	6041      	str	r1, [r0, #4]
10000e54:	191b      	adds	r3, r3, r4
10000e56:	429a      	cmp	r2, r3
10000e58:	dad7      	bge.n	10000e0a <move_paddle+0x6a>
10000e5a:	464b      	mov	r3, r9
10000e5c:	1b09      	subs	r1, r1, r4
10000e5e:	18f3      	adds	r3, r6, r3
10000e60:	6059      	str	r1, [r3, #4]
10000e62:	e7d2      	b.n	10000e0a <move_paddle+0x6a>
10000e64:	464b      	mov	r3, r9
10000e66:	3903      	subs	r1, #3
10000e68:	18f3      	adds	r3, r6, r3
10000e6a:	6059      	str	r1, [r3, #4]
10000e6c:	e7cd      	b.n	10000e0a <move_paddle+0x6a>
10000e6e:	2a00      	cmp	r2, #0
10000e70:	d02a      	beq.n	10000ec8 <move_paddle+0x128>
10000e72:	4642      	mov	r2, r8
10000e74:	6852      	ldr	r2, [r2, #4]
10000e76:	1918      	adds	r0, r3, r4
10000e78:	4282      	cmp	r2, r0
10000e7a:	da03      	bge.n	10000e84 <move_paddle+0xe4>
10000e7c:	4648      	mov	r0, r9
10000e7e:	1b09      	subs	r1, r1, r4
10000e80:	1830      	adds	r0, r6, r0
10000e82:	6041      	str	r1, [r0, #4]
10000e84:	1b1b      	subs	r3, r3, r4
10000e86:	429a      	cmp	r2, r3
10000e88:	ddbf      	ble.n	10000e0a <move_paddle+0x6a>
10000e8a:	464b      	mov	r3, r9
10000e8c:	1909      	adds	r1, r1, r4
10000e8e:	18f3      	adds	r3, r6, r3
10000e90:	6059      	str	r1, [r3, #4]
10000e92:	e7ba      	b.n	10000e0a <move_paddle+0x6a>
10000e94:	3091      	adds	r0, #145	; 0x91
10000e96:	9a01      	ldr	r2, [sp, #4]
10000e98:	30ff      	adds	r0, #255	; 0xff
10000e9a:	4282      	cmp	r2, r0
10000e9c:	daca      	bge.n	10000e34 <move_paddle+0x94>
10000e9e:	4653      	mov	r3, sl
10000ea0:	2b00      	cmp	r3, #0
10000ea2:	dd07      	ble.n	10000eb4 <move_paddle+0x114>
10000ea4:	4643      	mov	r3, r8
10000ea6:	9a00      	ldr	r2, [sp, #0]
10000ea8:	685b      	ldr	r3, [r3, #4]
10000eaa:	4293      	cmp	r3, r2
10000eac:	dd09      	ble.n	10000ec2 <move_paddle+0x122>
10000eae:	3902      	subs	r1, #2
10000eb0:	6071      	str	r1, [r6, #4]
10000eb2:	e7aa      	b.n	10000e0a <move_paddle+0x6a>
10000eb4:	2b00      	cmp	r3, #0
10000eb6:	d016      	beq.n	10000ee6 <move_paddle+0x146>
10000eb8:	4643      	mov	r3, r8
10000eba:	9a00      	ldr	r2, [sp, #0]
10000ebc:	685b      	ldr	r3, [r3, #4]
10000ebe:	4293      	cmp	r3, r2
10000ec0:	ddf5      	ble.n	10000eae <move_paddle+0x10e>
10000ec2:	3102      	adds	r1, #2
10000ec4:	6071      	str	r1, [r6, #4]
10000ec6:	e7a0      	b.n	10000e0a <move_paddle+0x6a>
10000ec8:	4642      	mov	r2, r8
10000eca:	6852      	ldr	r2, [r2, #4]
10000ecc:	429a      	cmp	r2, r3
10000ece:	dc05      	bgt.n	10000edc <move_paddle+0x13c>
10000ed0:	4648      	mov	r0, r9
10000ed2:	3901      	subs	r1, #1
10000ed4:	1830      	adds	r0, r6, r0
10000ed6:	6041      	str	r1, [r0, #4]
10000ed8:	429a      	cmp	r2, r3
10000eda:	d196      	bne.n	10000e0a <move_paddle+0x6a>
10000edc:	464b      	mov	r3, r9
10000ede:	3101      	adds	r1, #1
10000ee0:	18f3      	adds	r3, r6, r3
10000ee2:	6059      	str	r1, [r3, #4]
10000ee4:	e791      	b.n	10000e0a <move_paddle+0x6a>
10000ee6:	4643      	mov	r3, r8
10000ee8:	9a00      	ldr	r2, [sp, #0]
10000eea:	685b      	ldr	r3, [r3, #4]
10000eec:	4293      	cmp	r3, r2
10000eee:	dd07      	ble.n	10000f00 <move_paddle+0x160>
10000ef0:	4662      	mov	r2, ip
10000ef2:	188a      	adds	r2, r1, r2
10000ef4:	4293      	cmp	r3, r2
10000ef6:	db00      	blt.n	10000efa <move_paddle+0x15a>
10000ef8:	e787      	b.n	10000e0a <move_paddle+0x6a>
10000efa:	3902      	subs	r1, #2
10000efc:	6071      	str	r1, [r6, #4]
10000efe:	e784      	b.n	10000e0a <move_paddle+0x6a>
10000f00:	4642      	mov	r2, r8
10000f02:	68d2      	ldr	r2, [r2, #12]
10000f04:	189b      	adds	r3, r3, r2
10000f06:	4299      	cmp	r1, r3
10000f08:	db00      	blt.n	10000f0c <move_paddle+0x16c>
10000f0a:	e77e      	b.n	10000e0a <move_paddle+0x6a>
10000f0c:	3102      	adds	r1, #2
10000f0e:	e7d9      	b.n	10000ec4 <move_paddle+0x124>
10000f10:	2000aef8 	.word	0x2000aef8
10000f14:	2000aee8 	.word	0x2000aee8
10000f18:	200014b4 	.word	0x200014b4

10000f1c <initPongGame>:
10000f1c:	b570      	push	{r4, r5, r6, lr}
10000f1e:	2332      	movs	r3, #50	; 0x32
10000f20:	260a      	movs	r6, #10
10000f22:	4c3f      	ldr	r4, [pc, #252]	; (10001020 <initPongGame+0x104>)
10000f24:	b082      	sub	sp, #8
10000f26:	60a3      	str	r3, [r4, #8]
10000f28:	60e3      	str	r3, [r4, #12]
10000f2a:	6026      	str	r6, [r4, #0]
10000f2c:	6066      	str	r6, [r4, #4]
10000f2e:	f000 fcaf 	bl	10001890 <LEDmx_ClearOverlay>
10000f32:	2001      	movs	r0, #1
10000f34:	493b      	ldr	r1, [pc, #236]	; (10001024 <initPongGame+0x108>)
10000f36:	f000 fcc3 	bl	100018c0 <LEDmx_SetOverlayColor>
10000f3a:	21ff      	movs	r1, #255	; 0xff
10000f3c:	2501      	movs	r5, #1
10000f3e:	2002      	movs	r0, #2
10000f40:	0409      	lsls	r1, r1, #16
10000f42:	f000 fcbd 	bl	100018c0 <LEDmx_SetOverlayColor>
10000f46:	2003      	movs	r0, #3
10000f48:	4937      	ldr	r1, [pc, #220]	; (10001028 <initPongGame+0x10c>)
10000f4a:	f000 fcb9 	bl	100018c0 <LEDmx_SetOverlayColor>
10000f4e:	6863      	ldr	r3, [r4, #4]
10000f50:	1e59      	subs	r1, r3, #1
10000f52:	68a3      	ldr	r3, [r4, #8]
10000f54:	b209      	sxth	r1, r1
10000f56:	1c5a      	adds	r2, r3, #1
10000f58:	6823      	ldr	r3, [r4, #0]
10000f5a:	b212      	sxth	r2, r2
10000f5c:	1e58      	subs	r0, r3, #1
10000f5e:	b200      	sxth	r0, r0
10000f60:	000b      	movs	r3, r1
10000f62:	9501      	str	r5, [sp, #4]
10000f64:	9500      	str	r5, [sp, #0]
10000f66:	f000 fa77 	bl	10001458 <LEDmx_DrawLine>
10000f6a:	68e3      	ldr	r3, [r4, #12]
10000f6c:	1c59      	adds	r1, r3, #1
10000f6e:	68a3      	ldr	r3, [r4, #8]
10000f70:	b209      	sxth	r1, r1
10000f72:	1c5a      	adds	r2, r3, #1
10000f74:	6823      	ldr	r3, [r4, #0]
10000f76:	b212      	sxth	r2, r2
10000f78:	1e58      	subs	r0, r3, #1
10000f7a:	b200      	sxth	r0, r0
10000f7c:	000b      	movs	r3, r1
10000f7e:	9501      	str	r5, [sp, #4]
10000f80:	9500      	str	r5, [sp, #0]
10000f82:	f000 fa69 	bl	10001458 <LEDmx_DrawLine>
10000f86:	6823      	ldr	r3, [r4, #0]
10000f88:	6862      	ldr	r2, [r4, #4]
10000f8a:	1e58      	subs	r0, r3, #1
10000f8c:	68e3      	ldr	r3, [r4, #12]
10000f8e:	b200      	sxth	r0, r0
10000f90:	1e51      	subs	r1, r2, #1
10000f92:	3301      	adds	r3, #1
10000f94:	0002      	movs	r2, r0
10000f96:	b21b      	sxth	r3, r3
10000f98:	b209      	sxth	r1, r1
10000f9a:	9501      	str	r5, [sp, #4]
10000f9c:	9500      	str	r5, [sp, #0]
10000f9e:	f000 fa5b 	bl	10001458 <LEDmx_DrawLine>
10000fa2:	68a3      	ldr	r3, [r4, #8]
10000fa4:	6862      	ldr	r2, [r4, #4]
10000fa6:	1c58      	adds	r0, r3, #1
10000fa8:	68e3      	ldr	r3, [r4, #12]
10000faa:	b200      	sxth	r0, r0
10000fac:	1e51      	subs	r1, r2, #1
10000fae:	3301      	adds	r3, #1
10000fb0:	0002      	movs	r2, r0
10000fb2:	b21b      	sxth	r3, r3
10000fb4:	b209      	sxth	r1, r1
10000fb6:	9501      	str	r5, [sp, #4]
10000fb8:	9500      	str	r5, [sp, #0]
10000fba:	f000 fa4d 	bl	10001458 <LEDmx_DrawLine>
10000fbe:	6822      	ldr	r2, [r4, #0]
10000fc0:	68a3      	ldr	r3, [r4, #8]
10000fc2:	1a9b      	subs	r3, r3, r2
10000fc4:	0fd8      	lsrs	r0, r3, #31
10000fc6:	18c0      	adds	r0, r0, r3
10000fc8:	1040      	asrs	r0, r0, #1
10000fca:	68e3      	ldr	r3, [r4, #12]
10000fcc:	1880      	adds	r0, r0, r2
10000fce:	6862      	ldr	r2, [r4, #4]
10000fd0:	b200      	sxth	r0, r0
10000fd2:	1e51      	subs	r1, r2, #1
10000fd4:	3301      	adds	r3, #1
10000fd6:	0002      	movs	r2, r0
10000fd8:	b21b      	sxth	r3, r3
10000fda:	b209      	sxth	r1, r1
10000fdc:	9501      	str	r5, [sp, #4]
10000fde:	9500      	str	r5, [sp, #0]
10000fe0:	f000 fa3a 	bl	10001458 <LEDmx_DrawLine>
10000fe4:	68a1      	ldr	r1, [r4, #8]
10000fe6:	4b11      	ldr	r3, [pc, #68]	; (1000102c <initPongGame+0x110>)
10000fe8:	0fca      	lsrs	r2, r1, #31
10000fea:	68e0      	ldr	r0, [r4, #12]
10000fec:	1852      	adds	r2, r2, r1
10000fee:	1052      	asrs	r2, r2, #1
10000ff0:	601a      	str	r2, [r3, #0]
10000ff2:	0fc2      	lsrs	r2, r0, #31
10000ff4:	1812      	adds	r2, r2, r0
10000ff6:	2005      	movs	r0, #5
10000ff8:	1052      	asrs	r2, r2, #1
10000ffa:	6098      	str	r0, [r3, #8]
10000ffc:	60d8      	str	r0, [r3, #12]
10000ffe:	605a      	str	r2, [r3, #4]
10001000:	6820      	ldr	r0, [r4, #0]
10001002:	615d      	str	r5, [r3, #20]
10001004:	611d      	str	r5, [r3, #16]
10001006:	4b0a      	ldr	r3, [pc, #40]	; (10001030 <initPongGame+0x114>)
10001008:	3901      	subs	r1, #1
1000100a:	6018      	str	r0, [r3, #0]
1000100c:	2002      	movs	r0, #2
1000100e:	605a      	str	r2, [r3, #4]
10001010:	6098      	str	r0, [r3, #8]
10001012:	60de      	str	r6, [r3, #12]
10001014:	6119      	str	r1, [r3, #16]
10001016:	615a      	str	r2, [r3, #20]
10001018:	6198      	str	r0, [r3, #24]
1000101a:	61de      	str	r6, [r3, #28]
1000101c:	b002      	add	sp, #8
1000101e:	bd70      	pop	{r4, r5, r6, pc}
10001020:	2000aee8 	.word	0x2000aee8
10001024:	00ff7f00 	.word	0x00ff7f00
10001028:	0050ff50 	.word	0x0050ff50
1000102c:	200014b4 	.word	0x200014b4
10001030:	2000aef8 	.word	0x2000aef8

10001034 <playPongGame>:
10001034:	b5f0      	push	{r4, r5, r6, r7, lr}
10001036:	46de      	mov	lr, fp
10001038:	4657      	mov	r7, sl
1000103a:	464e      	mov	r6, r9
1000103c:	4645      	mov	r5, r8
1000103e:	b5e0      	push	{r5, r6, r7, lr}
10001040:	b087      	sub	sp, #28
10001042:	0007      	movs	r7, r0
10001044:	f000 f9e4 	bl	10001410 <LEDmx_getFlushSemaphore>
10001048:	4daf      	ldr	r5, [pc, #700]	; (10001308 <playPongGame+0x2d4>)
1000104a:	2600      	movs	r6, #0
1000104c:	220c      	movs	r2, #12
1000104e:	5eab      	ldrsh	r3, [r5, r2]
10001050:	2108      	movs	r1, #8
10001052:	5e6a      	ldrsh	r2, [r5, r1]
10001054:	2004      	movs	r0, #4
10001056:	5e29      	ldrsh	r1, [r5, r0]
10001058:	2400      	movs	r4, #0
1000105a:	5f28      	ldrsh	r0, [r5, r4]
1000105c:	2401      	movs	r4, #1
1000105e:	9600      	str	r6, [sp, #0]
10001060:	9401      	str	r4, [sp, #4]
10001062:	f000 fae9 	bl	10001638 <LEDmx_Rect>
10001066:	682a      	ldr	r2, [r5, #0]
10001068:	68ab      	ldr	r3, [r5, #8]
1000106a:	1a9b      	subs	r3, r3, r2
1000106c:	0fd8      	lsrs	r0, r3, #31
1000106e:	18c0      	adds	r0, r0, r3
10001070:	1040      	asrs	r0, r0, #1
10001072:	68eb      	ldr	r3, [r5, #12]
10001074:	1880      	adds	r0, r0, r2
10001076:	686a      	ldr	r2, [r5, #4]
10001078:	b200      	sxth	r0, r0
1000107a:	1e51      	subs	r1, r2, #1
1000107c:	3301      	adds	r3, #1
1000107e:	0002      	movs	r2, r0
10001080:	b21b      	sxth	r3, r3
10001082:	b209      	sxth	r1, r1
10001084:	9401      	str	r4, [sp, #4]
10001086:	9400      	str	r4, [sp, #0]
10001088:	f000 f9e6 	bl	10001458 <LEDmx_DrawLine>
1000108c:	4c9f      	ldr	r4, [pc, #636]	; (1000130c <playPongGame+0x2d8>)
1000108e:	6923      	ldr	r3, [r4, #16]
10001090:	6961      	ldr	r1, [r4, #20]
10001092:	001a      	movs	r2, r3
10001094:	430a      	orrs	r2, r1
10001096:	d100      	bne.n	1000109a <playPongGame+0x66>
10001098:	e116      	b.n	100012c8 <playPongGame+0x294>
1000109a:	6822      	ldr	r2, [r4, #0]
1000109c:	6868      	ldr	r0, [r5, #4]
1000109e:	4694      	mov	ip, r2
100010a0:	6862      	ldr	r2, [r4, #4]
100010a2:	4463      	add	r3, ip
100010a4:	188a      	adds	r2, r1, r2
100010a6:	6023      	str	r3, [r4, #0]
100010a8:	6062      	str	r2, [r4, #4]
100010aa:	4282      	cmp	r2, r0
100010ac:	db37      	blt.n	1000111e <playPongGame+0xea>
100010ae:	68e0      	ldr	r0, [r4, #12]
100010b0:	4682      	mov	sl, r0
100010b2:	4656      	mov	r6, sl
100010b4:	68e8      	ldr	r0, [r5, #12]
100010b6:	1b80      	subs	r0, r0, r6
100010b8:	4282      	cmp	r2, r0
100010ba:	dd01      	ble.n	100010c0 <playPongGame+0x8c>
100010bc:	4249      	negs	r1, r1
100010be:	6161      	str	r1, [r4, #20]
100010c0:	68a1      	ldr	r1, [r4, #8]
100010c2:	46bb      	mov	fp, r7
100010c4:	468c      	mov	ip, r1
100010c6:	4992      	ldr	r1, [pc, #584]	; (10001310 <playPongGame+0x2dc>)
100010c8:	9203      	str	r2, [sp, #12]
100010ca:	000e      	movs	r6, r1
100010cc:	2100      	movs	r1, #0
100010ce:	000f      	movs	r7, r1
100010d0:	9104      	str	r1, [sp, #16]
100010d2:	9605      	str	r6, [sp, #20]
100010d4:	6831      	ldr	r1, [r6, #0]
100010d6:	6870      	ldr	r0, [r6, #4]
100010d8:	4688      	mov	r8, r1
100010da:	68f1      	ldr	r1, [r6, #12]
100010dc:	1841      	adds	r1, r0, r1
100010de:	2f00      	cmp	r7, #0
100010e0:	d020      	beq.n	10001124 <playPongGame+0xf0>
100010e2:	449c      	add	ip, r3
100010e4:	45c4      	cmp	ip, r8
100010e6:	dd59      	ble.n	1000119c <playPongGame+0x168>
100010e8:	9a03      	ldr	r2, [sp, #12]
100010ea:	4291      	cmp	r1, r2
100010ec:	dd56      	ble.n	1000119c <playPongGame+0x168>
100010ee:	4452      	add	r2, sl
100010f0:	4290      	cmp	r0, r2
100010f2:	da53      	bge.n	1000119c <playPongGame+0x168>
100010f4:	2201      	movs	r2, #1
100010f6:	4252      	negs	r2, r2
100010f8:	2302      	movs	r3, #2
100010fa:	4690      	mov	r8, r2
100010fc:	22c8      	movs	r2, #200	; 0xc8
100010fe:	425b      	negs	r3, r3
10001100:	0092      	lsls	r2, r2, #2
10001102:	4593      	cmp	fp, r2
10001104:	db23      	blt.n	1000114e <playPongGame+0x11a>
10001106:	f00a f833 	bl	1000b170 <random>
1000110a:	2301      	movs	r3, #1
1000110c:	0fc2      	lsrs	r2, r0, #31
1000110e:	1880      	adds	r0, r0, r2
10001110:	4003      	ands	r3, r0
10001112:	1a9b      	subs	r3, r3, r2
10001114:	4642      	mov	r2, r8
10001116:	3301      	adds	r3, #1
10001118:	435a      	muls	r2, r3
1000111a:	0013      	movs	r3, r2
1000111c:	e017      	b.n	1000114e <playPongGame+0x11a>
1000111e:	68e0      	ldr	r0, [r4, #12]
10001120:	4682      	mov	sl, r0
10001122:	e7cb      	b.n	100010bc <playPongGame+0x88>
10001124:	68b2      	ldr	r2, [r6, #8]
10001126:	4691      	mov	r9, r2
10001128:	44c8      	add	r8, r9
1000112a:	4598      	cmp	r8, r3
1000112c:	dc00      	bgt.n	10001130 <playPongGame+0xfc>
1000112e:	e0ce      	b.n	100012ce <playPongGame+0x29a>
10001130:	9a03      	ldr	r2, [sp, #12]
10001132:	4291      	cmp	r1, r2
10001134:	dc00      	bgt.n	10001138 <playPongGame+0x104>
10001136:	e0bc      	b.n	100012b2 <playPongGame+0x27e>
10001138:	2101      	movs	r1, #1
1000113a:	4452      	add	r2, sl
1000113c:	4688      	mov	r8, r1
1000113e:	4290      	cmp	r0, r2
10001140:	db00      	blt.n	10001144 <playPongGame+0x110>
10001142:	e0b8      	b.n	100012b6 <playPongGame+0x282>
10001144:	22c8      	movs	r2, #200	; 0xc8
10001146:	2302      	movs	r3, #2
10001148:	0092      	lsls	r2, r2, #2
1000114a:	4593      	cmp	fp, r2
1000114c:	dadb      	bge.n	10001106 <playPongGame+0xd2>
1000114e:	6123      	str	r3, [r4, #16]
10001150:	f00a f80e 	bl	1000b170 <random>
10001154:	2105      	movs	r1, #5
10001156:	f006 fa61 	bl	1000761c <__wrap___aeabi_idiv>
1000115a:	1c7b      	adds	r3, r7, #1
1000115c:	4698      	mov	r8, r3
1000115e:	b2db      	uxtb	r3, r3
10001160:	9304      	str	r3, [sp, #16]
10001162:	23d0      	movs	r3, #208	; 0xd0
10001164:	061b      	lsls	r3, r3, #24
10001166:	681b      	ldr	r3, [r3, #0]
10001168:	3902      	subs	r1, #2
1000116a:	469a      	mov	sl, r3
1000116c:	6161      	str	r1, [r4, #20]
1000116e:	f004 fc6d 	bl	10005a4c <xPortGetFreeHeapSize>
10001172:	4681      	mov	r9, r0
10001174:	2000      	movs	r0, #0
10001176:	f004 f911 	bl	1000539c <uxTaskGetStackHighWaterMark>
1000117a:	464b      	mov	r3, r9
1000117c:	4652      	mov	r2, sl
1000117e:	4965      	ldr	r1, [pc, #404]	; (10001314 <playPongGame+0x2e0>)
10001180:	9000      	str	r0, [sp, #0]
10001182:	4865      	ldr	r0, [pc, #404]	; (10001318 <playPongGame+0x2e4>)
10001184:	f007 fb10 	bl	100087a8 <__wrap_printf>
10001188:	6923      	ldr	r3, [r4, #16]
1000118a:	465a      	mov	r2, fp
1000118c:	0039      	movs	r1, r7
1000118e:	4863      	ldr	r0, [pc, #396]	; (1000131c <playPongGame+0x2e8>)
10001190:	f007 fb0a 	bl	100087a8 <__wrap_printf>
10001194:	6823      	ldr	r3, [r4, #0]
10001196:	2f01      	cmp	r7, #1
10001198:	d000      	beq.n	1000119c <playPongGame+0x168>
1000119a:	e08c      	b.n	100012b6 <playPongGame+0x282>
1000119c:	9a05      	ldr	r2, [sp, #20]
1000119e:	465f      	mov	r7, fp
100011a0:	4693      	mov	fp, r2
100011a2:	9a04      	ldr	r2, [sp, #16]
100011a4:	2a00      	cmp	r2, #0
100011a6:	d109      	bne.n	100011bc <playPongGame+0x188>
100011a8:	465a      	mov	r2, fp
100011aa:	6812      	ldr	r2, [r2, #0]
100011ac:	3201      	adds	r2, #1
100011ae:	429a      	cmp	r2, r3
100011b0:	db04      	blt.n	100011bc <playPongGame+0x188>
100011b2:	22c8      	movs	r2, #200	; 0xc8
100011b4:	0052      	lsls	r2, r2, #1
100011b6:	4297      	cmp	r7, r2
100011b8:	da00      	bge.n	100011bc <playPongGame+0x188>
100011ba:	e08b      	b.n	100012d4 <playPongGame+0x2a0>
100011bc:	682a      	ldr	r2, [r5, #0]
100011be:	429a      	cmp	r2, r3
100011c0:	dd01      	ble.n	100011c6 <playPongGame+0x192>
100011c2:	0013      	movs	r3, r2
100011c4:	6022      	str	r2, [r4, #0]
100011c6:	68aa      	ldr	r2, [r5, #8]
100011c8:	68a1      	ldr	r1, [r4, #8]
100011ca:	1a52      	subs	r2, r2, r1
100011cc:	429a      	cmp	r2, r3
100011ce:	da00      	bge.n	100011d2 <playPongGame+0x19e>
100011d0:	6022      	str	r2, [r4, #0]
100011d2:	6862      	ldr	r2, [r4, #4]
100011d4:	686b      	ldr	r3, [r5, #4]
100011d6:	429a      	cmp	r2, r3
100011d8:	da01      	bge.n	100011de <playPongGame+0x1aa>
100011da:	001a      	movs	r2, r3
100011dc:	6063      	str	r3, [r4, #4]
100011de:	68eb      	ldr	r3, [r5, #12]
100011e0:	68e1      	ldr	r1, [r4, #12]
100011e2:	1a5b      	subs	r3, r3, r1
100011e4:	4293      	cmp	r3, r2
100011e6:	da00      	bge.n	100011ea <playPongGame+0x1b6>
100011e8:	6063      	str	r3, [r4, #4]
100011ea:	0039      	movs	r1, r7
100011ec:	2000      	movs	r0, #0
100011ee:	f7ff fdd7 	bl	10000da0 <move_paddle>
100011f2:	0039      	movs	r1, r7
100011f4:	2001      	movs	r0, #1
100011f6:	f7ff fdd3 	bl	10000da0 <move_paddle>
100011fa:	2320      	movs	r3, #32
100011fc:	4698      	mov	r8, r3
100011fe:	465e      	mov	r6, fp
10001200:	44d8      	add	r8, fp
10001202:	68f3      	ldr	r3, [r6, #12]
10001204:	2b00      	cmp	r3, #0
10001206:	dd13      	ble.n	10001230 <playPongGame+0x1fc>
10001208:	2700      	movs	r7, #0
1000120a:	68b3      	ldr	r3, [r6, #8]
1000120c:	2b00      	cmp	r3, #0
1000120e:	dd0f      	ble.n	10001230 <playPongGame+0x1fc>
10001210:	2500      	movs	r5, #0
10001212:	6873      	ldr	r3, [r6, #4]
10001214:	2202      	movs	r2, #2
10001216:	18f9      	adds	r1, r7, r3
10001218:	6833      	ldr	r3, [r6, #0]
1000121a:	18e8      	adds	r0, r5, r3
1000121c:	f000 fb42 	bl	100018a4 <LEDmx_SetOverlayPixel>
10001220:	68b3      	ldr	r3, [r6, #8]
10001222:	3501      	adds	r5, #1
10001224:	42ab      	cmp	r3, r5
10001226:	dcf4      	bgt.n	10001212 <playPongGame+0x1de>
10001228:	68f2      	ldr	r2, [r6, #12]
1000122a:	3701      	adds	r7, #1
1000122c:	4297      	cmp	r7, r2
1000122e:	dbed      	blt.n	1000120c <playPongGame+0x1d8>
10001230:	3610      	adds	r6, #16
10001232:	4546      	cmp	r6, r8
10001234:	d1e5      	bne.n	10001202 <playPongGame+0x1ce>
10001236:	68e3      	ldr	r3, [r4, #12]
10001238:	2b00      	cmp	r3, #0
1000123a:	dd30      	ble.n	1000129e <playPongGame+0x26a>
1000123c:	2600      	movs	r6, #0
1000123e:	2501      	movs	r5, #1
10001240:	68a2      	ldr	r2, [r4, #8]
10001242:	2e00      	cmp	r6, #0
10001244:	d11f      	bne.n	10001286 <playPongGame+0x252>
10001246:	1e53      	subs	r3, r2, #1
10001248:	429d      	cmp	r5, r3
1000124a:	da0a      	bge.n	10001262 <playPongGame+0x22e>
1000124c:	6823      	ldr	r3, [r4, #0]
1000124e:	2203      	movs	r2, #3
10001250:	18e8      	adds	r0, r5, r3
10001252:	6861      	ldr	r1, [r4, #4]
10001254:	f000 fb26 	bl	100018a4 <LEDmx_SetOverlayPixel>
10001258:	68a2      	ldr	r2, [r4, #8]
1000125a:	3501      	adds	r5, #1
1000125c:	1e53      	subs	r3, r2, #1
1000125e:	42ab      	cmp	r3, r5
10001260:	dcf4      	bgt.n	1000124c <playPongGame+0x218>
10001262:	68e5      	ldr	r5, [r4, #12]
10001264:	3601      	adds	r6, #1
10001266:	42b5      	cmp	r5, r6
10001268:	dd19      	ble.n	1000129e <playPongGame+0x26a>
1000126a:	3d01      	subs	r5, #1
1000126c:	1bad      	subs	r5, r5, r6
1000126e:	426b      	negs	r3, r5
10001270:	415d      	adcs	r5, r3
10001272:	e7e6      	b.n	10001242 <playPongGame+0x20e>
10001274:	6863      	ldr	r3, [r4, #4]
10001276:	2203      	movs	r2, #3
10001278:	18f1      	adds	r1, r6, r3
1000127a:	6823      	ldr	r3, [r4, #0]
1000127c:	18e8      	adds	r0, r5, r3
1000127e:	f000 fb11 	bl	100018a4 <LEDmx_SetOverlayPixel>
10001282:	68a2      	ldr	r2, [r4, #8]
10001284:	3501      	adds	r5, #1
10001286:	68e3      	ldr	r3, [r4, #12]
10001288:	3b01      	subs	r3, #1
1000128a:	1b9b      	subs	r3, r3, r6
1000128c:	4259      	negs	r1, r3
1000128e:	414b      	adcs	r3, r1
10001290:	1ad3      	subs	r3, r2, r3
10001292:	429d      	cmp	r5, r3
10001294:	dbee      	blt.n	10001274 <playPongGame+0x240>
10001296:	68e5      	ldr	r5, [r4, #12]
10001298:	3601      	adds	r6, #1
1000129a:	42b5      	cmp	r5, r6
1000129c:	dce5      	bgt.n	1000126a <playPongGame+0x236>
1000129e:	f000 f8c1 	bl	10001424 <LEDmx_putFlushSemaphore>
100012a2:	2000      	movs	r0, #0
100012a4:	b007      	add	sp, #28
100012a6:	bcf0      	pop	{r4, r5, r6, r7}
100012a8:	46bb      	mov	fp, r7
100012aa:	46b2      	mov	sl, r6
100012ac:	46a9      	mov	r9, r5
100012ae:	46a0      	mov	r8, r4
100012b0:	bdf0      	pop	{r4, r5, r6, r7, pc}
100012b2:	2201      	movs	r2, #1
100012b4:	4690      	mov	r8, r2
100012b6:	6862      	ldr	r2, [r4, #4]
100012b8:	9203      	str	r2, [sp, #12]
100012ba:	68a2      	ldr	r2, [r4, #8]
100012bc:	4694      	mov	ip, r2
100012be:	68e2      	ldr	r2, [r4, #12]
100012c0:	4692      	mov	sl, r2
100012c2:	4647      	mov	r7, r8
100012c4:	3610      	adds	r6, #16
100012c6:	e705      	b.n	100010d4 <playPongGame+0xa0>
100012c8:	4b11      	ldr	r3, [pc, #68]	; (10001310 <playPongGame+0x2dc>)
100012ca:	469b      	mov	fp, r3
100012cc:	e78d      	b.n	100011ea <playPongGame+0x1b6>
100012ce:	2201      	movs	r2, #1
100012d0:	4690      	mov	r8, r2
100012d2:	e7f6      	b.n	100012c2 <playPongGame+0x28e>
100012d4:	9b04      	ldr	r3, [sp, #16]
100012d6:	6123      	str	r3, [r4, #16]
100012d8:	6163      	str	r3, [r4, #20]
100012da:	23d0      	movs	r3, #208	; 0xd0
100012dc:	061b      	lsls	r3, r3, #24
100012de:	681b      	ldr	r3, [r3, #0]
100012e0:	4698      	mov	r8, r3
100012e2:	f004 fbb3 	bl	10005a4c <xPortGetFreeHeapSize>
100012e6:	0006      	movs	r6, r0
100012e8:	2000      	movs	r0, #0
100012ea:	f004 f857 	bl	1000539c <uxTaskGetStackHighWaterMark>
100012ee:	0033      	movs	r3, r6
100012f0:	4642      	mov	r2, r8
100012f2:	4908      	ldr	r1, [pc, #32]	; (10001314 <playPongGame+0x2e0>)
100012f4:	9000      	str	r0, [sp, #0]
100012f6:	4808      	ldr	r0, [pc, #32]	; (10001318 <playPongGame+0x2e4>)
100012f8:	f007 fa56 	bl	100087a8 <__wrap_printf>
100012fc:	0039      	movs	r1, r7
100012fe:	4808      	ldr	r0, [pc, #32]	; (10001320 <playPongGame+0x2ec>)
10001300:	f007 fa52 	bl	100087a8 <__wrap_printf>
10001304:	6823      	ldr	r3, [r4, #0]
10001306:	e759      	b.n	100011bc <playPongGame+0x188>
10001308:	2000aee8 	.word	0x2000aee8
1000130c:	200014b4 	.word	0x200014b4
10001310:	2000aef8 	.word	0x2000aef8
10001314:	20009e84 	.word	0x20009e84
10001318:	1000b278 	.word	0x1000b278
1000131c:	1000b328 	.word	0x1000b328
10001320:	1000b358 	.word	0x1000b358

10001324 <LEDmx_task>:
10001324:	b570      	push	{r4, r5, r6, lr}
10001326:	4c0a      	ldr	r4, [pc, #40]	; (10001350 <LEDmx_task+0x2c>)
10001328:	4e0a      	ldr	r6, [pc, #40]	; (10001354 <LEDmx_task+0x30>)
1000132a:	4d0b      	ldr	r5, [pc, #44]	; (10001358 <LEDmx_task+0x34>)
1000132c:	2164      	movs	r1, #100	; 0x64
1000132e:	6820      	ldr	r0, [r4, #0]
10001330:	f002 feca 	bl	100040c8 <xQueueSemaphoreTake>
10001334:	0031      	movs	r1, r6
10001336:	6828      	ldr	r0, [r5, #0]
10001338:	f7ff fbb8 	bl	10000aac <hub75_update>
1000133c:	2300      	movs	r3, #0
1000133e:	2200      	movs	r2, #0
10001340:	2100      	movs	r1, #0
10001342:	6820      	ldr	r0, [r4, #0]
10001344:	f002 fb08 	bl	10003958 <xQueueGenericSend>
10001348:	2003      	movs	r0, #3
1000134a:	f003 fd71 	bl	10004e30 <vTaskDelay>
1000134e:	e7ed      	b.n	1000132c <LEDmx_task+0x8>
10001350:	20005a78 	.word	0x20005a78
10001354:	20009ea8 	.word	0x20009ea8
10001358:	2000038c 	.word	0x2000038c

1000135c <LEDmx_DrawPixel.part.0>:
1000135c:	b5f0      	push	{r4, r5, r6, r7, lr}
1000135e:	2508      	movs	r5, #8
10001360:	26ff      	movs	r6, #255	; 0xff
10001362:	4b16      	ldr	r3, [pc, #88]	; (100013bc <LEDmx_DrawPixel.part.0+0x60>)
10001364:	0a14      	lsrs	r4, r2, #8
10001366:	881b      	ldrh	r3, [r3, #0]
10001368:	4034      	ands	r4, r6
1000136a:	1aed      	subs	r5, r5, r3
1000136c:	0c13      	lsrs	r3, r2, #16
1000136e:	4033      	ands	r3, r6
10001370:	4016      	ands	r6, r2
10001372:	4a13      	ldr	r2, [pc, #76]	; (100013c0 <LEDmx_DrawPixel.part.0+0x64>)
10001374:	40eb      	lsrs	r3, r5
10001376:	40ec      	lsrs	r4, r5
10001378:	40ee      	lsrs	r6, r5
1000137a:	7815      	ldrb	r5, [r2, #0]
1000137c:	2d00      	cmp	r5, #0
1000137e:	d003      	beq.n	10001388 <LEDmx_DrawPixel.part.0+0x2c>
10001380:	7857      	ldrb	r7, [r2, #1]
10001382:	b2dd      	uxtb	r5, r3
10001384:	42af      	cmp	r7, r5
10001386:	d010      	beq.n	100013aa <LEDmx_DrawPixel.part.0+0x4e>
10001388:	4a0e      	ldr	r2, [pc, #56]	; (100013c4 <LEDmx_DrawPixel.part.0+0x68>)
1000138a:	0189      	lsls	r1, r1, #6
1000138c:	1809      	adds	r1, r1, r0
1000138e:	6810      	ldr	r0, [r2, #0]
10001390:	22ff      	movs	r2, #255	; 0xff
10001392:	041b      	lsls	r3, r3, #16
10001394:	0412      	lsls	r2, r2, #16
10001396:	4013      	ands	r3, r2
10001398:	22ff      	movs	r2, #255	; 0xff
1000139a:	0624      	lsls	r4, r4, #24
1000139c:	0c24      	lsrs	r4, r4, #16
1000139e:	4323      	orrs	r3, r4
100013a0:	4016      	ands	r6, r2
100013a2:	0089      	lsls	r1, r1, #2
100013a4:	4333      	orrs	r3, r6
100013a6:	500b      	str	r3, [r1, r0]
100013a8:	bdf0      	pop	{r4, r5, r6, r7, pc}
100013aa:	7897      	ldrb	r7, [r2, #2]
100013ac:	b2e5      	uxtb	r5, r4
100013ae:	42af      	cmp	r7, r5
100013b0:	d1ea      	bne.n	10001388 <LEDmx_DrawPixel.part.0+0x2c>
100013b2:	78d5      	ldrb	r5, [r2, #3]
100013b4:	b2f2      	uxtb	r2, r6
100013b6:	4295      	cmp	r5, r2
100013b8:	d1e6      	bne.n	10001388 <LEDmx_DrawPixel.part.0+0x2c>
100013ba:	e7f5      	b.n	100013a8 <LEDmx_DrawPixel.part.0+0x4c>
100013bc:	2000038a 	.word	0x2000038a
100013c0:	200014b0 	.word	0x200014b0
100013c4:	2000038c 	.word	0x2000038c

100013c8 <LEDmx_start>:
100013c8:	b500      	push	{lr}
100013ca:	2001      	movs	r0, #1
100013cc:	b085      	sub	sp, #20
100013ce:	f002 fc67 	bl	10003ca0 <xQueueCreateMutex>
100013d2:	4b0c      	ldr	r3, [pc, #48]	; (10001404 <LEDmx_start+0x3c>)
100013d4:	2200      	movs	r2, #0
100013d6:	2100      	movs	r1, #0
100013d8:	6018      	str	r0, [r3, #0]
100013da:	2300      	movs	r3, #0
100013dc:	f002 fabc 	bl	10003958 <xQueueGenericSend>
100013e0:	2008      	movs	r0, #8
100013e2:	f7ff f8bf 	bl	10000564 <hub75_config>
100013e6:	2300      	movs	r3, #0
100013e8:	2280      	movs	r2, #128	; 0x80
100013ea:	a903      	add	r1, sp, #12
100013ec:	9303      	str	r3, [sp, #12]
100013ee:	9101      	str	r1, [sp, #4]
100013f0:	9300      	str	r3, [sp, #0]
100013f2:	4905      	ldr	r1, [pc, #20]	; (10001408 <LEDmx_start+0x40>)
100013f4:	3301      	adds	r3, #1
100013f6:	0092      	lsls	r2, r2, #2
100013f8:	4804      	ldr	r0, [pc, #16]	; (1000140c <LEDmx_start+0x44>)
100013fa:	f003 f9b9 	bl	10004770 <xTaskCreate>
100013fe:	b005      	add	sp, #20
10001400:	bd00      	pop	{pc}
10001402:	46c0      	nop			; (mov r8, r8)
10001404:	20005a78 	.word	0x20005a78
10001408:	1000b378 	.word	0x1000b378
1000140c:	10001325 	.word	0x10001325

10001410 <LEDmx_getFlushSemaphore>:
10001410:	b510      	push	{r4, lr}
10001412:	4b03      	ldr	r3, [pc, #12]	; (10001420 <LEDmx_getFlushSemaphore+0x10>)
10001414:	2164      	movs	r1, #100	; 0x64
10001416:	6818      	ldr	r0, [r3, #0]
10001418:	f002 fe56 	bl	100040c8 <xQueueSemaphoreTake>
1000141c:	bd10      	pop	{r4, pc}
1000141e:	46c0      	nop			; (mov r8, r8)
10001420:	20005a78 	.word	0x20005a78

10001424 <LEDmx_putFlushSemaphore>:
10001424:	b510      	push	{r4, lr}
10001426:	4b04      	ldr	r3, [pc, #16]	; (10001438 <LEDmx_putFlushSemaphore+0x14>)
10001428:	2200      	movs	r2, #0
1000142a:	6818      	ldr	r0, [r3, #0]
1000142c:	2100      	movs	r1, #0
1000142e:	2300      	movs	r3, #0
10001430:	f002 fa92 	bl	10003958 <xQueueGenericSend>
10001434:	bd10      	pop	{r4, pc}
10001436:	46c0      	nop			; (mov r8, r8)
10001438:	20005a78 	.word	0x20005a78

1000143c <LEDmx_SetPixel>:
1000143c:	4b03      	ldr	r3, [pc, #12]	; (1000144c <LEDmx_SetPixel+0x10>)
1000143e:	0189      	lsls	r1, r1, #6
10001440:	681b      	ldr	r3, [r3, #0]
10001442:	1809      	adds	r1, r1, r0
10001444:	0089      	lsls	r1, r1, #2
10001446:	505a      	str	r2, [r3, r1]
10001448:	4770      	bx	lr
1000144a:	46c0      	nop			; (mov r8, r8)
1000144c:	2000038c 	.word	0x2000038c

10001450 <LEDmx_SetMasterBrightness>:
10001450:	b510      	push	{r4, lr}
10001452:	f7ff fb15 	bl	10000a80 <hub75_set_masterbrightness>
10001456:	bd10      	pop	{r4, pc}

10001458 <LEDmx_DrawLine>:
10001458:	b5f0      	push	{r4, r5, r6, r7, lr}
1000145a:	4645      	mov	r5, r8
1000145c:	4657      	mov	r7, sl
1000145e:	464e      	mov	r6, r9
10001460:	46de      	mov	lr, fp
10001462:	b5e0      	push	{r5, r6, r7, lr}
10001464:	0017      	movs	r7, r2
10001466:	b087      	sub	sp, #28
10001468:	1a3d      	subs	r5, r7, r0
1000146a:	17ee      	asrs	r6, r5, #31
1000146c:	aa10      	add	r2, sp, #64	; 0x40
1000146e:	ca10      	ldmia	r2!, {r4}
10001470:	19ad      	adds	r5, r5, r6
10001472:	4075      	eors	r5, r6
10001474:	1a5e      	subs	r6, r3, r1
10001476:	9402      	str	r4, [sp, #8]
10001478:	17f4      	asrs	r4, r6, #31
1000147a:	1936      	adds	r6, r6, r4
1000147c:	4066      	eors	r6, r4
1000147e:	4688      	mov	r8, r1
10001480:	2401      	movs	r4, #1
10001482:	7812      	ldrb	r2, [r2, #0]
10001484:	9004      	str	r0, [sp, #16]
10001486:	4287      	cmp	r7, r0
10001488:	da00      	bge.n	1000148c <LEDmx_DrawLine+0x34>
1000148a:	4264      	negs	r4, r4
1000148c:	46a3      	mov	fp, r4
1000148e:	428b      	cmp	r3, r1
10001490:	db3a      	blt.n	10001508 <LEDmx_DrawLine+0xb0>
10001492:	2301      	movs	r3, #1
10001494:	4699      	mov	r9, r3
10001496:	42b5      	cmp	r5, r6
10001498:	db3b      	blt.n	10001512 <LEDmx_DrawLine+0xba>
1000149a:	0073      	lsls	r3, r6, #1
1000149c:	1b76      	subs	r6, r6, r5
1000149e:	469a      	mov	sl, r3
100014a0:	1b5f      	subs	r7, r3, r5
100014a2:	0073      	lsls	r3, r6, #1
100014a4:	9301      	str	r3, [sp, #4]
100014a6:	2a00      	cmp	r2, #0
100014a8:	d100      	bne.n	100014ac <LEDmx_DrawLine+0x54>
100014aa:	e086      	b.n	100015ba <LEDmx_DrawLine+0x162>
100014ac:	465b      	mov	r3, fp
100014ae:	2b01      	cmp	r3, #1
100014b0:	d000      	beq.n	100014b4 <LEDmx_DrawLine+0x5c>
100014b2:	e0a0      	b.n	100015f6 <LEDmx_DrawLine+0x19e>
100014b4:	495f      	ldr	r1, [pc, #380]	; (10001634 <LEDmx_DrawLine+0x1dc>)
100014b6:	b283      	uxth	r3, r0
100014b8:	468b      	mov	fp, r1
100014ba:	1c5a      	adds	r2, r3, #1
100014bc:	9901      	ldr	r1, [sp, #4]
100014be:	1955      	adds	r5, r2, r5
100014c0:	468c      	mov	ip, r1
100014c2:	3001      	adds	r0, #1
100014c4:	4641      	mov	r1, r8
100014c6:	b2ad      	uxth	r5, r5
100014c8:	e006      	b.n	100014d8 <LEDmx_DrawLine+0x80>
100014ca:	b293      	uxth	r3, r2
100014cc:	4467      	add	r7, ip
100014ce:	4449      	add	r1, r9
100014d0:	3001      	adds	r0, #1
100014d2:	429d      	cmp	r5, r3
100014d4:	d011      	beq.n	100014fa <LEDmx_DrawLine+0xa2>
100014d6:	1c5a      	adds	r2, r3, #1
100014d8:	1e46      	subs	r6, r0, #1
100014da:	2b3f      	cmp	r3, #63	; 0x3f
100014dc:	d806      	bhi.n	100014ec <LEDmx_DrawLine+0x94>
100014de:	b28b      	uxth	r3, r1
100014e0:	2b3f      	cmp	r3, #63	; 0x3f
100014e2:	d803      	bhi.n	100014ec <LEDmx_DrawLine+0x94>
100014e4:	9c02      	ldr	r4, [sp, #8]
100014e6:	018b      	lsls	r3, r1, #6
100014e8:	445b      	add	r3, fp
100014ea:	559c      	strb	r4, [r3, r6]
100014ec:	2f00      	cmp	r7, #0
100014ee:	daec      	bge.n	100014ca <LEDmx_DrawLine+0x72>
100014f0:	b293      	uxth	r3, r2
100014f2:	4457      	add	r7, sl
100014f4:	3001      	adds	r0, #1
100014f6:	429d      	cmp	r5, r3
100014f8:	d1ed      	bne.n	100014d6 <LEDmx_DrawLine+0x7e>
100014fa:	b007      	add	sp, #28
100014fc:	bcf0      	pop	{r4, r5, r6, r7}
100014fe:	46bb      	mov	fp, r7
10001500:	46b2      	mov	sl, r6
10001502:	46a9      	mov	r9, r5
10001504:	46a0      	mov	r8, r4
10001506:	bdf0      	pop	{r4, r5, r6, r7, pc}
10001508:	2301      	movs	r3, #1
1000150a:	425b      	negs	r3, r3
1000150c:	4699      	mov	r9, r3
1000150e:	42b5      	cmp	r5, r6
10001510:	dac3      	bge.n	1000149a <LEDmx_DrawLine+0x42>
10001512:	006b      	lsls	r3, r5, #1
10001514:	1bad      	subs	r5, r5, r6
10001516:	469a      	mov	sl, r3
10001518:	1b9f      	subs	r7, r3, r6
1000151a:	006b      	lsls	r3, r5, #1
1000151c:	9301      	str	r3, [sp, #4]
1000151e:	2a00      	cmp	r2, #0
10001520:	d11d      	bne.n	1000155e <LEDmx_DrawLine+0x106>
10001522:	0033      	movs	r3, r6
10001524:	4644      	mov	r4, r8
10001526:	2500      	movs	r5, #0
10001528:	4698      	mov	r8, r3
1000152a:	9e04      	ldr	r6, [sp, #16]
1000152c:	e007      	b.n	1000153e <LEDmx_DrawLine+0xe6>
1000152e:	9b01      	ldr	r3, [sp, #4]
10001530:	445e      	add	r6, fp
10001532:	469c      	mov	ip, r3
10001534:	444c      	add	r4, r9
10001536:	4467      	add	r7, ip
10001538:	3501      	adds	r5, #1
1000153a:	45a8      	cmp	r8, r5
1000153c:	dbdd      	blt.n	100014fa <LEDmx_DrawLine+0xa2>
1000153e:	b2b3      	uxth	r3, r6
10001540:	2b3f      	cmp	r3, #63	; 0x3f
10001542:	d807      	bhi.n	10001554 <LEDmx_DrawLine+0xfc>
10001544:	b2a3      	uxth	r3, r4
10001546:	2b3f      	cmp	r3, #63	; 0x3f
10001548:	d804      	bhi.n	10001554 <LEDmx_DrawLine+0xfc>
1000154a:	9a02      	ldr	r2, [sp, #8]
1000154c:	b221      	sxth	r1, r4
1000154e:	b230      	sxth	r0, r6
10001550:	f7ff ff04 	bl	1000135c <LEDmx_DrawPixel.part.0>
10001554:	2f00      	cmp	r7, #0
10001556:	daea      	bge.n	1000152e <LEDmx_DrawLine+0xd6>
10001558:	4457      	add	r7, sl
1000155a:	444c      	add	r4, r9
1000155c:	e7ec      	b.n	10001538 <LEDmx_DrawLine+0xe0>
1000155e:	464a      	mov	r2, r9
10001560:	4252      	negs	r2, r2
10001562:	464b      	mov	r3, r9
10001564:	4694      	mov	ip, r2
10001566:	4a33      	ldr	r2, [pc, #204]	; (10001634 <LEDmx_DrawLine+0x1dc>)
10001568:	0198      	lsls	r0, r3, #6
1000156a:	9205      	str	r2, [sp, #20]
1000156c:	464a      	mov	r2, r9
1000156e:	4240      	negs	r0, r0
10001570:	4449      	add	r1, r9
10001572:	2300      	movs	r3, #0
10001574:	4681      	mov	r9, r0
10001576:	9c04      	ldr	r4, [sp, #16]
10001578:	3601      	adds	r6, #1
1000157a:	9203      	str	r2, [sp, #12]
1000157c:	e009      	b.n	10001592 <LEDmx_DrawLine+0x13a>
1000157e:	9a01      	ldr	r2, [sp, #4]
10001580:	445c      	add	r4, fp
10001582:	4690      	mov	r8, r2
10001584:	4447      	add	r7, r8
10001586:	9a03      	ldr	r2, [sp, #12]
10001588:	3301      	adds	r3, #1
1000158a:	4690      	mov	r8, r2
1000158c:	4441      	add	r1, r8
1000158e:	42b3      	cmp	r3, r6
10001590:	d0b3      	beq.n	100014fa <LEDmx_DrawLine+0xa2>
10001592:	b2a2      	uxth	r2, r4
10001594:	2a3f      	cmp	r2, #63	; 0x3f
10001596:	d80c      	bhi.n	100015b2 <LEDmx_DrawLine+0x15a>
10001598:	4662      	mov	r2, ip
1000159a:	1852      	adds	r2, r2, r1
1000159c:	b292      	uxth	r2, r2
1000159e:	2a3f      	cmp	r2, #63	; 0x3f
100015a0:	d807      	bhi.n	100015b2 <LEDmx_DrawLine+0x15a>
100015a2:	9805      	ldr	r0, [sp, #20]
100015a4:	018a      	lsls	r2, r1, #6
100015a6:	4680      	mov	r8, r0
100015a8:	4648      	mov	r0, r9
100015aa:	9d02      	ldr	r5, [sp, #8]
100015ac:	4442      	add	r2, r8
100015ae:	1912      	adds	r2, r2, r4
100015b0:	5415      	strb	r5, [r2, r0]
100015b2:	2f00      	cmp	r7, #0
100015b4:	dae3      	bge.n	1000157e <LEDmx_DrawLine+0x126>
100015b6:	4457      	add	r7, sl
100015b8:	e7e5      	b.n	10001586 <LEDmx_DrawLine+0x12e>
100015ba:	002b      	movs	r3, r5
100015bc:	2600      	movs	r6, #0
100015be:	4645      	mov	r5, r8
100015c0:	9c04      	ldr	r4, [sp, #16]
100015c2:	4698      	mov	r8, r3
100015c4:	e007      	b.n	100015d6 <LEDmx_DrawLine+0x17e>
100015c6:	9b01      	ldr	r3, [sp, #4]
100015c8:	445c      	add	r4, fp
100015ca:	469c      	mov	ip, r3
100015cc:	444d      	add	r5, r9
100015ce:	4467      	add	r7, ip
100015d0:	3601      	adds	r6, #1
100015d2:	45b0      	cmp	r8, r6
100015d4:	db91      	blt.n	100014fa <LEDmx_DrawLine+0xa2>
100015d6:	b2a3      	uxth	r3, r4
100015d8:	2b3f      	cmp	r3, #63	; 0x3f
100015da:	d807      	bhi.n	100015ec <LEDmx_DrawLine+0x194>
100015dc:	b2ab      	uxth	r3, r5
100015de:	2b3f      	cmp	r3, #63	; 0x3f
100015e0:	d804      	bhi.n	100015ec <LEDmx_DrawLine+0x194>
100015e2:	9a02      	ldr	r2, [sp, #8]
100015e4:	b229      	sxth	r1, r5
100015e6:	b220      	sxth	r0, r4
100015e8:	f7ff feb8 	bl	1000135c <LEDmx_DrawPixel.part.0>
100015ec:	2f00      	cmp	r7, #0
100015ee:	daea      	bge.n	100015c6 <LEDmx_DrawLine+0x16e>
100015f0:	4457      	add	r7, sl
100015f2:	445c      	add	r4, fp
100015f4:	e7ec      	b.n	100015d0 <LEDmx_DrawLine+0x178>
100015f6:	9a01      	ldr	r2, [sp, #4]
100015f8:	2300      	movs	r3, #0
100015fa:	4694      	mov	ip, r2
100015fc:	4644      	mov	r4, r8
100015fe:	465e      	mov	r6, fp
10001600:	3501      	adds	r5, #1
10001602:	e006      	b.n	10001612 <LEDmx_DrawLine+0x1ba>
10001604:	4467      	add	r7, ip
10001606:	444c      	add	r4, r9
10001608:	3301      	adds	r3, #1
1000160a:	1980      	adds	r0, r0, r6
1000160c:	42ab      	cmp	r3, r5
1000160e:	d100      	bne.n	10001612 <LEDmx_DrawLine+0x1ba>
10001610:	e773      	b.n	100014fa <LEDmx_DrawLine+0xa2>
10001612:	b282      	uxth	r2, r0
10001614:	2a3f      	cmp	r2, #63	; 0x3f
10001616:	d808      	bhi.n	1000162a <LEDmx_DrawLine+0x1d2>
10001618:	b2a2      	uxth	r2, r4
1000161a:	2a3f      	cmp	r2, #63	; 0x3f
1000161c:	d805      	bhi.n	1000162a <LEDmx_DrawLine+0x1d2>
1000161e:	4905      	ldr	r1, [pc, #20]	; (10001634 <LEDmx_DrawLine+0x1dc>)
10001620:	01a2      	lsls	r2, r4, #6
10001622:	4688      	mov	r8, r1
10001624:	9902      	ldr	r1, [sp, #8]
10001626:	4442      	add	r2, r8
10001628:	5411      	strb	r1, [r2, r0]
1000162a:	2f00      	cmp	r7, #0
1000162c:	daea      	bge.n	10001604 <LEDmx_DrawLine+0x1ac>
1000162e:	4457      	add	r7, sl
10001630:	e7ea      	b.n	10001608 <LEDmx_DrawLine+0x1b0>
10001632:	46c0      	nop			; (mov r8, r8)
10001634:	20009ea8 	.word	0x20009ea8

10001638 <LEDmx_Rect>:
10001638:	b5f0      	push	{r4, r5, r6, r7, lr}
1000163a:	464e      	mov	r6, r9
1000163c:	4645      	mov	r5, r8
1000163e:	46de      	mov	lr, fp
10001640:	4657      	mov	r7, sl
10001642:	b5e0      	push	{r5, r6, r7, lr}
10001644:	b08d      	sub	sp, #52	; 0x34
10001646:	001d      	movs	r5, r3
10001648:	ab16      	add	r3, sp, #88	; 0x58
1000164a:	cb40      	ldmia	r3!, {r6}
1000164c:	0004      	movs	r4, r0
1000164e:	781b      	ldrb	r3, [r3, #0]
10001650:	9601      	str	r6, [sp, #4]
10001652:	9300      	str	r3, [sp, #0]
10001654:	42a9      	cmp	r1, r5
10001656:	d864      	bhi.n	10001722 <LEDmx_Rect+0xea>
10001658:	2008      	movs	r0, #8
1000165a:	4b77      	ldr	r3, [pc, #476]	; (10001838 <LEDmx_Rect+0x200>)
1000165c:	881b      	ldrh	r3, [r3, #0]
1000165e:	1ac3      	subs	r3, r0, r3
10001660:	4698      	mov	r8, r3
10001662:	23ff      	movs	r3, #255	; 0xff
10001664:	0c30      	lsrs	r0, r6, #16
10001666:	469c      	mov	ip, r3
10001668:	4018      	ands	r0, r3
1000166a:	4643      	mov	r3, r8
1000166c:	40d8      	lsrs	r0, r3
1000166e:	4667      	mov	r7, ip
10001670:	b2c3      	uxtb	r3, r0
10001672:	9307      	str	r3, [sp, #28]
10001674:	0a33      	lsrs	r3, r6, #8
10001676:	403b      	ands	r3, r7
10001678:	4647      	mov	r7, r8
1000167a:	40fb      	lsrs	r3, r7
1000167c:	b2df      	uxtb	r7, r3
1000167e:	9704      	str	r7, [sp, #16]
10001680:	4667      	mov	r7, ip
10001682:	403e      	ands	r6, r7
10001684:	4647      	mov	r7, r8
10001686:	40fe      	lsrs	r6, r7
10001688:	46b2      	mov	sl, r6
1000168a:	b2f6      	uxtb	r6, r6
1000168c:	46b1      	mov	r9, r6
1000168e:	4e6b      	ldr	r6, [pc, #428]	; (1000183c <LEDmx_Rect+0x204>)
10001690:	0400      	lsls	r0, r0, #16
10001692:	46b0      	mov	r8, r6
10001694:	7836      	ldrb	r6, [r6, #0]
10001696:	061b      	lsls	r3, r3, #24
10001698:	9609      	str	r6, [sp, #36]	; 0x24
1000169a:	4646      	mov	r6, r8
1000169c:	7876      	ldrb	r6, [r6, #1]
1000169e:	0c1b      	lsrs	r3, r3, #16
100016a0:	9608      	str	r6, [sp, #32]
100016a2:	4646      	mov	r6, r8
100016a4:	78b6      	ldrb	r6, [r6, #2]
100016a6:	9605      	str	r6, [sp, #20]
100016a8:	4646      	mov	r6, r8
100016aa:	78f6      	ldrb	r6, [r6, #3]
100016ac:	46a8      	mov	r8, r5
100016ae:	46b3      	mov	fp, r6
100016b0:	26ff      	movs	r6, #255	; 0xff
100016b2:	0436      	lsls	r6, r6, #16
100016b4:	4030      	ands	r0, r6
100016b6:	4318      	orrs	r0, r3
100016b8:	4656      	mov	r6, sl
100016ba:	4663      	mov	r3, ip
100016bc:	4033      	ands	r3, r6
100016be:	4318      	orrs	r0, r3
100016c0:	4b5f      	ldr	r3, [pc, #380]	; (10001840 <LEDmx_Rect+0x208>)
100016c2:	9002      	str	r0, [sp, #8]
100016c4:	681b      	ldr	r3, [r3, #0]
100016c6:	b2a0      	uxth	r0, r4
100016c8:	9303      	str	r3, [sp, #12]
100016ca:	9006      	str	r0, [sp, #24]
100016cc:	b28b      	uxth	r3, r1
100016ce:	4294      	cmp	r4, r2
100016d0:	d822      	bhi.n	10001718 <LEDmx_Rect+0xe0>
100016d2:	9d00      	ldr	r5, [sp, #0]
100016d4:	b218      	sxth	r0, r3
100016d6:	0180      	lsls	r0, r0, #6
100016d8:	018f      	lsls	r7, r1, #6
100016da:	2d00      	cmp	r5, #0
100016dc:	d128      	bne.n	10001730 <LEDmx_Rect+0xf8>
100016de:	45d9      	cmp	r9, fp
100016e0:	d041      	beq.n	10001766 <LEDmx_Rect+0x12e>
100016e2:	b28f      	uxth	r7, r1
100016e4:	2f3f      	cmp	r7, #63	; 0x3f
100016e6:	d839      	bhi.n	1000175c <LEDmx_Rect+0x124>
100016e8:	9d04      	ldr	r5, [sp, #16]
100016ea:	9e05      	ldr	r6, [sp, #20]
100016ec:	9f06      	ldr	r7, [sp, #24]
100016ee:	42b5      	cmp	r5, r6
100016f0:	d053      	beq.n	1000179a <LEDmx_Rect+0x162>
100016f2:	0026      	movs	r6, r4
100016f4:	468c      	mov	ip, r1
100016f6:	469a      	mov	sl, r3
100016f8:	b2b5      	uxth	r5, r6
100016fa:	2d3f      	cmp	r5, #63	; 0x3f
100016fc:	d805      	bhi.n	1000170a <LEDmx_Rect+0xd2>
100016fe:	b23d      	sxth	r5, r7
10001700:	9b03      	ldr	r3, [sp, #12]
10001702:	9902      	ldr	r1, [sp, #8]
10001704:	182d      	adds	r5, r5, r0
10001706:	00ad      	lsls	r5, r5, #2
10001708:	50e9      	str	r1, [r5, r3]
1000170a:	3701      	adds	r7, #1
1000170c:	3601      	adds	r6, #1
1000170e:	b2bf      	uxth	r7, r7
10001710:	42b2      	cmp	r2, r6
10001712:	d2f1      	bcs.n	100016f8 <LEDmx_Rect+0xc0>
10001714:	4661      	mov	r1, ip
10001716:	4653      	mov	r3, sl
10001718:	3301      	adds	r3, #1
1000171a:	3101      	adds	r1, #1
1000171c:	b29b      	uxth	r3, r3
1000171e:	4541      	cmp	r1, r8
10001720:	d9d5      	bls.n	100016ce <LEDmx_Rect+0x96>
10001722:	b00d      	add	sp, #52	; 0x34
10001724:	bcf0      	pop	{r4, r5, r6, r7}
10001726:	46bb      	mov	fp, r7
10001728:	46b2      	mov	sl, r6
1000172a:	46a9      	mov	r9, r5
1000172c:	46a0      	mov	r8, r4
1000172e:	bdf0      	pop	{r4, r5, r6, r7, pc}
10001730:	b288      	uxth	r0, r1
10001732:	283f      	cmp	r0, #63	; 0x3f
10001734:	d80d      	bhi.n	10001752 <LEDmx_Rect+0x11a>
10001736:	4843      	ldr	r0, [pc, #268]	; (10001844 <LEDmx_Rect+0x20c>)
10001738:	4684      	mov	ip, r0
1000173a:	44bc      	add	ip, r7
1000173c:	0020      	movs	r0, r4
1000173e:	4666      	mov	r6, ip
10001740:	b285      	uxth	r5, r0
10001742:	2d3f      	cmp	r5, #63	; 0x3f
10001744:	d801      	bhi.n	1000174a <LEDmx_Rect+0x112>
10001746:	9d01      	ldr	r5, [sp, #4]
10001748:	5435      	strb	r5, [r6, r0]
1000174a:	3001      	adds	r0, #1
1000174c:	4282      	cmp	r2, r0
1000174e:	d2f7      	bcs.n	10001740 <LEDmx_Rect+0x108>
10001750:	e7e2      	b.n	10001718 <LEDmx_Rect+0xe0>
10001752:	0020      	movs	r0, r4
10001754:	3001      	adds	r0, #1
10001756:	4290      	cmp	r0, r2
10001758:	d9fc      	bls.n	10001754 <LEDmx_Rect+0x11c>
1000175a:	e7dd      	b.n	10001718 <LEDmx_Rect+0xe0>
1000175c:	0020      	movs	r0, r4
1000175e:	3001      	adds	r0, #1
10001760:	4282      	cmp	r2, r0
10001762:	d2fc      	bcs.n	1000175e <LEDmx_Rect+0x126>
10001764:	e7d8      	b.n	10001718 <LEDmx_Rect+0xe0>
10001766:	9d04      	ldr	r5, [sp, #16]
10001768:	9e05      	ldr	r6, [sp, #20]
1000176a:	42b5      	cmp	r5, r6
1000176c:	d027      	beq.n	100017be <LEDmx_Rect+0x186>
1000176e:	b28f      	uxth	r7, r1
10001770:	2f3f      	cmp	r7, #63	; 0x3f
10001772:	d85c      	bhi.n	1000182e <LEDmx_Rect+0x1f6>
10001774:	0026      	movs	r6, r4
10001776:	468c      	mov	ip, r1
10001778:	469a      	mov	sl, r3
1000177a:	9f06      	ldr	r7, [sp, #24]
1000177c:	b2b5      	uxth	r5, r6
1000177e:	2d3f      	cmp	r5, #63	; 0x3f
10001780:	d805      	bhi.n	1000178e <LEDmx_Rect+0x156>
10001782:	b23d      	sxth	r5, r7
10001784:	9b03      	ldr	r3, [sp, #12]
10001786:	9902      	ldr	r1, [sp, #8]
10001788:	182d      	adds	r5, r5, r0
1000178a:	00ad      	lsls	r5, r5, #2
1000178c:	50e9      	str	r1, [r5, r3]
1000178e:	3701      	adds	r7, #1
10001790:	3601      	adds	r6, #1
10001792:	b2bf      	uxth	r7, r7
10001794:	42b2      	cmp	r2, r6
10001796:	d2f1      	bcs.n	1000177c <LEDmx_Rect+0x144>
10001798:	e7bc      	b.n	10001714 <LEDmx_Rect+0xdc>
1000179a:	0026      	movs	r6, r4
1000179c:	468c      	mov	ip, r1
1000179e:	469a      	mov	sl, r3
100017a0:	b2b5      	uxth	r5, r6
100017a2:	2d3f      	cmp	r5, #63	; 0x3f
100017a4:	d805      	bhi.n	100017b2 <LEDmx_Rect+0x17a>
100017a6:	b23d      	sxth	r5, r7
100017a8:	9b03      	ldr	r3, [sp, #12]
100017aa:	9902      	ldr	r1, [sp, #8]
100017ac:	182d      	adds	r5, r5, r0
100017ae:	00ad      	lsls	r5, r5, #2
100017b0:	50e9      	str	r1, [r5, r3]
100017b2:	3701      	adds	r7, #1
100017b4:	3601      	adds	r6, #1
100017b6:	b2bf      	uxth	r7, r7
100017b8:	42b2      	cmp	r2, r6
100017ba:	d2f1      	bcs.n	100017a0 <LEDmx_Rect+0x168>
100017bc:	e7aa      	b.n	10001714 <LEDmx_Rect+0xdc>
100017be:	9d07      	ldr	r5, [sp, #28]
100017c0:	9e08      	ldr	r6, [sp, #32]
100017c2:	9f06      	ldr	r7, [sp, #24]
100017c4:	42b5      	cmp	r5, r6
100017c6:	d018      	beq.n	100017fa <LEDmx_Rect+0x1c2>
100017c8:	b28d      	uxth	r5, r1
100017ca:	46aa      	mov	sl, r5
100017cc:	0025      	movs	r5, r4
100017ce:	910a      	str	r1, [sp, #40]	; 0x28
100017d0:	930b      	str	r3, [sp, #44]	; 0x2c
100017d2:	b2ae      	uxth	r6, r5
100017d4:	2e3f      	cmp	r6, #63	; 0x3f
100017d6:	d808      	bhi.n	100017ea <LEDmx_Rect+0x1b2>
100017d8:	4656      	mov	r6, sl
100017da:	2e3f      	cmp	r6, #63	; 0x3f
100017dc:	d805      	bhi.n	100017ea <LEDmx_Rect+0x1b2>
100017de:	b23e      	sxth	r6, r7
100017e0:	9b03      	ldr	r3, [sp, #12]
100017e2:	9902      	ldr	r1, [sp, #8]
100017e4:	1836      	adds	r6, r6, r0
100017e6:	00b6      	lsls	r6, r6, #2
100017e8:	50f1      	str	r1, [r6, r3]
100017ea:	3701      	adds	r7, #1
100017ec:	3501      	adds	r5, #1
100017ee:	b2bf      	uxth	r7, r7
100017f0:	42aa      	cmp	r2, r5
100017f2:	d2ee      	bcs.n	100017d2 <LEDmx_Rect+0x19a>
100017f4:	990a      	ldr	r1, [sp, #40]	; 0x28
100017f6:	9b0b      	ldr	r3, [sp, #44]	; 0x2c
100017f8:	e78e      	b.n	10001718 <LEDmx_Rect+0xe0>
100017fa:	b28d      	uxth	r5, r1
100017fc:	46aa      	mov	sl, r5
100017fe:	0025      	movs	r5, r4
10001800:	910a      	str	r1, [sp, #40]	; 0x28
10001802:	930b      	str	r3, [sp, #44]	; 0x2c
10001804:	b2ae      	uxth	r6, r5
10001806:	2e3f      	cmp	r6, #63	; 0x3f
10001808:	d80b      	bhi.n	10001822 <LEDmx_Rect+0x1ea>
1000180a:	4656      	mov	r6, sl
1000180c:	2e3f      	cmp	r6, #63	; 0x3f
1000180e:	d808      	bhi.n	10001822 <LEDmx_Rect+0x1ea>
10001810:	9e09      	ldr	r6, [sp, #36]	; 0x24
10001812:	2e00      	cmp	r6, #0
10001814:	d105      	bne.n	10001822 <LEDmx_Rect+0x1ea>
10001816:	b23e      	sxth	r6, r7
10001818:	9b03      	ldr	r3, [sp, #12]
1000181a:	9902      	ldr	r1, [sp, #8]
1000181c:	1836      	adds	r6, r6, r0
1000181e:	00b6      	lsls	r6, r6, #2
10001820:	50f1      	str	r1, [r6, r3]
10001822:	3701      	adds	r7, #1
10001824:	3501      	adds	r5, #1
10001826:	b2bf      	uxth	r7, r7
10001828:	42aa      	cmp	r2, r5
1000182a:	d2eb      	bcs.n	10001804 <LEDmx_Rect+0x1cc>
1000182c:	e7e2      	b.n	100017f4 <LEDmx_Rect+0x1bc>
1000182e:	0020      	movs	r0, r4
10001830:	3001      	adds	r0, #1
10001832:	4282      	cmp	r2, r0
10001834:	d2fc      	bcs.n	10001830 <LEDmx_Rect+0x1f8>
10001836:	e76f      	b.n	10001718 <LEDmx_Rect+0xe0>
10001838:	2000038a 	.word	0x2000038a
1000183c:	200014b0 	.word	0x200014b0
10001840:	2000038c 	.word	0x2000038c
10001844:	20009ea8 	.word	0x20009ea8

10001848 <LEDmx_ClearScreen>:
10001848:	4b10      	ldr	r3, [pc, #64]	; (1000188c <LEDmx_ClearScreen+0x44>)
1000184a:	b530      	push	{r4, r5, lr}
1000184c:	6819      	ldr	r1, [r3, #0]
1000184e:	074a      	lsls	r2, r1, #29
10001850:	0fd3      	lsrs	r3, r2, #31
10001852:	2a00      	cmp	r2, #0
10001854:	da17      	bge.n	10001886 <LEDmx_ClearScreen+0x3e>
10001856:	2201      	movs	r2, #1
10001858:	6008      	str	r0, [r1, #0]
1000185a:	2580      	movs	r5, #128	; 0x80
1000185c:	016d      	lsls	r5, r5, #5
1000185e:	1aed      	subs	r5, r5, r3
10001860:	086c      	lsrs	r4, r5, #1
10001862:	009b      	lsls	r3, r3, #2
10001864:	18cb      	adds	r3, r1, r3
10001866:	00e4      	lsls	r4, r4, #3
10001868:	18e4      	adds	r4, r4, r3
1000186a:	6018      	str	r0, [r3, #0]
1000186c:	6058      	str	r0, [r3, #4]
1000186e:	3308      	adds	r3, #8
10001870:	429c      	cmp	r4, r3
10001872:	d1fa      	bne.n	1000186a <LEDmx_ClearScreen+0x22>
10001874:	2301      	movs	r3, #1
10001876:	002c      	movs	r4, r5
10001878:	439c      	bics	r4, r3
1000187a:	18a3      	adds	r3, r4, r2
1000187c:	42a5      	cmp	r5, r4
1000187e:	d001      	beq.n	10001884 <LEDmx_ClearScreen+0x3c>
10001880:	009b      	lsls	r3, r3, #2
10001882:	5058      	str	r0, [r3, r1]
10001884:	bd30      	pop	{r4, r5, pc}
10001886:	2200      	movs	r2, #0
10001888:	e7e7      	b.n	1000185a <LEDmx_ClearScreen+0x12>
1000188a:	46c0      	nop			; (mov r8, r8)
1000188c:	2000038c 	.word	0x2000038c

10001890 <LEDmx_ClearOverlay>:
10001890:	2280      	movs	r2, #128	; 0x80
10001892:	b510      	push	{r4, lr}
10001894:	2100      	movs	r1, #0
10001896:	4802      	ldr	r0, [pc, #8]	; (100018a0 <LEDmx_ClearOverlay+0x10>)
10001898:	0152      	lsls	r2, r2, #5
1000189a:	f006 fd77 	bl	1000838c <__wrap_memset>
1000189e:	bd10      	pop	{r4, pc}
100018a0:	20009ea8 	.word	0x20009ea8

100018a4 <LEDmx_SetOverlayPixel>:
100018a4:	b283      	uxth	r3, r0
100018a6:	2b3f      	cmp	r3, #63	; 0x3f
100018a8:	d806      	bhi.n	100018b8 <LEDmx_SetOverlayPixel+0x14>
100018aa:	b28b      	uxth	r3, r1
100018ac:	2b3f      	cmp	r3, #63	; 0x3f
100018ae:	d803      	bhi.n	100018b8 <LEDmx_SetOverlayPixel+0x14>
100018b0:	4b02      	ldr	r3, [pc, #8]	; (100018bc <LEDmx_SetOverlayPixel+0x18>)
100018b2:	0189      	lsls	r1, r1, #6
100018b4:	1859      	adds	r1, r3, r1
100018b6:	540a      	strb	r2, [r1, r0]
100018b8:	4770      	bx	lr
100018ba:	46c0      	nop			; (mov r8, r8)
100018bc:	20009ea8 	.word	0x20009ea8

100018c0 <LEDmx_SetOverlayColor>:
100018c0:	b510      	push	{r4, lr}
100018c2:	f7ff f8e9 	bl	10000a98 <hub75_set_overlaycolor>
100018c6:	bd10      	pop	{r4, pc}

100018c8 <pio_sm_unclaim>:
100018c8:	4b05      	ldr	r3, [pc, #20]	; (100018e0 <pio_sm_unclaim+0x18>)
100018ca:	b510      	push	{r4, lr}
100018cc:	469c      	mov	ip, r3
100018ce:	4460      	add	r0, ip
100018d0:	4243      	negs	r3, r0
100018d2:	4158      	adcs	r0, r3
100018d4:	0080      	lsls	r0, r0, #2
100018d6:	1841      	adds	r1, r0, r1
100018d8:	4802      	ldr	r0, [pc, #8]	; (100018e4 <pio_sm_unclaim+0x1c>)
100018da:	f000 f9cf 	bl	10001c7c <hw_claim_clear>
100018de:	bd10      	pop	{r4, pc}
100018e0:	afd00000 	.word	0xafd00000
100018e4:	20012dbb 	.word	0x20012dbb

100018e8 <pio_claim_unused_sm>:
100018e8:	4b0b      	ldr	r3, [pc, #44]	; (10001918 <pio_claim_unused_sm+0x30>)
100018ea:	b510      	push	{r4, lr}
100018ec:	469c      	mov	ip, r3
100018ee:	4460      	add	r0, ip
100018f0:	4243      	negs	r3, r0
100018f2:	4158      	adcs	r0, r3
100018f4:	4a09      	ldr	r2, [pc, #36]	; (1000191c <pio_claim_unused_sm+0x34>)
100018f6:	0084      	lsls	r4, r0, #2
100018f8:	b082      	sub	sp, #8
100018fa:	9200      	str	r2, [sp, #0]
100018fc:	4808      	ldr	r0, [pc, #32]	; (10001920 <pio_claim_unused_sm+0x38>)
100018fe:	0022      	movs	r2, r4
10001900:	1ce3      	adds	r3, r4, #3
10001902:	f000 f96d 	bl	10001be0 <hw_claim_unused_from_range>
10001906:	4284      	cmp	r4, r0
10001908:	dc02      	bgt.n	10001910 <pio_claim_unused_sm+0x28>
1000190a:	1b00      	subs	r0, r0, r4
1000190c:	b002      	add	sp, #8
1000190e:	bd10      	pop	{r4, pc}
10001910:	2001      	movs	r0, #1
10001912:	4240      	negs	r0, r0
10001914:	e7fa      	b.n	1000190c <pio_claim_unused_sm+0x24>
10001916:	46c0      	nop			; (mov r8, r8)
10001918:	afd00000 	.word	0xafd00000
1000191c:	1000b384 	.word	0x1000b384
10001920:	20012dbb 	.word	0x20012dbb

10001924 <pio_sm_is_claimed>:
10001924:	4b05      	ldr	r3, [pc, #20]	; (1000193c <pio_sm_is_claimed+0x18>)
10001926:	b510      	push	{r4, lr}
10001928:	469c      	mov	ip, r3
1000192a:	4460      	add	r0, ip
1000192c:	4243      	negs	r3, r0
1000192e:	4158      	adcs	r0, r3
10001930:	0080      	lsls	r0, r0, #2
10001932:	1841      	adds	r1, r0, r1
10001934:	4802      	ldr	r0, [pc, #8]	; (10001940 <pio_sm_is_claimed+0x1c>)
10001936:	f000 f925 	bl	10001b84 <hw_is_claimed>
1000193a:	bd10      	pop	{r4, pc}
1000193c:	afd00000 	.word	0xafd00000
10001940:	20012dbb 	.word	0x20012dbb

10001944 <pio_add_program>:
10001944:	b5f0      	push	{r4, r5, r6, r7, lr}
10001946:	46d6      	mov	lr, sl
10001948:	464f      	mov	r7, r9
1000194a:	4646      	mov	r6, r8
1000194c:	4688      	mov	r8, r1
1000194e:	b5c0      	push	{r6, r7, lr}
10001950:	2405      	movs	r4, #5
10001952:	0006      	movs	r6, r0
10001954:	f000 f900 	bl	10001b58 <hw_claim_lock>
10001958:	4643      	mov	r3, r8
1000195a:	791f      	ldrb	r7, [r3, #4]
1000195c:	571c      	ldrsb	r4, [r3, r4]
1000195e:	4b28      	ldr	r3, [pc, #160]	; (10001a00 <pio_add_program+0xbc>)
10001960:	4681      	mov	r9, r0
10001962:	18f0      	adds	r0, r6, r3
10001964:	4243      	negs	r3, r0
10001966:	4158      	adcs	r0, r3
10001968:	4b26      	ldr	r3, [pc, #152]	; (10001a04 <pio_add_program+0xc0>)
1000196a:	469a      	mov	sl, r3
1000196c:	0083      	lsls	r3, r0, #2
1000196e:	469c      	mov	ip, r3
10001970:	4653      	mov	r3, sl
10001972:	4662      	mov	r2, ip
10001974:	5898      	ldr	r0, [r3, r2]
10001976:	2201      	movs	r2, #1
10001978:	2320      	movs	r3, #32
1000197a:	40ba      	lsls	r2, r7
1000197c:	1bdb      	subs	r3, r3, r7
1000197e:	3a01      	subs	r2, #1
10001980:	2c00      	cmp	r4, #0
10001982:	db32      	blt.n	100019ea <pio_add_program+0xa6>
10001984:	429c      	cmp	r4, r3
10001986:	dc2d      	bgt.n	100019e4 <pio_add_program+0xa0>
10001988:	40a2      	lsls	r2, r4
1000198a:	0015      	movs	r5, r2
1000198c:	4210      	tst	r0, r2
1000198e:	d129      	bne.n	100019e4 <pio_add_program+0xa0>
10001990:	2f00      	cmp	r7, #0
10001992:	d01a      	beq.n	100019ca <pio_add_program+0x86>
10001994:	4643      	mov	r3, r8
10001996:	785a      	ldrb	r2, [r3, #1]
10001998:	7819      	ldrb	r1, [r3, #0]
1000199a:	0212      	lsls	r2, r2, #8
1000199c:	4311      	orrs	r1, r2
1000199e:	4642      	mov	r2, r8
100019a0:	789b      	ldrb	r3, [r3, #2]
100019a2:	78d2      	ldrb	r2, [r2, #3]
100019a4:	041b      	lsls	r3, r3, #16
100019a6:	430b      	orrs	r3, r1
100019a8:	0612      	lsls	r2, r2, #24
100019aa:	431a      	orrs	r2, r3
100019ac:	4690      	mov	r8, r2
100019ae:	2200      	movs	r2, #0
100019b0:	4641      	mov	r1, r8
100019b2:	0053      	lsls	r3, r2, #1
100019b4:	5ac9      	ldrh	r1, [r1, r3]
100019b6:	0b4b      	lsrs	r3, r1, #13
100019b8:	d100      	bne.n	100019bc <pio_add_program+0x78>
100019ba:	1909      	adds	r1, r1, r4
100019bc:	1913      	adds	r3, r2, r4
100019be:	3312      	adds	r3, #18
100019c0:	009b      	lsls	r3, r3, #2
100019c2:	3201      	adds	r2, #1
100019c4:	5199      	str	r1, [r3, r6]
100019c6:	4297      	cmp	r7, r2
100019c8:	d8f2      	bhi.n	100019b0 <pio_add_program+0x6c>
100019ca:	4653      	mov	r3, sl
100019cc:	4662      	mov	r2, ip
100019ce:	4305      	orrs	r5, r0
100019d0:	509d      	str	r5, [r3, r2]
100019d2:	4648      	mov	r0, r9
100019d4:	f000 f8cc 	bl	10001b70 <hw_claim_unlock>
100019d8:	0020      	movs	r0, r4
100019da:	bce0      	pop	{r5, r6, r7}
100019dc:	46ba      	mov	sl, r7
100019de:	46b1      	mov	r9, r6
100019e0:	46a8      	mov	r8, r5
100019e2:	bdf0      	pop	{r4, r5, r6, r7, pc}
100019e4:	4808      	ldr	r0, [pc, #32]	; (10001a08 <pio_add_program+0xc4>)
100019e6:	f004 f8b5 	bl	10005b54 <panic>
100019ea:	2b00      	cmp	r3, #0
100019ec:	da02      	bge.n	100019f4 <pio_add_program+0xb0>
100019ee:	e7f9      	b.n	100019e4 <pio_add_program+0xa0>
100019f0:	3b01      	subs	r3, #1
100019f2:	d3f7      	bcc.n	100019e4 <pio_add_program+0xa0>
100019f4:	0015      	movs	r5, r2
100019f6:	409d      	lsls	r5, r3
100019f8:	001c      	movs	r4, r3
100019fa:	4205      	tst	r5, r0
100019fc:	d1f8      	bne.n	100019f0 <pio_add_program+0xac>
100019fe:	e7c7      	b.n	10001990 <pio_add_program+0x4c>
10001a00:	afd00000 	.word	0xafd00000
10001a04:	20001098 	.word	0x20001098
10001a08:	1000b3a8 	.word	0x1000b3a8

10001a0c <pio_clear_instruction_memory>:
10001a0c:	b510      	push	{r4, lr}
10001a0e:	0004      	movs	r4, r0
10001a10:	f000 f8a2 	bl	10001b58 <hw_claim_lock>
10001a14:	4b09      	ldr	r3, [pc, #36]	; (10001a3c <pio_clear_instruction_memory+0x30>)
10001a16:	2100      	movs	r1, #0
10001a18:	18e3      	adds	r3, r4, r3
10001a1a:	425a      	negs	r2, r3
10001a1c:	4153      	adcs	r3, r2
10001a1e:	4a08      	ldr	r2, [pc, #32]	; (10001a40 <pio_clear_instruction_memory+0x34>)
10001a20:	009b      	lsls	r3, r3, #2
10001a22:	5099      	str	r1, [r3, r2]
10001a24:	2300      	movs	r3, #0
10001a26:	001a      	movs	r2, r3
10001a28:	3212      	adds	r2, #18
10001a2a:	0092      	lsls	r2, r2, #2
10001a2c:	5113      	str	r3, [r2, r4]
10001a2e:	3301      	adds	r3, #1
10001a30:	2b20      	cmp	r3, #32
10001a32:	d1f8      	bne.n	10001a26 <pio_clear_instruction_memory+0x1a>
10001a34:	f000 f89c 	bl	10001b70 <hw_claim_unlock>
10001a38:	bd10      	pop	{r4, pc}
10001a3a:	46c0      	nop			; (mov r8, r8)
10001a3c:	afd00000 	.word	0xafd00000
10001a40:	20001098 	.word	0x20001098

10001a44 <pio_sm_set_consecutive_pindirs>:
10001a44:	b5f0      	push	{r4, r5, r6, r7, lr}
10001a46:	464e      	mov	r6, r9
10001a48:	4645      	mov	r5, r8
10001a4a:	46de      	mov	lr, fp
10001a4c:	4657      	mov	r7, sl
10001a4e:	468a      	mov	sl, r1
10001a50:	0049      	lsls	r1, r1, #1
10001a52:	b5e0      	push	{r5, r6, r7, lr}
10001a54:	000d      	movs	r5, r1
10001a56:	4680      	mov	r8, r0
10001a58:	4455      	add	r5, sl
10001a5a:	00ed      	lsls	r5, r5, #3
10001a5c:	4445      	add	r5, r8
10001a5e:	4689      	mov	r9, r1
10001a60:	0029      	movs	r1, r5
10001a62:	ac09      	add	r4, sp, #36	; 0x24
10001a64:	7826      	ldrb	r6, [r4, #0]
10001a66:	31dc      	adds	r1, #220	; 0xdc
10001a68:	1e74      	subs	r4, r6, #1
10001a6a:	41a6      	sbcs	r6, r4
10001a6c:	6808      	ldr	r0, [r1, #0]
10001a6e:	4274      	negs	r4, r6
10001a70:	4684      	mov	ip, r0
10001a72:	4814      	ldr	r0, [pc, #80]	; (10001ac4 <pio_sm_set_consecutive_pindirs+0x80>)
10001a74:	261f      	movs	r6, #31
10001a76:	4683      	mov	fp, r0
10001a78:	4026      	ands	r6, r4
10001a7a:	445e      	add	r6, fp
10001a7c:	2b05      	cmp	r3, #5
10001a7e:	d90c      	bls.n	10001a9a <pio_sm_set_consecutive_pindirs+0x56>
10001a80:	20a0      	movs	r0, #160	; 0xa0
10001a82:	271f      	movs	r7, #31
10001a84:	0540      	lsls	r0, r0, #21
10001a86:	35d8      	adds	r5, #216	; 0xd8
10001a88:	0154      	lsls	r4, r2, #5
10001a8a:	4304      	orrs	r4, r0
10001a8c:	3205      	adds	r2, #5
10001a8e:	3b05      	subs	r3, #5
10001a90:	600c      	str	r4, [r1, #0]
10001a92:	403a      	ands	r2, r7
10001a94:	602e      	str	r6, [r5, #0]
10001a96:	2b05      	cmp	r3, #5
10001a98:	d8f6      	bhi.n	10001a88 <pio_sm_set_consecutive_pindirs+0x44>
10001a9a:	4649      	mov	r1, r9
10001a9c:	4451      	add	r1, sl
10001a9e:	00c9      	lsls	r1, r1, #3
10001aa0:	4441      	add	r1, r8
10001aa2:	0152      	lsls	r2, r2, #5
10001aa4:	069b      	lsls	r3, r3, #26
10001aa6:	4313      	orrs	r3, r2
10001aa8:	000a      	movs	r2, r1
10001aaa:	0008      	movs	r0, r1
10001aac:	32dc      	adds	r2, #220	; 0xdc
10001aae:	6013      	str	r3, [r2, #0]
10001ab0:	4663      	mov	r3, ip
10001ab2:	30d8      	adds	r0, #216	; 0xd8
10001ab4:	6006      	str	r6, [r0, #0]
10001ab6:	6013      	str	r3, [r2, #0]
10001ab8:	bcf0      	pop	{r4, r5, r6, r7}
10001aba:	46bb      	mov	fp, r7
10001abc:	46b2      	mov	sl, r6
10001abe:	46a9      	mov	r9, r5
10001ac0:	46a0      	mov	r8, r4
10001ac2:	bdf0      	pop	{r4, r5, r6, r7, pc}
10001ac4:	0000e080 	.word	0x0000e080

10001ac8 <pio_sm_init>:
10001ac8:	b5f0      	push	{r4, r5, r6, r7, lr}
10001aca:	2501      	movs	r5, #1
10001acc:	408d      	lsls	r5, r1
10001ace:	6804      	ldr	r4, [r0, #0]
10001ad0:	43ac      	bics	r4, r5
10001ad2:	004d      	lsls	r5, r1, #1
10001ad4:	6004      	str	r4, [r0, #0]
10001ad6:	186c      	adds	r4, r5, r1
10001ad8:	00e4      	lsls	r4, r4, #3
10001ada:	1904      	adds	r4, r0, r4
10001adc:	0026      	movs	r6, r4
10001ade:	36c8      	adds	r6, #200	; 0xc8
10001ae0:	2b00      	cmp	r3, #0
10001ae2:	d02a      	beq.n	10001b3a <pio_sm_init+0x72>
10001ae4:	681f      	ldr	r7, [r3, #0]
10001ae6:	34dc      	adds	r4, #220	; 0xdc
10001ae8:	6037      	str	r7, [r6, #0]
10001aea:	685f      	ldr	r7, [r3, #4]
10001aec:	6077      	str	r7, [r6, #4]
10001aee:	689f      	ldr	r7, [r3, #8]
10001af0:	68db      	ldr	r3, [r3, #12]
10001af2:	60b7      	str	r7, [r6, #8]
10001af4:	6023      	str	r3, [r4, #0]
10001af6:	186d      	adds	r5, r5, r1
10001af8:	00eb      	lsls	r3, r5, #3
10001afa:	001d      	movs	r5, r3
10001afc:	2480      	movs	r4, #128	; 0x80
10001afe:	35d0      	adds	r5, #208	; 0xd0
10001b00:	1945      	adds	r5, r0, r5
10001b02:	0164      	lsls	r4, r4, #5
10001b04:	432c      	orrs	r4, r5
10001b06:	2580      	movs	r5, #128	; 0x80
10001b08:	062d      	lsls	r5, r5, #24
10001b0a:	6025      	str	r5, [r4, #0]
10001b0c:	6025      	str	r5, [r4, #0]
10001b0e:	4c11      	ldr	r4, [pc, #68]	; (10001b54 <pio_sm_init+0x8c>)
10001b10:	1d0d      	adds	r5, r1, #4
10001b12:	408c      	lsls	r4, r1
10001b14:	6084      	str	r4, [r0, #8]
10001b16:	2401      	movs	r4, #1
10001b18:	0027      	movs	r7, r4
10001b1a:	40af      	lsls	r7, r5
10001b1c:	003d      	movs	r5, r7
10001b1e:	3108      	adds	r1, #8
10001b20:	408c      	lsls	r4, r1
10001b22:	211f      	movs	r1, #31
10001b24:	6806      	ldr	r6, [r0, #0]
10001b26:	400a      	ands	r2, r1
10001b28:	4335      	orrs	r5, r6
10001b2a:	6005      	str	r5, [r0, #0]
10001b2c:	6805      	ldr	r5, [r0, #0]
10001b2e:	432c      	orrs	r4, r5
10001b30:	6004      	str	r4, [r0, #0]
10001b32:	18c0      	adds	r0, r0, r3
10001b34:	30d8      	adds	r0, #216	; 0xd8
10001b36:	6002      	str	r2, [r0, #0]
10001b38:	bdf0      	pop	{r4, r5, r6, r7, pc}
10001b3a:	2780      	movs	r7, #128	; 0x80
10001b3c:	027f      	lsls	r7, r7, #9
10001b3e:	6037      	str	r7, [r6, #0]
10001b40:	27f8      	movs	r7, #248	; 0xf8
10001b42:	027f      	lsls	r7, r7, #9
10001b44:	6077      	str	r7, [r6, #4]
10001b46:	27c0      	movs	r7, #192	; 0xc0
10001b48:	34dc      	adds	r4, #220	; 0xdc
10001b4a:	033f      	lsls	r7, r7, #12
10001b4c:	60b7      	str	r7, [r6, #8]
10001b4e:	6023      	str	r3, [r4, #0]
10001b50:	e7d1      	b.n	10001af6 <pio_sm_init+0x2e>
10001b52:	46c0      	nop			; (mov r8, r8)
10001b54:	01010101 	.word	0x01010101

10001b58 <hw_claim_lock>:
10001b58:	f3ef 8010 	mrs	r0, PRIMASK
10001b5c:	b672      	cpsid	i
10001b5e:	4a03      	ldr	r2, [pc, #12]	; (10001b6c <hw_claim_lock+0x14>)
10001b60:	6813      	ldr	r3, [r2, #0]
10001b62:	2b00      	cmp	r3, #0
10001b64:	d0fc      	beq.n	10001b60 <hw_claim_lock+0x8>
10001b66:	f3bf 8f5f 	dmb	sy
10001b6a:	4770      	bx	lr
10001b6c:	d000012c 	.word	0xd000012c

10001b70 <hw_claim_unlock>:
10001b70:	f3bf 8f5f 	dmb	sy
10001b74:	2200      	movs	r2, #0
10001b76:	4b02      	ldr	r3, [pc, #8]	; (10001b80 <hw_claim_unlock+0x10>)
10001b78:	601a      	str	r2, [r3, #0]
10001b7a:	f380 8810 	msr	PRIMASK, r0
10001b7e:	4770      	bx	lr
10001b80:	d000012c 	.word	0xd000012c

10001b84 <hw_is_claimed>:
10001b84:	08cb      	lsrs	r3, r1, #3
10001b86:	5cc2      	ldrb	r2, [r0, r3]
10001b88:	2307      	movs	r3, #7
10001b8a:	2001      	movs	r0, #1
10001b8c:	4019      	ands	r1, r3
10001b8e:	4088      	lsls	r0, r1
10001b90:	4010      	ands	r0, r2
10001b92:	1e43      	subs	r3, r0, #1
10001b94:	4198      	sbcs	r0, r3
10001b96:	b2c0      	uxtb	r0, r0
10001b98:	4770      	bx	lr
10001b9a:	46c0      	nop			; (mov r8, r8)

10001b9c <hw_claim_or_assert>:
10001b9c:	b570      	push	{r4, r5, r6, lr}
10001b9e:	f3ef 8c10 	mrs	ip, PRIMASK
10001ba2:	b672      	cpsid	i
10001ba4:	4d0d      	ldr	r5, [pc, #52]	; (10001bdc <hw_claim_or_assert+0x40>)
10001ba6:	682b      	ldr	r3, [r5, #0]
10001ba8:	2b00      	cmp	r3, #0
10001baa:	d0fc      	beq.n	10001ba6 <hw_claim_or_assert+0xa>
10001bac:	f3bf 8f5f 	dmb	sy
10001bb0:	2407      	movs	r4, #7
10001bb2:	08cb      	lsrs	r3, r1, #3
10001bb4:	18c6      	adds	r6, r0, r3
10001bb6:	5cc0      	ldrb	r0, [r0, r3]
10001bb8:	2301      	movs	r3, #1
10001bba:	400c      	ands	r4, r1
10001bbc:	40a3      	lsls	r3, r4
10001bbe:	001c      	movs	r4, r3
10001bc0:	4004      	ands	r4, r0
10001bc2:	4203      	tst	r3, r0
10001bc4:	d107      	bne.n	10001bd6 <hw_claim_or_assert+0x3a>
10001bc6:	4303      	orrs	r3, r0
10001bc8:	7033      	strb	r3, [r6, #0]
10001bca:	f3bf 8f5f 	dmb	sy
10001bce:	602c      	str	r4, [r5, #0]
10001bd0:	f38c 8810 	msr	PRIMASK, ip
10001bd4:	bd70      	pop	{r4, r5, r6, pc}
10001bd6:	0010      	movs	r0, r2
10001bd8:	f003 ffbc 	bl	10005b54 <panic>
10001bdc:	d000012c 	.word	0xd000012c

10001be0 <hw_claim_unused_from_range>:
10001be0:	b5f8      	push	{r3, r4, r5, r6, r7, lr}
10001be2:	4647      	mov	r7, r8
10001be4:	46ce      	mov	lr, r9
10001be6:	4688      	mov	r8, r1
10001be8:	b580      	push	{r7, lr}
10001bea:	f3ef 8c10 	mrs	ip, PRIMASK
10001bee:	b672      	cpsid	i
10001bf0:	4d21      	ldr	r5, [pc, #132]	; (10001c78 <hw_claim_unused_from_range+0x98>)
10001bf2:	682c      	ldr	r4, [r5, #0]
10001bf4:	2c00      	cmp	r4, #0
10001bf6:	d0fc      	beq.n	10001bf2 <hw_claim_unused_from_range+0x12>
10001bf8:	f3bf 8f5f 	dmb	sy
10001bfc:	429a      	cmp	r2, r3
10001bfe:	d82c      	bhi.n	10001c5a <hw_claim_unused_from_range+0x7a>
10001c00:	08d4      	lsrs	r4, r2, #3
10001c02:	2707      	movs	r7, #7
10001c04:	5d05      	ldrb	r5, [r0, r4]
10001c06:	1906      	adds	r6, r0, r4
10001c08:	2401      	movs	r4, #1
10001c0a:	4017      	ands	r7, r2
10001c0c:	40bc      	lsls	r4, r7
10001c0e:	422c      	tst	r4, r5
10001c10:	d01f      	beq.n	10001c52 <hw_claim_unused_from_range+0x72>
10001c12:	2107      	movs	r1, #7
10001c14:	2701      	movs	r7, #1
10001c16:	4689      	mov	r9, r1
10001c18:	e009      	b.n	10001c2e <hw_claim_unused_from_range+0x4e>
10001c1a:	08d4      	lsrs	r4, r2, #3
10001c1c:	5d05      	ldrb	r5, [r0, r4]
10001c1e:	1906      	adds	r6, r0, r4
10001c20:	464c      	mov	r4, r9
10001c22:	0039      	movs	r1, r7
10001c24:	4014      	ands	r4, r2
10001c26:	40a1      	lsls	r1, r4
10001c28:	000c      	movs	r4, r1
10001c2a:	4229      	tst	r1, r5
10001c2c:	d011      	beq.n	10001c52 <hw_claim_unused_from_range+0x72>
10001c2e:	3201      	adds	r2, #1
10001c30:	4293      	cmp	r3, r2
10001c32:	d2f2      	bcs.n	10001c1a <hw_claim_unused_from_range+0x3a>
10001c34:	2001      	movs	r0, #1
10001c36:	4240      	negs	r0, r0
10001c38:	f3bf 8f5f 	dmb	sy
10001c3c:	2200      	movs	r2, #0
10001c3e:	4b0e      	ldr	r3, [pc, #56]	; (10001c78 <hw_claim_unused_from_range+0x98>)
10001c40:	601a      	str	r2, [r3, #0]
10001c42:	f38c 8810 	msr	PRIMASK, ip
10001c46:	2800      	cmp	r0, #0
10001c48:	db0f      	blt.n	10001c6a <hw_claim_unused_from_range+0x8a>
10001c4a:	bcc0      	pop	{r6, r7}
10001c4c:	46b9      	mov	r9, r7
10001c4e:	46b0      	mov	r8, r6
10001c50:	bdf8      	pop	{r3, r4, r5, r6, r7, pc}
10001c52:	432c      	orrs	r4, r5
10001c54:	0010      	movs	r0, r2
10001c56:	7034      	strb	r4, [r6, #0]
10001c58:	e7ee      	b.n	10001c38 <hw_claim_unused_from_range+0x58>
10001c5a:	f3bf 8f5f 	dmb	sy
10001c5e:	2300      	movs	r3, #0
10001c60:	602b      	str	r3, [r5, #0]
10001c62:	f38c 8810 	msr	PRIMASK, ip
10001c66:	2001      	movs	r0, #1
10001c68:	4240      	negs	r0, r0
10001c6a:	4643      	mov	r3, r8
10001c6c:	2b00      	cmp	r3, #0
10001c6e:	d0ec      	beq.n	10001c4a <hw_claim_unused_from_range+0x6a>
10001c70:	9808      	ldr	r0, [sp, #32]
10001c72:	f003 ff6f 	bl	10005b54 <panic>
10001c76:	46c0      	nop			; (mov r8, r8)
10001c78:	d000012c 	.word	0xd000012c

10001c7c <hw_claim_clear>:
10001c7c:	b530      	push	{r4, r5, lr}
10001c7e:	f3ef 8c10 	mrs	ip, PRIMASK
10001c82:	b672      	cpsid	i
10001c84:	4c0a      	ldr	r4, [pc, #40]	; (10001cb0 <hw_claim_clear+0x34>)
10001c86:	6823      	ldr	r3, [r4, #0]
10001c88:	2b00      	cmp	r3, #0
10001c8a:	d0fc      	beq.n	10001c86 <hw_claim_clear+0xa>
10001c8c:	f3bf 8f5f 	dmb	sy
10001c90:	2307      	movs	r3, #7
10001c92:	2201      	movs	r2, #1
10001c94:	08cd      	lsrs	r5, r1, #3
10001c96:	4019      	ands	r1, r3
10001c98:	408a      	lsls	r2, r1
10001c9a:	5d43      	ldrb	r3, [r0, r5]
10001c9c:	4393      	bics	r3, r2
10001c9e:	5543      	strb	r3, [r0, r5]
10001ca0:	f3bf 8f5f 	dmb	sy
10001ca4:	2300      	movs	r3, #0
10001ca6:	6023      	str	r3, [r4, #0]
10001ca8:	f38c 8810 	msr	PRIMASK, ip
10001cac:	bd30      	pop	{r4, r5, pc}
10001cae:	46c0      	nop			; (mov r8, r8)
10001cb0:	d000012c 	.word	0xd000012c

10001cb4 <running_on_fpga>:
10001cb4:	4b02      	ldr	r3, [pc, #8]	; (10001cc0 <running_on_fpga+0xc>)
10001cb6:	6818      	ldr	r0, [r3, #0]
10001cb8:	0780      	lsls	r0, r0, #30
10001cba:	0fc0      	lsrs	r0, r0, #31
10001cbc:	4770      	bx	lr
10001cbe:	46c0      	nop			; (mov r8, r8)
10001cc0:	4006c000 	.word	0x4006c000

10001cc4 <spin_locks_reset>:
10001cc4:	2100      	movs	r1, #0
10001cc6:	4b04      	ldr	r3, [pc, #16]	; (10001cd8 <spin_locks_reset+0x14>)
10001cc8:	4a04      	ldr	r2, [pc, #16]	; (10001cdc <spin_locks_reset+0x18>)
10001cca:	f3bf 8f5f 	dmb	sy
10001cce:	c302      	stmia	r3!, {r1}
10001cd0:	4293      	cmp	r3, r2
10001cd2:	d1fa      	bne.n	10001cca <spin_locks_reset+0x6>
10001cd4:	4770      	bx	lr
10001cd6:	46c0      	nop			; (mov r8, r8)
10001cd8:	d0000100 	.word	0xd0000100
10001cdc:	d0000180 	.word	0xd0000180

10001ce0 <next_striped_spin_lock_num>:
10001ce0:	4a04      	ldr	r2, [pc, #16]	; (10001cf4 <next_striped_spin_lock_num+0x14>)
10001ce2:	7810      	ldrb	r0, [r2, #0]
10001ce4:	1c43      	adds	r3, r0, #1
10001ce6:	b2db      	uxtb	r3, r3
10001ce8:	2b17      	cmp	r3, #23
10001cea:	d900      	bls.n	10001cee <next_striped_spin_lock_num+0xe>
10001cec:	2310      	movs	r3, #16
10001cee:	7013      	strb	r3, [r2, #0]
10001cf0:	4770      	bx	lr
10001cf2:	46c0      	nop			; (mov r8, r8)
10001cf4:	20000390 	.word	0x20000390

10001cf8 <spin_lock_claim_unused>:
10001cf8:	b500      	push	{lr}
10001cfa:	4b05      	ldr	r3, [pc, #20]	; (10001d10 <spin_lock_claim_unused+0x18>)
10001cfc:	b083      	sub	sp, #12
10001cfe:	0001      	movs	r1, r0
10001d00:	9300      	str	r3, [sp, #0]
10001d02:	2218      	movs	r2, #24
10001d04:	231f      	movs	r3, #31
10001d06:	4803      	ldr	r0, [pc, #12]	; (10001d14 <spin_lock_claim_unused+0x1c>)
10001d08:	f7ff ff6a 	bl	10001be0 <hw_claim_unused_from_range>
10001d0c:	b003      	add	sp, #12
10001d0e:	bd00      	pop	{pc}
10001d10:	1000b3bc 	.word	0x1000b3bc
10001d14:	200015cc 	.word	0x200015cc

10001d18 <gpio_set_function>:
10001d18:	4a09      	ldr	r2, [pc, #36]	; (10001d40 <gpio_set_function+0x28>)
10001d1a:	0083      	lsls	r3, r0, #2
10001d1c:	4694      	mov	ip, r2
10001d1e:	2240      	movs	r2, #64	; 0x40
10001d20:	4463      	add	r3, ip
10001d22:	b510      	push	{r4, lr}
10001d24:	681c      	ldr	r4, [r3, #0]
10001d26:	00c0      	lsls	r0, r0, #3
10001d28:	4062      	eors	r2, r4
10001d2a:	24c0      	movs	r4, #192	; 0xc0
10001d2c:	4014      	ands	r4, r2
10001d2e:	2280      	movs	r2, #128	; 0x80
10001d30:	0152      	lsls	r2, r2, #5
10001d32:	4313      	orrs	r3, r2
10001d34:	601c      	str	r4, [r3, #0]
10001d36:	4b03      	ldr	r3, [pc, #12]	; (10001d44 <gpio_set_function+0x2c>)
10001d38:	469c      	mov	ip, r3
10001d3a:	4460      	add	r0, ip
10001d3c:	6041      	str	r1, [r0, #4]
10001d3e:	bd10      	pop	{r4, pc}
10001d40:	4001c004 	.word	0x4001c004
10001d44:	40014000 	.word	0x40014000

10001d48 <gpio_init>:
10001d48:	2301      	movs	r3, #1
10001d4a:	22d0      	movs	r2, #208	; 0xd0
10001d4c:	4083      	lsls	r3, r0
10001d4e:	0612      	lsls	r2, r2, #24
10001d50:	6293      	str	r3, [r2, #40]	; 0x28
10001d52:	6193      	str	r3, [r2, #24]
10001d54:	4a09      	ldr	r2, [pc, #36]	; (10001d7c <gpio_init+0x34>)
10001d56:	0083      	lsls	r3, r0, #2
10001d58:	4694      	mov	ip, r2
10001d5a:	2240      	movs	r2, #64	; 0x40
10001d5c:	4463      	add	r3, ip
10001d5e:	6819      	ldr	r1, [r3, #0]
10001d60:	00c0      	lsls	r0, r0, #3
10001d62:	404a      	eors	r2, r1
10001d64:	21c0      	movs	r1, #192	; 0xc0
10001d66:	4011      	ands	r1, r2
10001d68:	2280      	movs	r2, #128	; 0x80
10001d6a:	0152      	lsls	r2, r2, #5
10001d6c:	4313      	orrs	r3, r2
10001d6e:	6019      	str	r1, [r3, #0]
10001d70:	4b03      	ldr	r3, [pc, #12]	; (10001d80 <gpio_init+0x38>)
10001d72:	469c      	mov	ip, r3
10001d74:	2305      	movs	r3, #5
10001d76:	4460      	add	r0, ip
10001d78:	6043      	str	r3, [r0, #4]
10001d7a:	4770      	bx	lr
10001d7c:	4001c004 	.word	0x4001c004
10001d80:	40014000 	.word	0x40014000

10001d84 <irq_set_enabled>:
10001d84:	2301      	movs	r3, #1
10001d86:	4083      	lsls	r3, r0
10001d88:	2900      	cmp	r1, #0
10001d8a:	d004      	beq.n	10001d96 <irq_set_enabled+0x12>
10001d8c:	4a03      	ldr	r2, [pc, #12]	; (10001d9c <irq_set_enabled+0x18>)
10001d8e:	6013      	str	r3, [r2, #0]
10001d90:	4a03      	ldr	r2, [pc, #12]	; (10001da0 <irq_set_enabled+0x1c>)
10001d92:	6013      	str	r3, [r2, #0]
10001d94:	4770      	bx	lr
10001d96:	4a03      	ldr	r2, [pc, #12]	; (10001da4 <irq_set_enabled+0x20>)
10001d98:	6013      	str	r3, [r2, #0]
10001d9a:	e7fb      	b.n	10001d94 <irq_set_enabled+0x10>
10001d9c:	e000e280 	.word	0xe000e280
10001da0:	e000e100 	.word	0xe000e100
10001da4:	e000e180 	.word	0xe000e180

10001da8 <irq_set_pending>:
10001da8:	2301      	movs	r3, #1
10001daa:	4083      	lsls	r3, r0
10001dac:	4a01      	ldr	r2, [pc, #4]	; (10001db4 <irq_set_pending+0xc>)
10001dae:	6013      	str	r3, [r2, #0]
10001db0:	4770      	bx	lr
10001db2:	46c0      	nop			; (mov r8, r8)
10001db4:	e000e200 	.word	0xe000e200

10001db8 <irq_has_shared_handler>:
10001db8:	4b08      	ldr	r3, [pc, #32]	; (10001ddc <irq_has_shared_handler+0x24>)
10001dba:	3010      	adds	r0, #16
10001dbc:	689b      	ldr	r3, [r3, #8]
10001dbe:	0080      	lsls	r0, r0, #2
10001dc0:	58c3      	ldr	r3, [r0, r3]
10001dc2:	2b00      	cmp	r3, #0
10001dc4:	d007      	beq.n	10001dd6 <irq_has_shared_handler+0x1e>
10001dc6:	4a06      	ldr	r2, [pc, #24]	; (10001de0 <irq_has_shared_handler+0x28>)
10001dc8:	2000      	movs	r0, #0
10001dca:	1a9b      	subs	r3, r3, r2
10001dcc:	222f      	movs	r2, #47	; 0x2f
10001dce:	429a      	cmp	r2, r3
10001dd0:	4140      	adcs	r0, r0
10001dd2:	b2c0      	uxtb	r0, r0
10001dd4:	4770      	bx	lr
10001dd6:	2000      	movs	r0, #0
10001dd8:	e7fc      	b.n	10001dd4 <irq_has_shared_handler+0x1c>
10001dda:	46c0      	nop			; (mov r8, r8)
10001ddc:	e000ed00 	.word	0xe000ed00
10001de0:	20000394 	.word	0x20000394

10001de4 <irq_get_vtable_handler>:
10001de4:	4b02      	ldr	r3, [pc, #8]	; (10001df0 <irq_get_vtable_handler+0xc>)
10001de6:	3010      	adds	r0, #16
10001de8:	689b      	ldr	r3, [r3, #8]
10001dea:	0080      	lsls	r0, r0, #2
10001dec:	58c0      	ldr	r0, [r0, r3]
10001dee:	4770      	bx	lr
10001df0:	e000ed00 	.word	0xe000ed00

10001df4 <irq_set_exclusive_handler>:
10001df4:	b570      	push	{r4, r5, r6, lr}
10001df6:	000d      	movs	r5, r1
10001df8:	f3ef 8610 	mrs	r6, PRIMASK
10001dfc:	b672      	cpsid	i
10001dfe:	4a0f      	ldr	r2, [pc, #60]	; (10001e3c <irq_set_exclusive_handler+0x48>)
10001e00:	6813      	ldr	r3, [r2, #0]
10001e02:	2b00      	cmp	r3, #0
10001e04:	d0fc      	beq.n	10001e00 <irq_set_exclusive_handler+0xc>
10001e06:	f3bf 8f5f 	dmb	sy
10001e0a:	4b0d      	ldr	r3, [pc, #52]	; (10001e40 <irq_set_exclusive_handler+0x4c>)
10001e0c:	3010      	adds	r0, #16
10001e0e:	689b      	ldr	r3, [r3, #8]
10001e10:	0084      	lsls	r4, r0, #2
10001e12:	591b      	ldr	r3, [r3, r4]
10001e14:	4a0b      	ldr	r2, [pc, #44]	; (10001e44 <irq_set_exclusive_handler+0x50>)
10001e16:	4293      	cmp	r3, r2
10001e18:	d003      	beq.n	10001e22 <irq_set_exclusive_handler+0x2e>
10001e1a:	429d      	cmp	r5, r3
10001e1c:	d001      	beq.n	10001e22 <irq_set_exclusive_handler+0x2e>
10001e1e:	f003 feb7 	bl	10005b90 <hard_assertion_failure>
10001e22:	4b07      	ldr	r3, [pc, #28]	; (10001e40 <irq_set_exclusive_handler+0x4c>)
10001e24:	689b      	ldr	r3, [r3, #8]
10001e26:	511d      	str	r5, [r3, r4]
10001e28:	f3bf 8f5f 	dmb	sy
10001e2c:	f3bf 8f5f 	dmb	sy
10001e30:	2200      	movs	r2, #0
10001e32:	4b02      	ldr	r3, [pc, #8]	; (10001e3c <irq_set_exclusive_handler+0x48>)
10001e34:	601a      	str	r2, [r3, #0]
10001e36:	f386 8810 	msr	PRIMASK, r6
10001e3a:	bd70      	pop	{r4, r5, r6, pc}
10001e3c:	d0000124 	.word	0xd0000124
10001e40:	e000ed00 	.word	0xe000ed00
10001e44:	100001cd 	.word	0x100001cd

10001e48 <irq_add_shared_handler>:
10001e48:	b5f0      	push	{r4, r5, r6, r7, lr}
10001e4a:	4657      	mov	r7, sl
10001e4c:	464e      	mov	r6, r9
10001e4e:	46de      	mov	lr, fp
10001e50:	4645      	mov	r5, r8
10001e52:	b5e0      	push	{r5, r6, r7, lr}
10001e54:	b085      	sub	sp, #20
10001e56:	0006      	movs	r6, r0
10001e58:	9102      	str	r1, [sp, #8]
10001e5a:	0017      	movs	r7, r2
10001e5c:	f3ef 8b10 	mrs	fp, PRIMASK
10001e60:	b672      	cpsid	i
10001e62:	4a67      	ldr	r2, [pc, #412]	; (10002000 <irq_add_shared_handler+0x1b8>)
10001e64:	6813      	ldr	r3, [r2, #0]
10001e66:	2b00      	cmp	r3, #0
10001e68:	d0fc      	beq.n	10001e64 <irq_add_shared_handler+0x1c>
10001e6a:	f3bf 8f5f 	dmb	sy
10001e6e:	2500      	movs	r5, #0
10001e70:	4b64      	ldr	r3, [pc, #400]	; (10002004 <irq_add_shared_handler+0x1bc>)
10001e72:	575d      	ldrsb	r5, [r3, r5]
10001e74:	469a      	mov	sl, r3
10001e76:	2d00      	cmp	r5, #0
10001e78:	da00      	bge.n	10001e7c <irq_add_shared_handler+0x34>
10001e7a:	e0a5      	b.n	10001fc8 <irq_add_shared_handler+0x180>
10001e7c:	006b      	lsls	r3, r5, #1
10001e7e:	4c62      	ldr	r4, [pc, #392]	; (10002008 <irq_add_shared_handler+0x1c0>)
10001e80:	9303      	str	r3, [sp, #12]
10001e82:	195b      	adds	r3, r3, r5
10001e84:	009b      	lsls	r3, r3, #2
10001e86:	4698      	mov	r8, r3
10001e88:	46a1      	mov	r9, r4
10001e8a:	44c1      	add	r9, r8
10001e8c:	464b      	mov	r3, r9
10001e8e:	4652      	mov	r2, sl
10001e90:	799b      	ldrb	r3, [r3, #6]
10001e92:	3610      	adds	r6, #16
10001e94:	7013      	strb	r3, [r2, #0]
10001e96:	4b5d      	ldr	r3, [pc, #372]	; (1000200c <irq_add_shared_handler+0x1c4>)
10001e98:	00b2      	lsls	r2, r6, #2
10001e9a:	689b      	ldr	r3, [r3, #8]
10001e9c:	9201      	str	r2, [sp, #4]
10001e9e:	5899      	ldr	r1, [r3, r2]
10001ea0:	1b0b      	subs	r3, r1, r4
10001ea2:	2b2f      	cmp	r3, #47	; 0x2f
10001ea4:	d934      	bls.n	10001f10 <irq_add_shared_handler+0xc8>
10001ea6:	4b5a      	ldr	r3, [pc, #360]	; (10002010 <irq_add_shared_handler+0x1c8>)
10001ea8:	4299      	cmp	r1, r3
10001eaa:	d000      	beq.n	10001eae <irq_add_shared_handler+0x66>
10001eac:	e0a5      	b.n	10001ffa <irq_add_shared_handler+0x1b2>
10001eae:	9b03      	ldr	r3, [sp, #12]
10001eb0:	4a58      	ldr	r2, [pc, #352]	; (10002014 <irq_add_shared_handler+0x1cc>)
10001eb2:	469c      	mov	ip, r3
10001eb4:	4b58      	ldr	r3, [pc, #352]	; (10002018 <irq_add_shared_handler+0x1d0>)
10001eb6:	4465      	add	r5, ip
10001eb8:	00ad      	lsls	r5, r5, #2
10001eba:	5363      	strh	r3, [r4, r5]
10001ebc:	4643      	mov	r3, r8
10001ebe:	3302      	adds	r3, #2
10001ec0:	1965      	adds	r5, r4, r5
10001ec2:	18e4      	adds	r4, r4, r3
10001ec4:	4b55      	ldr	r3, [pc, #340]	; (1000201c <irq_add_shared_handler+0x1d4>)
10001ec6:	2101      	movs	r1, #1
10001ec8:	3b04      	subs	r3, #4
10001eca:	1b1b      	subs	r3, r3, r4
10001ecc:	051b      	lsls	r3, r3, #20
10001ece:	0d5b      	lsrs	r3, r3, #21
10001ed0:	4313      	orrs	r3, r2
10001ed2:	806b      	strh	r3, [r5, #2]
10001ed4:	4b52      	ldr	r3, [pc, #328]	; (10002020 <irq_add_shared_handler+0x1d8>)
10001ed6:	71ef      	strb	r7, [r5, #7]
10001ed8:	80ab      	strh	r3, [r5, #4]
10001eda:	23ff      	movs	r3, #255	; 0xff
10001edc:	71ab      	strb	r3, [r5, #6]
10001ede:	9b02      	ldr	r3, [sp, #8]
10001ee0:	60ab      	str	r3, [r5, #8]
10001ee2:	464b      	mov	r3, r9
10001ee4:	430b      	orrs	r3, r1
10001ee6:	0019      	movs	r1, r3
10001ee8:	4b48      	ldr	r3, [pc, #288]	; (1000200c <irq_add_shared_handler+0x1c4>)
10001eea:	9a01      	ldr	r2, [sp, #4]
10001eec:	689b      	ldr	r3, [r3, #8]
10001eee:	5099      	str	r1, [r3, r2]
10001ef0:	f3bf 8f5f 	dmb	sy
10001ef4:	f3bf 8f5f 	dmb	sy
10001ef8:	2200      	movs	r2, #0
10001efa:	4b41      	ldr	r3, [pc, #260]	; (10002000 <irq_add_shared_handler+0x1b8>)
10001efc:	601a      	str	r2, [r3, #0]
10001efe:	f38b 8810 	msr	PRIMASK, fp
10001f02:	b005      	add	sp, #20
10001f04:	bcf0      	pop	{r4, r5, r6, r7}
10001f06:	46bb      	mov	fp, r7
10001f08:	46b2      	mov	sl, r6
10001f0a:	46a9      	mov	r9, r5
10001f0c:	46a0      	mov	r8, r4
10001f0e:	bdf0      	pop	{r4, r5, r6, r7, pc}
10001f10:	2001      	movs	r0, #1
10001f12:	000a      	movs	r2, r1
10001f14:	4382      	bics	r2, r0
10001f16:	79d3      	ldrb	r3, [r2, #7]
10001f18:	42bb      	cmp	r3, r7
10001f1a:	d82f      	bhi.n	10001f7c <irq_add_shared_handler+0x134>
10001f1c:	4645      	mov	r5, r8
10001f1e:	464e      	mov	r6, r9
10001f20:	0013      	movs	r3, r2
10001f22:	4940      	ldr	r1, [pc, #256]	; (10002024 <irq_add_shared_handler+0x1dc>)
10001f24:	1b1b      	subs	r3, r3, r4
10001f26:	415b      	adcs	r3, r3
10001f28:	4359      	muls	r1, r3
10001f2a:	0d09      	lsrs	r1, r1, #20
10001f2c:	4b3a      	ldr	r3, [pc, #232]	; (10002018 <irq_add_shared_handler+0x1d0>)
10001f2e:	5363      	strh	r3, [r4, r5]
10001f30:	4b3a      	ldr	r3, [pc, #232]	; (1000201c <irq_add_shared_handler+0x1d4>)
10001f32:	3502      	adds	r5, #2
10001f34:	1965      	adds	r5, r4, r5
10001f36:	3b04      	subs	r3, #4
10001f38:	1b5b      	subs	r3, r3, r5
10001f3a:	051b      	lsls	r3, r3, #20
10001f3c:	4d35      	ldr	r5, [pc, #212]	; (10002014 <irq_add_shared_handler+0x1cc>)
10001f3e:	0d5b      	lsrs	r3, r3, #21
10001f40:	432b      	orrs	r3, r5
10001f42:	8073      	strh	r3, [r6, #2]
10001f44:	2604      	movs	r6, #4
10001f46:	46b4      	mov	ip, r6
10001f48:	44e0      	add	r8, ip
10001f4a:	4444      	add	r4, r8
10001f4c:	1f13      	subs	r3, r2, #4
10001f4e:	1b1b      	subs	r3, r3, r4
10001f50:	464c      	mov	r4, r9
10001f52:	71a1      	strb	r1, [r4, #6]
10001f54:	9902      	ldr	r1, [sp, #8]
10001f56:	051b      	lsls	r3, r3, #20
10001f58:	60a1      	str	r1, [r4, #8]
10001f5a:	4649      	mov	r1, r9
10001f5c:	0d5b      	lsrs	r3, r3, #21
10001f5e:	432b      	orrs	r3, r5
10001f60:	80a3      	strh	r3, [r4, #4]
10001f62:	4b31      	ldr	r3, [pc, #196]	; (10002028 <irq_add_shared_handler+0x1e0>)
10001f64:	71e7      	strb	r7, [r4, #7]
10001f66:	4301      	orrs	r1, r0
10001f68:	6013      	str	r3, [r2, #0]
10001f6a:	e7bd      	b.n	10001ee8 <irq_add_shared_handler+0xa0>
10001f6c:	0058      	lsls	r0, r3, #1
10001f6e:	18c0      	adds	r0, r0, r3
10001f70:	0080      	lsls	r0, r0, #2
10001f72:	1820      	adds	r0, r4, r0
10001f74:	79c6      	ldrb	r6, [r0, #7]
10001f76:	42be      	cmp	r6, r7
10001f78:	d92c      	bls.n	10001fd4 <irq_add_shared_handler+0x18c>
10001f7a:	0002      	movs	r2, r0
10001f7c:	2306      	movs	r3, #6
10001f7e:	56d3      	ldrsb	r3, [r2, r3]
10001f80:	2b00      	cmp	r3, #0
10001f82:	daf3      	bge.n	10001f6c <irq_add_shared_handler+0x124>
10001f84:	1d10      	adds	r0, r2, #4
10001f86:	4682      	mov	sl, r0
10001f88:	20bd      	movs	r0, #189	; 0xbd
10001f8a:	0200      	lsls	r0, r0, #8
10001f8c:	4680      	mov	r8, r0
10001f8e:	2604      	movs	r6, #4
10001f90:	4276      	negs	r6, r6
10001f92:	46b4      	mov	ip, r6
10001f94:	44e1      	add	r9, ip
10001f96:	4650      	mov	r0, sl
10001f98:	464e      	mov	r6, r9
10001f9a:	1a36      	subs	r6, r6, r0
10001f9c:	0530      	lsls	r0, r6, #20
10001f9e:	0d40      	lsrs	r0, r0, #21
10001fa0:	4682      	mov	sl, r0
10001fa2:	4656      	mov	r6, sl
10001fa4:	481b      	ldr	r0, [pc, #108]	; (10002014 <irq_add_shared_handler+0x1cc>)
10001fa6:	7195      	strb	r5, [r2, #6]
10001fa8:	4306      	orrs	r6, r0
10001faa:	8096      	strh	r6, [r2, #4]
10001fac:	9a03      	ldr	r2, [sp, #12]
10001fae:	4694      	mov	ip, r2
10001fb0:	4465      	add	r5, ip
10001fb2:	4a1d      	ldr	r2, [pc, #116]	; (10002028 <irq_add_shared_handler+0x1e0>)
10001fb4:	00ad      	lsls	r5, r5, #2
10001fb6:	1964      	adds	r4, r4, r5
10001fb8:	6022      	str	r2, [r4, #0]
10001fba:	4642      	mov	r2, r8
10001fbc:	71a3      	strb	r3, [r4, #6]
10001fbe:	9b02      	ldr	r3, [sp, #8]
10001fc0:	80a2      	strh	r2, [r4, #4]
10001fc2:	71e7      	strb	r7, [r4, #7]
10001fc4:	60a3      	str	r3, [r4, #8]
10001fc6:	e78f      	b.n	10001ee8 <irq_add_shared_handler+0xa0>
10001fc8:	f003 fde2 	bl	10005b90 <hard_assertion_failure>
10001fcc:	2500      	movs	r5, #0
10001fce:	4653      	mov	r3, sl
10001fd0:	575d      	ldrsb	r5, [r3, r5]
10001fd2:	e753      	b.n	10001e7c <irq_add_shared_handler+0x34>
10001fd4:	1d10      	adds	r0, r2, #4
10001fd6:	4682      	mov	sl, r0
10001fd8:	8890      	ldrh	r0, [r2, #4]
10001fda:	0540      	lsls	r0, r0, #21
10001fdc:	1500      	asrs	r0, r0, #20
10001fde:	4684      	mov	ip, r0
10001fe0:	4640      	mov	r0, r8
10001fe2:	44d4      	add	ip, sl
10001fe4:	4666      	mov	r6, ip
10001fe6:	3004      	adds	r0, #4
10001fe8:	1820      	adds	r0, r4, r0
10001fea:	1a30      	subs	r0, r6, r0
10001fec:	26e0      	movs	r6, #224	; 0xe0
10001fee:	0500      	lsls	r0, r0, #20
10001ff0:	0d40      	lsrs	r0, r0, #21
10001ff2:	0236      	lsls	r6, r6, #8
10001ff4:	4330      	orrs	r0, r6
10001ff6:	4680      	mov	r8, r0
10001ff8:	e7c9      	b.n	10001f8e <irq_add_shared_handler+0x146>
10001ffa:	f003 fdc9 	bl	10005b90 <hard_assertion_failure>
10001ffe:	e756      	b.n	10001eae <irq_add_shared_handler+0x66>
10002000:	d0000124 	.word	0xd0000124
10002004:	20012dbd 	.word	0x20012dbd
10002008:	20000394 	.word	0x20000394
1000200c:	e000ed00 	.word	0xe000ed00
10002010:	100001cd 	.word	0x100001cd
10002014:	ffffe000 	.word	0xffffe000
10002018:	ffffa100 	.word	0xffffa100
1000201c:	200003c4 	.word	0x200003c4
10002020:	ffffbd00 	.word	0xffffbd00
10002024:	0000aaaa 	.word	0x0000aaaa
10002028:	47804801 	.word	0x47804801

1000202c <irq_remove_handler>:
1000202c:	b5f0      	push	{r4, r5, r6, r7, lr}
1000202e:	46de      	mov	lr, fp
10002030:	4657      	mov	r7, sl
10002032:	464e      	mov	r6, r9
10002034:	4645      	mov	r5, r8
10002036:	b5e0      	push	{r5, r6, r7, lr}
10002038:	000c      	movs	r4, r1
1000203a:	b083      	sub	sp, #12
1000203c:	f3ef 8a10 	mrs	sl, PRIMASK
10002040:	b672      	cpsid	i
10002042:	4a5a      	ldr	r2, [pc, #360]	; (100021ac <irq_remove_handler+0x180>)
10002044:	6813      	ldr	r3, [r2, #0]
10002046:	2b00      	cmp	r3, #0
10002048:	d0fc      	beq.n	10002044 <irq_remove_handler+0x18>
1000204a:	f3bf 8f5f 	dmb	sy
1000204e:	2210      	movs	r2, #16
10002050:	4691      	mov	r9, r2
10002052:	4481      	add	r9, r0
10002054:	464a      	mov	r2, r9
10002056:	4b56      	ldr	r3, [pc, #344]	; (100021b0 <irq_remove_handler+0x184>)
10002058:	0096      	lsls	r6, r2, #2
1000205a:	689b      	ldr	r3, [r3, #8]
1000205c:	599d      	ldr	r5, [r3, r6]
1000205e:	4b55      	ldr	r3, [pc, #340]	; (100021b4 <irq_remove_handler+0x188>)
10002060:	4698      	mov	r8, r3
10002062:	429d      	cmp	r5, r3
10002064:	d005      	beq.n	10002072 <irq_remove_handler+0x46>
10002066:	42a5      	cmp	r5, r4
10002068:	d016      	beq.n	10002098 <irq_remove_handler+0x6c>
1000206a:	4f53      	ldr	r7, [pc, #332]	; (100021b8 <irq_remove_handler+0x18c>)
1000206c:	1beb      	subs	r3, r5, r7
1000206e:	2b2f      	cmp	r3, #47	; 0x2f
10002070:	d914      	bls.n	1000209c <irq_remove_handler+0x70>
10002072:	4b4f      	ldr	r3, [pc, #316]	; (100021b0 <irq_remove_handler+0x184>)
10002074:	689b      	ldr	r3, [r3, #8]
10002076:	519d      	str	r5, [r3, r6]
10002078:	f3bf 8f5f 	dmb	sy
1000207c:	f3bf 8f5f 	dmb	sy
10002080:	2200      	movs	r2, #0
10002082:	4b4a      	ldr	r3, [pc, #296]	; (100021ac <irq_remove_handler+0x180>)
10002084:	601a      	str	r2, [r3, #0]
10002086:	f38a 8810 	msr	PRIMASK, sl
1000208a:	b003      	add	sp, #12
1000208c:	bcf0      	pop	{r4, r5, r6, r7}
1000208e:	46bb      	mov	fp, r7
10002090:	46b2      	mov	sl, r6
10002092:	46a9      	mov	r9, r5
10002094:	46a0      	mov	r8, r4
10002096:	bdf0      	pop	{r4, r5, r6, r7, pc}
10002098:	001d      	movs	r5, r3
1000209a:	e7ea      	b.n	10002072 <irq_remove_handler+0x46>
1000209c:	2301      	movs	r3, #1
1000209e:	4083      	lsls	r3, r0
100020a0:	469b      	mov	fp, r3
100020a2:	465a      	mov	r2, fp
100020a4:	4b45      	ldr	r3, [pc, #276]	; (100021bc <irq_remove_handler+0x190>)
100020a6:	681b      	ldr	r3, [r3, #0]
100020a8:	401a      	ands	r2, r3
100020aa:	9200      	str	r2, [sp, #0]
100020ac:	465a      	mov	r2, fp
100020ae:	4b44      	ldr	r3, [pc, #272]	; (100021c0 <irq_remove_handler+0x194>)
100020b0:	601a      	str	r2, [r3, #0]
100020b2:	f3bf 8f5f 	dmb	sy
100020b6:	f7fe f8d6 	bl	10000266 <__get_current_exception>
100020ba:	9001      	str	r0, [sp, #4]
100020bc:	2800      	cmp	r0, #0
100020be:	d003      	beq.n	100020c8 <irq_remove_handler+0x9c>
100020c0:	4581      	cmp	r9, r0
100020c2:	d001      	beq.n	100020c8 <irq_remove_handler+0x9c>
100020c4:	f003 fd64 	bl	10005b90 <hard_assertion_failure>
100020c8:	2301      	movs	r3, #1
100020ca:	002a      	movs	r2, r5
100020cc:	439a      	bics	r2, r3
100020ce:	6893      	ldr	r3, [r2, #8]
100020d0:	429c      	cmp	r4, r3
100020d2:	d108      	bne.n	100020e6 <irq_remove_handler+0xba>
100020d4:	e05f      	b.n	10002196 <irq_remove_handler+0x16a>
100020d6:	004b      	lsls	r3, r1, #1
100020d8:	185b      	adds	r3, r3, r1
100020da:	009b      	lsls	r3, r3, #2
100020dc:	18fb      	adds	r3, r7, r3
100020de:	6899      	ldr	r1, [r3, #8]
100020e0:	42a1      	cmp	r1, r4
100020e2:	d011      	beq.n	10002108 <irq_remove_handler+0xdc>
100020e4:	001a      	movs	r2, r3
100020e6:	2106      	movs	r1, #6
100020e8:	5651      	ldrsb	r1, [r2, r1]
100020ea:	2900      	cmp	r1, #0
100020ec:	daf3      	bge.n	100020d6 <irq_remove_handler+0xaa>
100020ee:	9b00      	ldr	r3, [sp, #0]
100020f0:	2b00      	cmp	r3, #0
100020f2:	d005      	beq.n	10002100 <irq_remove_handler+0xd4>
100020f4:	465a      	mov	r2, fp
100020f6:	4b33      	ldr	r3, [pc, #204]	; (100021c4 <irq_remove_handler+0x198>)
100020f8:	601a      	str	r2, [r3, #0]
100020fa:	4b30      	ldr	r3, [pc, #192]	; (100021bc <irq_remove_handler+0x190>)
100020fc:	601a      	str	r2, [r3, #0]
100020fe:	e7b8      	b.n	10002072 <irq_remove_handler+0x46>
10002100:	465a      	mov	r2, fp
10002102:	4b2f      	ldr	r3, [pc, #188]	; (100021c0 <irq_remove_handler+0x194>)
10002104:	601a      	str	r2, [r3, #0]
10002106:	e7b4      	b.n	10002072 <irq_remove_handler+0x46>
10002108:	2106      	movs	r1, #6
1000210a:	5659      	ldrsb	r1, [r3, r1]
1000210c:	2900      	cmp	r1, #0
1000210e:	db21      	blt.n	10002154 <irq_remove_handler+0x128>
10002110:	004a      	lsls	r2, r1, #1
10002112:	1850      	adds	r0, r2, r1
10002114:	0080      	lsls	r0, r0, #2
10002116:	183c      	adds	r4, r7, r0
10002118:	4680      	mov	r8, r0
1000211a:	68a0      	ldr	r0, [r4, #8]
1000211c:	6098      	str	r0, [r3, #8]
1000211e:	79e0      	ldrb	r0, [r4, #7]
10002120:	71d8      	strb	r0, [r3, #7]
10002122:	2006      	movs	r0, #6
10002124:	5620      	ldrsb	r0, [r4, r0]
10002126:	7198      	strb	r0, [r3, #6]
10002128:	2800      	cmp	r0, #0
1000212a:	db24      	blt.n	10002176 <irq_remove_handler+0x14a>
1000212c:	88a4      	ldrh	r4, [r4, #4]
1000212e:	1af8      	subs	r0, r7, r3
10002130:	0564      	lsls	r4, r4, #21
10002132:	1524      	asrs	r4, r4, #20
10002134:	4444      	add	r4, r8
10002136:	1900      	adds	r0, r0, r4
10002138:	24e0      	movs	r4, #224	; 0xe0
1000213a:	0500      	lsls	r0, r0, #20
1000213c:	0d40      	lsrs	r0, r0, #21
1000213e:	0224      	lsls	r4, r4, #8
10002140:	4320      	orrs	r0, r4
10002142:	8098      	strh	r0, [r3, #4]
10002144:	1852      	adds	r2, r2, r1
10002146:	4b20      	ldr	r3, [pc, #128]	; (100021c8 <irq_remove_handler+0x19c>)
10002148:	0092      	lsls	r2, r2, #2
1000214a:	18bf      	adds	r7, r7, r2
1000214c:	781a      	ldrb	r2, [r3, #0]
1000214e:	7019      	strb	r1, [r3, #0]
10002150:	71ba      	strb	r2, [r7, #6]
10002152:	e7cc      	b.n	100020ee <irq_remove_handler+0xc2>
10002154:	9901      	ldr	r1, [sp, #4]
10002156:	2900      	cmp	r1, #0
10002158:	d110      	bne.n	1000217c <irq_remove_handler+0x150>
1000215a:	31ff      	adds	r1, #255	; 0xff
1000215c:	7191      	strb	r1, [r2, #6]
1000215e:	491b      	ldr	r1, [pc, #108]	; (100021cc <irq_remove_handler+0x1a0>)
10002160:	8091      	strh	r1, [r2, #4]
10002162:	4919      	ldr	r1, [pc, #100]	; (100021c8 <irq_remove_handler+0x19c>)
10002164:	780a      	ldrb	r2, [r1, #0]
10002166:	719a      	strb	r2, [r3, #6]
10002168:	4a19      	ldr	r2, [pc, #100]	; (100021d0 <irq_remove_handler+0x1a4>)
1000216a:	1bdb      	subs	r3, r3, r7
1000216c:	415b      	adcs	r3, r3
1000216e:	435a      	muls	r2, r3
10002170:	0d12      	lsrs	r2, r2, #20
10002172:	700a      	strb	r2, [r1, #0]
10002174:	e7bb      	b.n	100020ee <irq_remove_handler+0xc2>
10002176:	20bd      	movs	r0, #189	; 0xbd
10002178:	0200      	lsls	r0, r0, #8
1000217a:	e7e2      	b.n	10002142 <irq_remove_handler+0x116>
1000217c:	4a15      	ldr	r2, [pc, #84]	; (100021d4 <irq_remove_handler+0x1a8>)
1000217e:	4916      	ldr	r1, [pc, #88]	; (100021d8 <irq_remove_handler+0x1ac>)
10002180:	1ad2      	subs	r2, r2, r3
10002182:	3a08      	subs	r2, #8
10002184:	0250      	lsls	r0, r2, #9
10002186:	0d40      	lsrs	r0, r0, #21
10002188:	4301      	orrs	r1, r0
1000218a:	8099      	strh	r1, [r3, #4]
1000218c:	4913      	ldr	r1, [pc, #76]	; (100021dc <irq_remove_handler+0x1b0>)
1000218e:	0852      	lsrs	r2, r2, #1
10002190:	430a      	orrs	r2, r1
10002192:	80da      	strh	r2, [r3, #6]
10002194:	e7ab      	b.n	100020ee <irq_remove_handler+0xc2>
10002196:	2106      	movs	r1, #6
10002198:	5651      	ldrsb	r1, [r2, r1]
1000219a:	0013      	movs	r3, r2
1000219c:	2900      	cmp	r1, #0
1000219e:	dab7      	bge.n	10002110 <irq_remove_handler+0xe4>
100021a0:	9a01      	ldr	r2, [sp, #4]
100021a2:	2a00      	cmp	r2, #0
100021a4:	d1ea      	bne.n	1000217c <irq_remove_handler+0x150>
100021a6:	4645      	mov	r5, r8
100021a8:	e7db      	b.n	10002162 <irq_remove_handler+0x136>
100021aa:	46c0      	nop			; (mov r8, r8)
100021ac:	d0000124 	.word	0xd0000124
100021b0:	e000ed00 	.word	0xe000ed00
100021b4:	100001cd 	.word	0x100001cd
100021b8:	20000394 	.word	0x20000394
100021bc:	e000e100 	.word	0xe000e100
100021c0:	e000e180 	.word	0xe000e180
100021c4:	e000e280 	.word	0xe000e280
100021c8:	20012dbd 	.word	0x20012dbd
100021cc:	ffffbd00 	.word	0xffffbd00
100021d0:	0000aaaa 	.word	0x0000aaaa
100021d4:	200003ce 	.word	0x200003ce
100021d8:	fffff000 	.word	0xfffff000
100021dc:	fffff800 	.word	0xfffff800

100021e0 <irq_set_priority>:
100021e0:	2303      	movs	r3, #3
100021e2:	b510      	push	{r4, lr}
100021e4:	0004      	movs	r4, r0
100021e6:	4a07      	ldr	r2, [pc, #28]	; (10002204 <irq_set_priority+0x24>)
100021e8:	4018      	ands	r0, r3
100021ea:	4694      	mov	ip, r2
100021ec:	00c0      	lsls	r0, r0, #3
100021ee:	439c      	bics	r4, r3
100021f0:	33fc      	adds	r3, #252	; 0xfc
100021f2:	4083      	lsls	r3, r0
100021f4:	4464      	add	r4, ip
100021f6:	6822      	ldr	r2, [r4, #0]
100021f8:	4081      	lsls	r1, r0
100021fa:	439a      	bics	r2, r3
100021fc:	0013      	movs	r3, r2
100021fe:	430b      	orrs	r3, r1
10002200:	6023      	str	r3, [r4, #0]
10002202:	bd10      	pop	{r4, pc}
10002204:	e000e400 	.word	0xe000e400

10002208 <irq_add_tail_to_free_list>:
10002208:	b5f8      	push	{r3, r4, r5, r6, r7, lr}
1000220a:	2501      	movs	r5, #1
1000220c:	0004      	movs	r4, r0
1000220e:	4305      	orrs	r5, r0
10002210:	f7fe f829 	bl	10000266 <__get_current_exception>
10002214:	f3ef 8c10 	mrs	ip, PRIMASK
10002218:	b672      	cpsid	i
1000221a:	4a21      	ldr	r2, [pc, #132]	; (100022a0 <irq_add_tail_to_free_list+0x98>)
1000221c:	6813      	ldr	r3, [r2, #0]
1000221e:	2b00      	cmp	r3, #0
10002220:	d0fc      	beq.n	1000221c <irq_add_tail_to_free_list+0x14>
10002222:	f3bf 8f5f 	dmb	sy
10002226:	4e1f      	ldr	r6, [pc, #124]	; (100022a4 <irq_add_tail_to_free_list+0x9c>)
10002228:	0021      	movs	r1, r4
1000222a:	68b7      	ldr	r7, [r6, #8]
1000222c:	4a1e      	ldr	r2, [pc, #120]	; (100022a8 <irq_add_tail_to_free_list+0xa0>)
1000222e:	4b1f      	ldr	r3, [pc, #124]	; (100022ac <irq_add_tail_to_free_list+0xa4>)
10002230:	1a89      	subs	r1, r1, r2
10002232:	4149      	adcs	r1, r1
10002234:	434b      	muls	r3, r1
10002236:	0d1b      	lsrs	r3, r3, #20
10002238:	b259      	sxtb	r1, r3
1000223a:	0083      	lsls	r3, r0, #2
1000223c:	58f8      	ldr	r0, [r7, r3]
1000223e:	42a8      	cmp	r0, r5
10002240:	d01c      	beq.n	1000227c <irq_add_tail_to_free_list+0x74>
10002242:	2306      	movs	r3, #6
10002244:	56d3      	ldrsb	r3, [r2, r3]
10002246:	428b      	cmp	r3, r1
10002248:	d01c      	beq.n	10002284 <irq_add_tail_to_free_list+0x7c>
1000224a:	2312      	movs	r3, #18
1000224c:	56d3      	ldrsb	r3, [r2, r3]
1000224e:	428b      	cmp	r3, r1
10002250:	d022      	beq.n	10002298 <irq_add_tail_to_free_list+0x90>
10002252:	231e      	movs	r3, #30
10002254:	56d3      	ldrsb	r3, [r2, r3]
10002256:	428b      	cmp	r3, r1
10002258:	d020      	beq.n	1000229c <irq_add_tail_to_free_list+0x94>
1000225a:	232a      	movs	r3, #42	; 0x2a
1000225c:	56d3      	ldrsb	r3, [r2, r3]
1000225e:	2003      	movs	r0, #3
10002260:	428b      	cmp	r3, r1
10002262:	d010      	beq.n	10002286 <irq_add_tail_to_free_list+0x7e>
10002264:	4b12      	ldr	r3, [pc, #72]	; (100022b0 <irq_add_tail_to_free_list+0xa8>)
10002266:	781a      	ldrb	r2, [r3, #0]
10002268:	7019      	strb	r1, [r3, #0]
1000226a:	71a2      	strb	r2, [r4, #6]
1000226c:	f3bf 8f5f 	dmb	sy
10002270:	2200      	movs	r2, #0
10002272:	4b0b      	ldr	r3, [pc, #44]	; (100022a0 <irq_add_tail_to_free_list+0x98>)
10002274:	601a      	str	r2, [r3, #0]
10002276:	f38c 8810 	msr	PRIMASK, ip
1000227a:	bdf8      	pop	{r3, r4, r5, r6, r7, pc}
1000227c:	68b2      	ldr	r2, [r6, #8]
1000227e:	480d      	ldr	r0, [pc, #52]	; (100022b4 <irq_add_tail_to_free_list+0xac>)
10002280:	50d0      	str	r0, [r2, r3]
10002282:	e7ef      	b.n	10002264 <irq_add_tail_to_free_list+0x5c>
10002284:	2000      	movs	r0, #0
10002286:	0043      	lsls	r3, r0, #1
10002288:	181b      	adds	r3, r3, r0
1000228a:	009b      	lsls	r3, r3, #2
1000228c:	18d2      	adds	r2, r2, r3
1000228e:	23ff      	movs	r3, #255	; 0xff
10002290:	7193      	strb	r3, [r2, #6]
10002292:	4b09      	ldr	r3, [pc, #36]	; (100022b8 <irq_add_tail_to_free_list+0xb0>)
10002294:	8093      	strh	r3, [r2, #4]
10002296:	e7e5      	b.n	10002264 <irq_add_tail_to_free_list+0x5c>
10002298:	2001      	movs	r0, #1
1000229a:	e7f4      	b.n	10002286 <irq_add_tail_to_free_list+0x7e>
1000229c:	2002      	movs	r0, #2
1000229e:	e7f2      	b.n	10002286 <irq_add_tail_to_free_list+0x7e>
100022a0:	d0000124 	.word	0xd0000124
100022a4:	e000ed00 	.word	0xe000ed00
100022a8:	20000394 	.word	0x20000394
100022ac:	0000aaaa 	.word	0x0000aaaa
100022b0:	20012dbd 	.word	0x20012dbd
100022b4:	100001cd 	.word	0x100001cd
100022b8:	ffffbd00 	.word	0xffffbd00

100022bc <irq_init_priorities>:
100022bc:	4b05      	ldr	r3, [pc, #20]	; (100022d4 <irq_init_priorities+0x18>)
100022be:	4a06      	ldr	r2, [pc, #24]	; (100022d8 <irq_init_priorities+0x1c>)
100022c0:	6013      	str	r3, [r2, #0]
100022c2:	4a06      	ldr	r2, [pc, #24]	; (100022dc <irq_init_priorities+0x20>)
100022c4:	6013      	str	r3, [r2, #0]
100022c6:	6053      	str	r3, [r2, #4]
100022c8:	6093      	str	r3, [r2, #8]
100022ca:	60d3      	str	r3, [r2, #12]
100022cc:	6113      	str	r3, [r2, #16]
100022ce:	6153      	str	r3, [r2, #20]
100022d0:	6193      	str	r3, [r2, #24]
100022d2:	4770      	bx	lr
100022d4:	80808080 	.word	0x80808080
100022d8:	e000e400 	.word	0xe000e400
100022dc:	e000e404 	.word	0xe000e404

100022e0 <user_irq_claim_unused>:
100022e0:	23d0      	movs	r3, #208	; 0xd0
100022e2:	b500      	push	{lr}
100022e4:	061b      	lsls	r3, r3, #24
100022e6:	681b      	ldr	r3, [r3, #0]
100022e8:	0001      	movs	r1, r0
100022ea:	4807      	ldr	r0, [pc, #28]	; (10002308 <user_irq_claim_unused+0x28>)
100022ec:	b083      	sub	sp, #12
100022ee:	18c0      	adds	r0, r0, r3
100022f0:	4b06      	ldr	r3, [pc, #24]	; (1000230c <user_irq_claim_unused+0x2c>)
100022f2:	2200      	movs	r2, #0
100022f4:	9300      	str	r3, [sp, #0]
100022f6:	2305      	movs	r3, #5
100022f8:	f7ff fc72 	bl	10001be0 <hw_claim_unused_from_range>
100022fc:	2800      	cmp	r0, #0
100022fe:	db01      	blt.n	10002304 <user_irq_claim_unused+0x24>
10002300:	231f      	movs	r3, #31
10002302:	1a18      	subs	r0, r3, r0
10002304:	b003      	add	sp, #12
10002306:	bd00      	pop	{pc}
10002308:	20012cd8 	.word	0x20012cd8
1000230c:	1000b3d8 	.word	0x1000b3d8

10002310 <lock_init>:
10002310:	4b02      	ldr	r3, [pc, #8]	; (1000231c <lock_init+0xc>)
10002312:	469c      	mov	ip, r3
10002314:	4461      	add	r1, ip
10002316:	0089      	lsls	r1, r1, #2
10002318:	6001      	str	r1, [r0, #0]
1000231a:	4770      	bx	lr
1000231c:	34000040 	.word	0x34000040

10002320 <timer_pool_entry_comparator>:
10002320:	6883      	ldr	r3, [r0, #8]
10002322:	480b      	ldr	r0, [pc, #44]	; (10002350 <timer_pool_entry_comparator+0x30>)
10002324:	b510      	push	{r4, lr}
10002326:	4684      	mov	ip, r0
10002328:	4461      	add	r1, ip
1000232a:	4462      	add	r2, ip
1000232c:	0109      	lsls	r1, r1, #4
1000232e:	0112      	lsls	r2, r2, #4
10002330:	189a      	adds	r2, r3, r2
10002332:	1859      	adds	r1, r3, r1
10002334:	6854      	ldr	r4, [r2, #4]
10002336:	684b      	ldr	r3, [r1, #4]
10002338:	2001      	movs	r0, #1
1000233a:	429c      	cmp	r4, r3
1000233c:	d801      	bhi.n	10002342 <timer_pool_entry_comparator+0x22>
1000233e:	d002      	beq.n	10002346 <timer_pool_entry_comparator+0x26>
10002340:	2000      	movs	r0, #0
10002342:	b2c0      	uxtb	r0, r0
10002344:	bd10      	pop	{r4, pc}
10002346:	6812      	ldr	r2, [r2, #0]
10002348:	680b      	ldr	r3, [r1, #0]
1000234a:	429a      	cmp	r2, r3
1000234c:	d8f9      	bhi.n	10002342 <timer_pool_entry_comparator+0x22>
1000234e:	e7f7      	b.n	10002340 <timer_pool_entry_comparator+0x20>
10002350:	0fffffff 	.word	0x0fffffff

10002354 <sleep_until_callback>:
10002354:	4807      	ldr	r0, [pc, #28]	; (10002374 <sleep_until_callback+0x20>)
10002356:	b510      	push	{r4, lr}
10002358:	6802      	ldr	r2, [r0, #0]
1000235a:	f3ef 8110 	mrs	r1, PRIMASK
1000235e:	b672      	cpsid	i
10002360:	6813      	ldr	r3, [r2, #0]
10002362:	2b00      	cmp	r3, #0
10002364:	d0fc      	beq.n	10002360 <sleep_until_callback+0xc>
10002366:	f3bf 8f5f 	dmb	sy
1000236a:	f001 f871 	bl	10003450 <vPortLockInternalSpinUnlockWithNotify>
1000236e:	2000      	movs	r0, #0
10002370:	2100      	movs	r1, #0
10002372:	bd10      	pop	{r4, pc}
10002374:	2000afa4 	.word	0x2000afa4

10002378 <add_alarm_under_lock.isra.0>:
10002378:	b5f8      	push	{r3, r4, r5, r6, r7, lr}
1000237a:	4657      	mov	r7, sl
1000237c:	464e      	mov	r6, r9
1000237e:	4645      	mov	r5, r8
10002380:	46de      	mov	lr, fp
10002382:	b5e0      	push	{r5, r6, r7, lr}
10002384:	4699      	mov	r9, r3
10002386:	ab0c      	add	r3, sp, #48	; 0x30
10002388:	781c      	ldrb	r4, [r3, #0]
1000238a:	ab0d      	add	r3, sp, #52	; 0x34
1000238c:	781b      	ldrb	r3, [r3, #0]
1000238e:	0006      	movs	r6, r0
10002390:	4690      	mov	r8, r2
10002392:	469a      	mov	sl, r3
10002394:	6807      	ldr	r7, [r0, #0]
10002396:	2c00      	cmp	r4, #0
10002398:	d111      	bne.n	100023be <add_alarm_under_lock.isra.0+0x46>
1000239a:	7bbc      	ldrb	r4, [r7, #14]
1000239c:	2c00      	cmp	r4, #0
1000239e:	d042      	beq.n	10002426 <add_alarm_under_lock.isra.0+0xae>
100023a0:	0065      	lsls	r5, r4, #1
100023a2:	683b      	ldr	r3, [r7, #0]
100023a4:	192d      	adds	r5, r5, r4
100023a6:	3d03      	subs	r5, #3
100023a8:	1959      	adds	r1, r3, r5
100023aa:	784b      	ldrb	r3, [r1, #1]
100023ac:	73bb      	strb	r3, [r7, #14]
100023ae:	2b00      	cmp	r3, #0
100023b0:	d100      	bne.n	100023b4 <add_alarm_under_lock.isra.0+0x3c>
100023b2:	73fb      	strb	r3, [r7, #15]
100023b4:	2300      	movs	r3, #0
100023b6:	708b      	strb	r3, [r1, #2]
100023b8:	704b      	strb	r3, [r1, #1]
100023ba:	700b      	strb	r3, [r1, #0]
100023bc:	e004      	b.n	100023c8 <add_alarm_under_lock.isra.0+0x50>
100023be:	0065      	lsls	r5, r4, #1
100023c0:	683b      	ldr	r3, [r7, #0]
100023c2:	192d      	adds	r5, r5, r4
100023c4:	3d03      	subs	r5, #3
100023c6:	1959      	adds	r1, r3, r5
100023c8:	68b2      	ldr	r2, [r6, #8]
100023ca:	4b2a      	ldr	r3, [pc, #168]	; (10002474 <add_alarm_under_lock.isra.0+0xfc>)
100023cc:	4694      	mov	ip, r2
100023ce:	4642      	mov	r2, r8
100023d0:	18e3      	adds	r3, r4, r3
100023d2:	011b      	lsls	r3, r3, #4
100023d4:	4463      	add	r3, ip
100023d6:	601a      	str	r2, [r3, #0]
100023d8:	464a      	mov	r2, r9
100023da:	605a      	str	r2, [r3, #4]
100023dc:	9a0a      	ldr	r2, [sp, #40]	; 0x28
100023de:	609a      	str	r2, [r3, #8]
100023e0:	9a0b      	ldr	r2, [sp, #44]	; 0x2c
100023e2:	60da      	str	r2, [r3, #12]
100023e4:	2300      	movs	r3, #0
100023e6:	708b      	strb	r3, [r1, #2]
100023e8:	704b      	strb	r3, [r1, #1]
100023ea:	700b      	strb	r3, [r1, #0]
100023ec:	7b7b      	ldrb	r3, [r7, #13]
100023ee:	469b      	mov	fp, r3
100023f0:	2b00      	cmp	r3, #0
100023f2:	d02b      	beq.n	1000244c <add_alarm_under_lock.isra.0+0xd4>
100023f4:	0022      	movs	r2, r4
100023f6:	4659      	mov	r1, fp
100023f8:	68b8      	ldr	r0, [r7, #8]
100023fa:	687b      	ldr	r3, [r7, #4]
100023fc:	4798      	blx	r3
100023fe:	683a      	ldr	r2, [r7, #0]
10002400:	2800      	cmp	r0, #0
10002402:	d016      	beq.n	10002432 <add_alarm_under_lock.isra.0+0xba>
10002404:	465b      	mov	r3, fp
10002406:	4658      	mov	r0, fp
10002408:	005b      	lsls	r3, r3, #1
1000240a:	445b      	add	r3, fp
1000240c:	1955      	adds	r5, r2, r5
1000240e:	3b03      	subs	r3, #3
10002410:	70a8      	strb	r0, [r5, #2]
10002412:	18d1      	adds	r1, r2, r3
10002414:	5cd3      	ldrb	r3, [r2, r3]
10002416:	2b00      	cmp	r3, #0
10002418:	d000      	beq.n	1000241c <add_alarm_under_lock.isra.0+0xa4>
1000241a:	706b      	strb	r3, [r5, #1]
1000241c:	465b      	mov	r3, fp
1000241e:	700c      	strb	r4, [r1, #0]
10002420:	737b      	strb	r3, [r7, #13]
10002422:	45a3      	cmp	fp, r4
10002424:	d013      	beq.n	1000244e <add_alarm_under_lock.isra.0+0xd6>
10002426:	bcf0      	pop	{r4, r5, r6, r7}
10002428:	46bb      	mov	fp, r7
1000242a:	46b2      	mov	sl, r6
1000242c:	46a9      	mov	r9, r5
1000242e:	46a0      	mov	r8, r4
10002430:	bdf8      	pop	{r3, r4, r5, r6, r7, pc}
10002432:	465b      	mov	r3, fp
10002434:	005b      	lsls	r3, r3, #1
10002436:	445b      	add	r3, fp
10002438:	3b03      	subs	r3, #3
1000243a:	18d3      	adds	r3, r2, r3
1000243c:	709c      	strb	r4, [r3, #2]
1000243e:	1951      	adds	r1, r2, r5
10002440:	5d52      	ldrb	r2, [r2, r5]
10002442:	2a00      	cmp	r2, #0
10002444:	d000      	beq.n	10002448 <add_alarm_under_lock.isra.0+0xd0>
10002446:	705a      	strb	r2, [r3, #1]
10002448:	465b      	mov	r3, fp
1000244a:	700b      	strb	r3, [r1, #0]
1000244c:	737c      	strb	r4, [r7, #13]
1000244e:	4642      	mov	r2, r8
10002450:	464b      	mov	r3, r9
10002452:	7d30      	ldrb	r0, [r6, #20]
10002454:	f000 fba4 	bl	10002ba0 <hardware_alarm_set_target>
10002458:	1e05      	subs	r5, r0, #0
1000245a:	d006      	beq.n	1000246a <add_alarm_under_lock.isra.0+0xf2>
1000245c:	4653      	mov	r3, sl
1000245e:	2b00      	cmp	r3, #0
10002460:	d103      	bne.n	1000246a <add_alarm_under_lock.isra.0+0xf2>
10002462:	0021      	movs	r1, r4
10002464:	6830      	ldr	r0, [r6, #0]
10002466:	f000 fdbd 	bl	10002fe4 <ph_remove_and_free_node>
1000246a:	9b0e      	ldr	r3, [sp, #56]	; 0x38
1000246c:	2b00      	cmp	r3, #0
1000246e:	d0da      	beq.n	10002426 <add_alarm_under_lock.isra.0+0xae>
10002470:	701d      	strb	r5, [r3, #0]
10002472:	e7d8      	b.n	10002426 <add_alarm_under_lock.isra.0+0xae>
10002474:	0fffffff 	.word	0x0fffffff

10002478 <alarm_pool_alarm_callback>:
10002478:	b5f0      	push	{r4, r5, r6, r7, lr}
1000247a:	46de      	mov	lr, fp
1000247c:	464e      	mov	r6, r9
1000247e:	4657      	mov	r7, sl
10002480:	4645      	mov	r5, r8
10002482:	2300      	movs	r3, #0
10002484:	b5e0      	push	{r5, r6, r7, lr}
10002486:	b08d      	sub	sp, #52	; 0x34
10002488:	930a      	str	r3, [sp, #40]	; 0x28
1000248a:	4b6b      	ldr	r3, [pc, #428]	; (10002638 <alarm_pool_alarm_callback+0x1c0>)
1000248c:	0082      	lsls	r2, r0, #2
1000248e:	58d3      	ldr	r3, [r2, r3]
10002490:	900b      	str	r0, [sp, #44]	; 0x2c
10002492:	4699      	mov	r9, r3
10002494:	2300      	movs	r3, #0
10002496:	469b      	mov	fp, r3
10002498:	464b      	mov	r3, r9
1000249a:	9307      	str	r3, [sp, #28]
1000249c:	f000 fb30 	bl	10002b00 <time_us_64>
100024a0:	9c07      	ldr	r4, [sp, #28]
100024a2:	0006      	movs	r6, r0
100024a4:	000f      	movs	r7, r1
100024a6:	6862      	ldr	r2, [r4, #4]
100024a8:	f3ef 8510 	mrs	r5, PRIMASK
100024ac:	b672      	cpsid	i
100024ae:	6813      	ldr	r3, [r2, #0]
100024b0:	2b00      	cmp	r3, #0
100024b2:	d0fc      	beq.n	100024ae <alarm_pool_alarm_callback+0x36>
100024b4:	0022      	movs	r2, r4
100024b6:	9407      	str	r4, [sp, #28]
100024b8:	f3bf 8f5f 	dmb	sy
100024bc:	6824      	ldr	r4, [r4, #0]
100024be:	7b63      	ldrb	r3, [r4, #13]
100024c0:	4699      	mov	r9, r3
100024c2:	2b00      	cmp	r3, #0
100024c4:	d067      	beq.n	10002596 <alarm_pool_alarm_callback+0x11e>
100024c6:	6892      	ldr	r2, [r2, #8]
100024c8:	4b5c      	ldr	r3, [pc, #368]	; (1000263c <alarm_pool_alarm_callback+0x1c4>)
100024ca:	4690      	mov	r8, r2
100024cc:	444b      	add	r3, r9
100024ce:	011b      	lsls	r3, r3, #4
100024d0:	4498      	add	r8, r3
100024d2:	4643      	mov	r3, r8
100024d4:	681a      	ldr	r2, [r3, #0]
100024d6:	685b      	ldr	r3, [r3, #4]
100024d8:	0010      	movs	r0, r2
100024da:	0019      	movs	r1, r3
100024dc:	1b80      	subs	r0, r0, r6
100024de:	41b9      	sbcs	r1, r7
100024e0:	2900      	cmp	r1, #0
100024e2:	dd5f      	ble.n	100025a4 <alarm_pool_alarm_callback+0x12c>
100024e4:	980b      	ldr	r0, [sp, #44]	; 0x2c
100024e6:	f000 fb5b 	bl	10002ba0 <hardware_alarm_set_target>
100024ea:	2300      	movs	r3, #0
100024ec:	2600      	movs	r6, #0
100024ee:	4698      	mov	r8, r3
100024f0:	2700      	movs	r7, #0
100024f2:	469a      	mov	sl, r3
100024f4:	9c07      	ldr	r4, [sp, #28]
100024f6:	6863      	ldr	r3, [r4, #4]
100024f8:	f3bf 8f5f 	dmb	sy
100024fc:	465a      	mov	r2, fp
100024fe:	601a      	str	r2, [r3, #0]
10002500:	f385 8810 	msr	PRIMASK, r5
10002504:	4653      	mov	r3, sl
10002506:	2b00      	cmp	r3, #0
10002508:	d108      	bne.n	1000251c <alarm_pool_alarm_callback+0xa4>
1000250a:	2800      	cmp	r0, #0
1000250c:	d1c6      	bne.n	1000249c <alarm_pool_alarm_callback+0x24>
1000250e:	b00d      	add	sp, #52	; 0x34
10002510:	bcf0      	pop	{r4, r5, r6, r7}
10002512:	46bb      	mov	fp, r7
10002514:	46b2      	mov	sl, r6
10002516:	46a9      	mov	r9, r5
10002518:	46a0      	mov	r8, r4
1000251a:	bdf0      	pop	{r4, r5, r6, r7, pc}
1000251c:	9b0a      	ldr	r3, [sp, #40]	; 0x28
1000251e:	4641      	mov	r1, r8
10002520:	0218      	lsls	r0, r3, #8
10002522:	464b      	mov	r3, r9
10002524:	4318      	orrs	r0, r3
10002526:	47d0      	blx	sl
10002528:	9008      	str	r0, [sp, #32]
1000252a:	9109      	str	r1, [sp, #36]	; 0x24
1000252c:	6862      	ldr	r2, [r4, #4]
1000252e:	f3ef 8510 	mrs	r5, PRIMASK
10002532:	b672      	cpsid	i
10002534:	6813      	ldr	r3, [r2, #0]
10002536:	2b00      	cmp	r3, #0
10002538:	d0fc      	beq.n	10002534 <alarm_pool_alarm_callback+0xbc>
1000253a:	9407      	str	r4, [sp, #28]
1000253c:	f3bf 8f5f 	dmb	sy
10002540:	9908      	ldr	r1, [sp, #32]
10002542:	9a09      	ldr	r2, [sp, #36]	; 0x24
10002544:	2a00      	cmp	r2, #0
10002546:	db48      	blt.n	100025da <alarm_pool_alarm_callback+0x162>
10002548:	4311      	orrs	r1, r2
1000254a:	d003      	beq.n	10002554 <alarm_pool_alarm_callback+0xdc>
1000254c:	9b07      	ldr	r3, [sp, #28]
1000254e:	691b      	ldr	r3, [r3, #16]
10002550:	2b00      	cmp	r3, #0
10002552:	d15d      	bne.n	10002610 <alarm_pool_alarm_callback+0x198>
10002554:	9b07      	ldr	r3, [sp, #28]
10002556:	681b      	ldr	r3, [r3, #0]
10002558:	7bd9      	ldrb	r1, [r3, #15]
1000255a:	2900      	cmp	r1, #0
1000255c:	d007      	beq.n	1000256e <alarm_pool_alarm_callback+0xf6>
1000255e:	004a      	lsls	r2, r1, #1
10002560:	1852      	adds	r2, r2, r1
10002562:	6819      	ldr	r1, [r3, #0]
10002564:	468c      	mov	ip, r1
10002566:	4649      	mov	r1, r9
10002568:	4462      	add	r2, ip
1000256a:	3a03      	subs	r2, #3
1000256c:	7051      	strb	r1, [r2, #1]
1000256e:	464a      	mov	r2, r9
10002570:	73da      	strb	r2, [r3, #15]
10002572:	464b      	mov	r3, r9
10002574:	9a07      	ldr	r2, [sp, #28]
10002576:	3b01      	subs	r3, #1
10002578:	68d1      	ldr	r1, [r2, #12]
1000257a:	5cca      	ldrb	r2, [r1, r3]
1000257c:	3201      	adds	r2, #1
1000257e:	54ca      	strb	r2, [r1, r3]
10002580:	465b      	mov	r3, fp
10002582:	9a07      	ldr	r2, [sp, #28]
10002584:	6113      	str	r3, [r2, #16]
10002586:	6853      	ldr	r3, [r2, #4]
10002588:	f3bf 8f5f 	dmb	sy
1000258c:	465a      	mov	r2, fp
1000258e:	601a      	str	r2, [r3, #0]
10002590:	f385 8810 	msr	PRIMASK, r5
10002594:	e782      	b.n	1000249c <alarm_pool_alarm_callback+0x24>
10002596:	2300      	movs	r3, #0
10002598:	2600      	movs	r6, #0
1000259a:	4698      	mov	r8, r3
1000259c:	2700      	movs	r7, #0
1000259e:	469a      	mov	sl, r3
100025a0:	2000      	movs	r0, #0
100025a2:	e7a7      	b.n	100024f4 <alarm_pool_alarm_callback+0x7c>
100025a4:	2900      	cmp	r1, #0
100025a6:	d101      	bne.n	100025ac <alarm_pool_alarm_callback+0x134>
100025a8:	2800      	cmp	r0, #0
100025aa:	d19b      	bne.n	100024e4 <alarm_pool_alarm_callback+0x6c>
100025ac:	2100      	movs	r1, #0
100025ae:	0020      	movs	r0, r4
100025b0:	f000 fc9a 	bl	10002ee8 <ph_remove_head>
100025b4:	4643      	mov	r3, r8
100025b6:	681e      	ldr	r6, [r3, #0]
100025b8:	685f      	ldr	r7, [r3, #4]
100025ba:	689b      	ldr	r3, [r3, #8]
100025bc:	9a07      	ldr	r2, [sp, #28]
100025be:	469a      	mov	sl, r3
100025c0:	4643      	mov	r3, r8
100025c2:	68db      	ldr	r3, [r3, #12]
100025c4:	4698      	mov	r8, r3
100025c6:	68d3      	ldr	r3, [r2, #12]
100025c8:	444b      	add	r3, r9
100025ca:	3b01      	subs	r3, #1
100025cc:	781b      	ldrb	r3, [r3, #0]
100025ce:	930a      	str	r3, [sp, #40]	; 0x28
100025d0:	021b      	lsls	r3, r3, #8
100025d2:	4303      	orrs	r3, r0
100025d4:	6113      	str	r3, [r2, #16]
100025d6:	2000      	movs	r0, #0
100025d8:	e78c      	b.n	100024f4 <alarm_pool_alarm_callback+0x7c>
100025da:	6923      	ldr	r3, [r4, #16]
100025dc:	2b00      	cmp	r3, #0
100025de:	d0b9      	beq.n	10002554 <alarm_pool_alarm_callback+0xdc>
100025e0:	0033      	movs	r3, r6
100025e2:	003c      	movs	r4, r7
100025e4:	1a5b      	subs	r3, r3, r1
100025e6:	4194      	sbcs	r4, r2
100025e8:	001a      	movs	r2, r3
100025ea:	0023      	movs	r3, r4
100025ec:	42a7      	cmp	r7, r4
100025ee:	d819      	bhi.n	10002624 <alarm_pool_alarm_callback+0x1ac>
100025f0:	429f      	cmp	r7, r3
100025f2:	d01b      	beq.n	1000262c <alarm_pool_alarm_callback+0x1b4>
100025f4:	4659      	mov	r1, fp
100025f6:	9104      	str	r1, [sp, #16]
100025f8:	2101      	movs	r1, #1
100025fa:	9103      	str	r1, [sp, #12]
100025fc:	4649      	mov	r1, r9
100025fe:	9102      	str	r1, [sp, #8]
10002600:	4641      	mov	r1, r8
10002602:	9101      	str	r1, [sp, #4]
10002604:	4651      	mov	r1, sl
10002606:	9807      	ldr	r0, [sp, #28]
10002608:	9100      	str	r1, [sp, #0]
1000260a:	f7ff feb5 	bl	10002378 <add_alarm_under_lock.isra.0>
1000260e:	e7b7      	b.n	10002580 <alarm_pool_alarm_callback+0x108>
10002610:	f000 fa76 	bl	10002b00 <time_us_64>
10002614:	9a08      	ldr	r2, [sp, #32]
10002616:	9b09      	ldr	r3, [sp, #36]	; 0x24
10002618:	0006      	movs	r6, r0
1000261a:	000f      	movs	r7, r1
1000261c:	1992      	adds	r2, r2, r6
1000261e:	417b      	adcs	r3, r7
10002620:	4299      	cmp	r1, r3
10002622:	d9e5      	bls.n	100025f0 <alarm_pool_alarm_callback+0x178>
10002624:	2201      	movs	r2, #1
10002626:	4252      	negs	r2, r2
10002628:	17d3      	asrs	r3, r2, #31
1000262a:	e7e3      	b.n	100025f4 <alarm_pool_alarm_callback+0x17c>
1000262c:	4296      	cmp	r6, r2
1000262e:	d9e1      	bls.n	100025f4 <alarm_pool_alarm_callback+0x17c>
10002630:	2201      	movs	r2, #1
10002632:	4252      	negs	r2, r2
10002634:	17d3      	asrs	r3, r2, #31
10002636:	e7dd      	b.n	100025f4 <alarm_pool_alarm_callback+0x17c>
10002638:	2000af18 	.word	0x2000af18
1000263c:	0fffffff 	.word	0x0fffffff

10002640 <alarm_pool_add_alarm_at.constprop.0>:
10002640:	b5f8      	push	{r3, r4, r5, r6, r7, lr}
10002642:	4657      	mov	r7, sl
10002644:	464e      	mov	r6, r9
10002646:	4645      	mov	r5, r8
10002648:	46de      	mov	lr, fp
1000264a:	b5e0      	push	{r5, r6, r7, lr}
1000264c:	4d40      	ldr	r5, [pc, #256]	; (10002750 <alarm_pool_add_alarm_at.constprop.0+0x110>)
1000264e:	4681      	mov	r9, r0
10002650:	468a      	mov	sl, r1
10002652:	686a      	ldr	r2, [r5, #4]
10002654:	f3ef 8810 	mrs	r8, PRIMASK
10002658:	b672      	cpsid	i
1000265a:	6813      	ldr	r3, [r2, #0]
1000265c:	2b00      	cmp	r3, #0
1000265e:	d0fc      	beq.n	1000265a <alarm_pool_add_alarm_at.constprop.0+0x1a>
10002660:	f3bf 8f5f 	dmb	sy
10002664:	682e      	ldr	r6, [r5, #0]
10002666:	7bb4      	ldrb	r4, [r6, #14]
10002668:	2c00      	cmp	r4, #0
1000266a:	d039      	beq.n	100026e0 <alarm_pool_add_alarm_at.constprop.0+0xa0>
1000266c:	0067      	lsls	r7, r4, #1
1000266e:	6833      	ldr	r3, [r6, #0]
10002670:	193f      	adds	r7, r7, r4
10002672:	3f03      	subs	r7, #3
10002674:	19db      	adds	r3, r3, r7
10002676:	785a      	ldrb	r2, [r3, #1]
10002678:	73b2      	strb	r2, [r6, #14]
1000267a:	2a00      	cmp	r2, #0
1000267c:	d100      	bne.n	10002680 <alarm_pool_add_alarm_at.constprop.0+0x40>
1000267e:	73f2      	strb	r2, [r6, #15]
10002680:	68a9      	ldr	r1, [r5, #8]
10002682:	4a34      	ldr	r2, [pc, #208]	; (10002754 <alarm_pool_add_alarm_at.constprop.0+0x114>)
10002684:	468c      	mov	ip, r1
10002686:	4649      	mov	r1, r9
10002688:	18a2      	adds	r2, r4, r2
1000268a:	0112      	lsls	r2, r2, #4
1000268c:	4462      	add	r2, ip
1000268e:	6011      	str	r1, [r2, #0]
10002690:	4651      	mov	r1, sl
10002692:	6051      	str	r1, [r2, #4]
10002694:	4930      	ldr	r1, [pc, #192]	; (10002758 <alarm_pool_add_alarm_at.constprop.0+0x118>)
10002696:	6091      	str	r1, [r2, #8]
10002698:	2100      	movs	r1, #0
1000269a:	60d1      	str	r1, [r2, #12]
1000269c:	7099      	strb	r1, [r3, #2]
1000269e:	7059      	strb	r1, [r3, #1]
100026a0:	7019      	strb	r1, [r3, #0]
100026a2:	7b73      	ldrb	r3, [r6, #13]
100026a4:	469b      	mov	fp, r3
100026a6:	2b00      	cmp	r3, #0
100026a8:	d035      	beq.n	10002716 <alarm_pool_add_alarm_at.constprop.0+0xd6>
100026aa:	0022      	movs	r2, r4
100026ac:	0019      	movs	r1, r3
100026ae:	68b0      	ldr	r0, [r6, #8]
100026b0:	6873      	ldr	r3, [r6, #4]
100026b2:	4798      	blx	r3
100026b4:	6832      	ldr	r2, [r6, #0]
100026b6:	2800      	cmp	r0, #0
100026b8:	d020      	beq.n	100026fc <alarm_pool_add_alarm_at.constprop.0+0xbc>
100026ba:	465b      	mov	r3, fp
100026bc:	4658      	mov	r0, fp
100026be:	005b      	lsls	r3, r3, #1
100026c0:	445b      	add	r3, fp
100026c2:	19d7      	adds	r7, r2, r7
100026c4:	3b03      	subs	r3, #3
100026c6:	70b8      	strb	r0, [r7, #2]
100026c8:	18d1      	adds	r1, r2, r3
100026ca:	5cd3      	ldrb	r3, [r2, r3]
100026cc:	2b00      	cmp	r3, #0
100026ce:	d000      	beq.n	100026d2 <alarm_pool_add_alarm_at.constprop.0+0x92>
100026d0:	707b      	strb	r3, [r7, #1]
100026d2:	465b      	mov	r3, fp
100026d4:	700c      	strb	r4, [r1, #0]
100026d6:	7373      	strb	r3, [r6, #13]
100026d8:	455c      	cmp	r4, fp
100026da:	d01d      	beq.n	10002718 <alarm_pool_add_alarm_at.constprop.0+0xd8>
100026dc:	2600      	movs	r6, #0
100026de:	e026      	b.n	1000272e <alarm_pool_add_alarm_at.constprop.0+0xee>
100026e0:	686b      	ldr	r3, [r5, #4]
100026e2:	f3bf 8f5f 	dmb	sy
100026e6:	601c      	str	r4, [r3, #0]
100026e8:	f388 8810 	msr	PRIMASK, r8
100026ec:	2001      	movs	r0, #1
100026ee:	4240      	negs	r0, r0
100026f0:	bcf0      	pop	{r4, r5, r6, r7}
100026f2:	46bb      	mov	fp, r7
100026f4:	46b2      	mov	sl, r6
100026f6:	46a9      	mov	r9, r5
100026f8:	46a0      	mov	r8, r4
100026fa:	bdf8      	pop	{r3, r4, r5, r6, r7, pc}
100026fc:	465b      	mov	r3, fp
100026fe:	005b      	lsls	r3, r3, #1
10002700:	445b      	add	r3, fp
10002702:	3b03      	subs	r3, #3
10002704:	18d3      	adds	r3, r2, r3
10002706:	709c      	strb	r4, [r3, #2]
10002708:	19d1      	adds	r1, r2, r7
1000270a:	5dd2      	ldrb	r2, [r2, r7]
1000270c:	2a00      	cmp	r2, #0
1000270e:	d000      	beq.n	10002712 <alarm_pool_add_alarm_at.constprop.0+0xd2>
10002710:	705a      	strb	r2, [r3, #1]
10002712:	465b      	mov	r3, fp
10002714:	700b      	strb	r3, [r1, #0]
10002716:	7374      	strb	r4, [r6, #13]
10002718:	464a      	mov	r2, r9
1000271a:	4653      	mov	r3, sl
1000271c:	7d28      	ldrb	r0, [r5, #20]
1000271e:	f000 fa3f 	bl	10002ba0 <hardware_alarm_set_target>
10002722:	1e06      	subs	r6, r0, #0
10002724:	d0da      	beq.n	100026dc <alarm_pool_add_alarm_at.constprop.0+0x9c>
10002726:	0021      	movs	r1, r4
10002728:	6828      	ldr	r0, [r5, #0]
1000272a:	f000 fc5b 	bl	10002fe4 <ph_remove_and_free_node>
1000272e:	68eb      	ldr	r3, [r5, #12]
10002730:	191b      	adds	r3, r3, r4
10002732:	3b01      	subs	r3, #1
10002734:	7819      	ldrb	r1, [r3, #0]
10002736:	686b      	ldr	r3, [r5, #4]
10002738:	f3bf 8f5f 	dmb	sy
1000273c:	2200      	movs	r2, #0
1000273e:	601a      	str	r2, [r3, #0]
10002740:	f388 8810 	msr	PRIMASK, r8
10002744:	2000      	movs	r0, #0
10002746:	2e00      	cmp	r6, #0
10002748:	d1d2      	bne.n	100026f0 <alarm_pool_add_alarm_at.constprop.0+0xb0>
1000274a:	0208      	lsls	r0, r1, #8
1000274c:	4320      	orrs	r0, r4
1000274e:	e7cf      	b.n	100026f0 <alarm_pool_add_alarm_at.constprop.0+0xb0>
10002750:	200003dc 	.word	0x200003dc
10002754:	0fffffff 	.word	0x0fffffff
10002758:	10002355 	.word	0x10002355

1000275c <alarm_pool_init_default>:
1000275c:	b510      	push	{r4, lr}
1000275e:	4c12      	ldr	r4, [pc, #72]	; (100027a8 <alarm_pool_init_default+0x4c>)
10002760:	6863      	ldr	r3, [r4, #4]
10002762:	2b00      	cmp	r3, #0
10002764:	d004      	beq.n	10002770 <alarm_pool_init_default+0x14>
10002766:	210a      	movs	r1, #10
10002768:	4810      	ldr	r0, [pc, #64]	; (100027ac <alarm_pool_init_default+0x50>)
1000276a:	f7ff fdd1 	bl	10002310 <lock_init>
1000276e:	bd10      	pop	{r4, pc}
10002770:	0023      	movs	r3, r4
10002772:	4a0f      	ldr	r2, [pc, #60]	; (100027b0 <alarm_pool_init_default+0x54>)
10002774:	2110      	movs	r1, #16
10002776:	6820      	ldr	r0, [r4, #0]
10002778:	f000 fad4 	bl	10002d24 <ph_post_alloc_init>
1000277c:	2003      	movs	r0, #3
1000277e:	f000 f9b3 	bl	10002ae8 <hardware_alarm_claim>
10002782:	2003      	movs	r0, #3
10002784:	f000 fa7c 	bl	10002c80 <hardware_alarm_cancel>
10002788:	2003      	movs	r0, #3
1000278a:	490a      	ldr	r1, [pc, #40]	; (100027b4 <alarm_pool_init_default+0x58>)
1000278c:	f000 f9c2 	bl	10002b14 <hardware_alarm_set_callback>
10002790:	f7ff faa6 	bl	10001ce0 <next_striped_spin_lock_num>
10002794:	4b08      	ldr	r3, [pc, #32]	; (100027b8 <alarm_pool_init_default+0x5c>)
10002796:	469c      	mov	ip, r3
10002798:	2303      	movs	r3, #3
1000279a:	4460      	add	r0, ip
1000279c:	7523      	strb	r3, [r4, #20]
1000279e:	4b07      	ldr	r3, [pc, #28]	; (100027bc <alarm_pool_init_default+0x60>)
100027a0:	0080      	lsls	r0, r0, #2
100027a2:	6060      	str	r0, [r4, #4]
100027a4:	60dc      	str	r4, [r3, #12]
100027a6:	e7de      	b.n	10002766 <alarm_pool_init_default+0xa>
100027a8:	200003dc 	.word	0x200003dc
100027ac:	2000afa4 	.word	0x2000afa4
100027b0:	10002321 	.word	0x10002321
100027b4:	10002479 	.word	0x10002479
100027b8:	34000040 	.word	0x34000040
100027bc:	2000af18 	.word	0x2000af18

100027c0 <alarm_pool_get_default>:
100027c0:	4800      	ldr	r0, [pc, #0]	; (100027c4 <alarm_pool_get_default+0x4>)
100027c2:	4770      	bx	lr
100027c4:	200003dc 	.word	0x200003dc

100027c8 <alarm_pool_add_alarm_at>:
100027c8:	b5f0      	push	{r4, r5, r6, r7, lr}
100027ca:	4657      	mov	r7, sl
100027cc:	464e      	mov	r6, r9
100027ce:	4645      	mov	r5, r8
100027d0:	46de      	mov	lr, fp
100027d2:	b5e0      	push	{r5, r6, r7, lr}
100027d4:	b085      	sub	sp, #20
100027d6:	9301      	str	r3, [sp, #4]
100027d8:	ab10      	add	r3, sp, #64	; 0x40
100027da:	781b      	ldrb	r3, [r3, #0]
100027dc:	0006      	movs	r6, r0
100027de:	9303      	str	r3, [sp, #12]
100027e0:	2300      	movs	r3, #0
100027e2:	469a      	mov	sl, r3
100027e4:	4698      	mov	r8, r3
100027e6:	9200      	str	r2, [sp, #0]
100027e8:	6872      	ldr	r2, [r6, #4]
100027ea:	f3ef 8910 	mrs	r9, PRIMASK
100027ee:	b672      	cpsid	i
100027f0:	6813      	ldr	r3, [r2, #0]
100027f2:	2b00      	cmp	r3, #0
100027f4:	d0fc      	beq.n	100027f0 <alarm_pool_add_alarm_at+0x28>
100027f6:	f3bf 8f5f 	dmb	sy
100027fa:	6835      	ldr	r5, [r6, #0]
100027fc:	7bac      	ldrb	r4, [r5, #14]
100027fe:	2c00      	cmp	r4, #0
10002800:	d049      	beq.n	10002896 <alarm_pool_add_alarm_at+0xce>
10002802:	0067      	lsls	r7, r4, #1
10002804:	682b      	ldr	r3, [r5, #0]
10002806:	193f      	adds	r7, r7, r4
10002808:	3f03      	subs	r7, #3
1000280a:	19db      	adds	r3, r3, r7
1000280c:	785a      	ldrb	r2, [r3, #1]
1000280e:	73aa      	strb	r2, [r5, #14]
10002810:	2a00      	cmp	r2, #0
10002812:	d100      	bne.n	10002816 <alarm_pool_add_alarm_at+0x4e>
10002814:	73ea      	strb	r2, [r5, #15]
10002816:	68b1      	ldr	r1, [r6, #8]
10002818:	4a4f      	ldr	r2, [pc, #316]	; (10002958 <alarm_pool_add_alarm_at+0x190>)
1000281a:	468c      	mov	ip, r1
1000281c:	9800      	ldr	r0, [sp, #0]
1000281e:	9901      	ldr	r1, [sp, #4]
10002820:	18a2      	adds	r2, r4, r2
10002822:	0112      	lsls	r2, r2, #4
10002824:	4462      	add	r2, ip
10002826:	6010      	str	r0, [r2, #0]
10002828:	6051      	str	r1, [r2, #4]
1000282a:	990e      	ldr	r1, [sp, #56]	; 0x38
1000282c:	6091      	str	r1, [r2, #8]
1000282e:	990f      	ldr	r1, [sp, #60]	; 0x3c
10002830:	60d1      	str	r1, [r2, #12]
10002832:	4642      	mov	r2, r8
10002834:	709a      	strb	r2, [r3, #2]
10002836:	705a      	strb	r2, [r3, #1]
10002838:	701a      	strb	r2, [r3, #0]
1000283a:	7b6b      	ldrb	r3, [r5, #13]
1000283c:	469b      	mov	fp, r3
1000283e:	2b00      	cmp	r3, #0
10002840:	d045      	beq.n	100028ce <alarm_pool_add_alarm_at+0x106>
10002842:	0022      	movs	r2, r4
10002844:	0019      	movs	r1, r3
10002846:	68a8      	ldr	r0, [r5, #8]
10002848:	686b      	ldr	r3, [r5, #4]
1000284a:	4798      	blx	r3
1000284c:	682a      	ldr	r2, [r5, #0]
1000284e:	2800      	cmp	r0, #0
10002850:	d030      	beq.n	100028b4 <alarm_pool_add_alarm_at+0xec>
10002852:	465b      	mov	r3, fp
10002854:	4658      	mov	r0, fp
10002856:	005b      	lsls	r3, r3, #1
10002858:	445b      	add	r3, fp
1000285a:	19d7      	adds	r7, r2, r7
1000285c:	3b03      	subs	r3, #3
1000285e:	70b8      	strb	r0, [r7, #2]
10002860:	18d1      	adds	r1, r2, r3
10002862:	5cd3      	ldrb	r3, [r2, r3]
10002864:	2b00      	cmp	r3, #0
10002866:	d000      	beq.n	1000286a <alarm_pool_add_alarm_at+0xa2>
10002868:	707b      	strb	r3, [r7, #1]
1000286a:	465b      	mov	r3, fp
1000286c:	700c      	strb	r4, [r1, #0]
1000286e:	736b      	strb	r3, [r5, #13]
10002870:	455c      	cmp	r4, fp
10002872:	d02d      	beq.n	100028d0 <alarm_pool_add_alarm_at+0x108>
10002874:	68f3      	ldr	r3, [r6, #12]
10002876:	191b      	adds	r3, r3, r4
10002878:	3b01      	subs	r3, #1
1000287a:	7818      	ldrb	r0, [r3, #0]
1000287c:	6873      	ldr	r3, [r6, #4]
1000287e:	f3bf 8f5f 	dmb	sy
10002882:	4642      	mov	r2, r8
10002884:	601a      	str	r2, [r3, #0]
10002886:	f389 8810 	msr	PRIMASK, r9
1000288a:	4653      	mov	r3, sl
1000288c:	2b00      	cmp	r3, #0
1000288e:	d12c      	bne.n	100028ea <alarm_pool_add_alarm_at+0x122>
10002890:	0200      	lsls	r0, r0, #8
10002892:	4320      	orrs	r0, r4
10002894:	e007      	b.n	100028a6 <alarm_pool_add_alarm_at+0xde>
10002896:	6873      	ldr	r3, [r6, #4]
10002898:	f3bf 8f5f 	dmb	sy
1000289c:	601c      	str	r4, [r3, #0]
1000289e:	f389 8810 	msr	PRIMASK, r9
100028a2:	2001      	movs	r0, #1
100028a4:	4240      	negs	r0, r0
100028a6:	b005      	add	sp, #20
100028a8:	bcf0      	pop	{r4, r5, r6, r7}
100028aa:	46bb      	mov	fp, r7
100028ac:	46b2      	mov	sl, r6
100028ae:	46a9      	mov	r9, r5
100028b0:	46a0      	mov	r8, r4
100028b2:	bdf0      	pop	{r4, r5, r6, r7, pc}
100028b4:	465b      	mov	r3, fp
100028b6:	005b      	lsls	r3, r3, #1
100028b8:	445b      	add	r3, fp
100028ba:	3b03      	subs	r3, #3
100028bc:	18d3      	adds	r3, r2, r3
100028be:	709c      	strb	r4, [r3, #2]
100028c0:	19d1      	adds	r1, r2, r7
100028c2:	5dd2      	ldrb	r2, [r2, r7]
100028c4:	2a00      	cmp	r2, #0
100028c6:	d000      	beq.n	100028ca <alarm_pool_add_alarm_at+0x102>
100028c8:	705a      	strb	r2, [r3, #1]
100028ca:	465b      	mov	r3, fp
100028cc:	700b      	strb	r3, [r1, #0]
100028ce:	736c      	strb	r4, [r5, #13]
100028d0:	7d30      	ldrb	r0, [r6, #20]
100028d2:	9a00      	ldr	r2, [sp, #0]
100028d4:	9b01      	ldr	r3, [sp, #4]
100028d6:	f000 f963 	bl	10002ba0 <hardware_alarm_set_target>
100028da:	4682      	mov	sl, r0
100028dc:	2800      	cmp	r0, #0
100028de:	d0c9      	beq.n	10002874 <alarm_pool_add_alarm_at+0xac>
100028e0:	0021      	movs	r1, r4
100028e2:	6830      	ldr	r0, [r6, #0]
100028e4:	f000 fb7e 	bl	10002fe4 <ph_remove_and_free_node>
100028e8:	e7c4      	b.n	10002874 <alarm_pool_add_alarm_at+0xac>
100028ea:	9b03      	ldr	r3, [sp, #12]
100028ec:	2b00      	cmp	r3, #0
100028ee:	d030      	beq.n	10002952 <alarm_pool_add_alarm_at+0x18a>
100028f0:	9b0e      	ldr	r3, [sp, #56]	; 0x38
100028f2:	2000      	movs	r0, #0
100028f4:	990f      	ldr	r1, [sp, #60]	; 0x3c
100028f6:	4798      	blx	r3
100028f8:	0003      	movs	r3, r0
100028fa:	0004      	movs	r4, r0
100028fc:	000d      	movs	r5, r1
100028fe:	430b      	orrs	r3, r1
10002900:	d027      	beq.n	10002952 <alarm_pool_add_alarm_at+0x18a>
10002902:	2900      	cmp	r1, #0
10002904:	da0d      	bge.n	10002922 <alarm_pool_add_alarm_at+0x15a>
10002906:	9800      	ldr	r0, [sp, #0]
10002908:	9901      	ldr	r1, [sp, #4]
1000290a:	0002      	movs	r2, r0
1000290c:	000b      	movs	r3, r1
1000290e:	1b12      	subs	r2, r2, r4
10002910:	41ab      	sbcs	r3, r5
10002912:	4299      	cmp	r1, r3
10002914:	d813      	bhi.n	1000293e <alarm_pool_add_alarm_at+0x176>
10002916:	d018      	beq.n	1000294a <alarm_pool_add_alarm_at+0x182>
10002918:	9200      	str	r2, [sp, #0]
1000291a:	9301      	str	r3, [sp, #4]
1000291c:	9b03      	ldr	r3, [sp, #12]
1000291e:	469a      	mov	sl, r3
10002920:	e762      	b.n	100027e8 <alarm_pool_add_alarm_at+0x20>
10002922:	f000 f8ed 	bl	10002b00 <time_us_64>
10002926:	0002      	movs	r2, r0
10002928:	000b      	movs	r3, r1
1000292a:	18a4      	adds	r4, r4, r2
1000292c:	415d      	adcs	r5, r3
1000292e:	9400      	str	r4, [sp, #0]
10002930:	9501      	str	r5, [sp, #4]
10002932:	42a9      	cmp	r1, r5
10002934:	d803      	bhi.n	1000293e <alarm_pool_add_alarm_at+0x176>
10002936:	d1f1      	bne.n	1000291c <alarm_pool_add_alarm_at+0x154>
10002938:	9900      	ldr	r1, [sp, #0]
1000293a:	428a      	cmp	r2, r1
1000293c:	d9ee      	bls.n	1000291c <alarm_pool_add_alarm_at+0x154>
1000293e:	2301      	movs	r3, #1
10002940:	425b      	negs	r3, r3
10002942:	17dc      	asrs	r4, r3, #31
10002944:	9300      	str	r3, [sp, #0]
10002946:	9401      	str	r4, [sp, #4]
10002948:	e7e8      	b.n	1000291c <alarm_pool_add_alarm_at+0x154>
1000294a:	9900      	ldr	r1, [sp, #0]
1000294c:	4291      	cmp	r1, r2
1000294e:	d9e3      	bls.n	10002918 <alarm_pool_add_alarm_at+0x150>
10002950:	e7f5      	b.n	1000293e <alarm_pool_add_alarm_at+0x176>
10002952:	2000      	movs	r0, #0
10002954:	e7a7      	b.n	100028a6 <alarm_pool_add_alarm_at+0xde>
10002956:	46c0      	nop			; (mov r8, r8)
10002958:	0fffffff 	.word	0x0fffffff

1000295c <best_effort_wfe_or_timeout>:
1000295c:	b5f8      	push	{r3, r4, r5, r6, r7, lr}
1000295e:	46ce      	mov	lr, r9
10002960:	4647      	mov	r7, r8
10002962:	b580      	push	{r7, lr}
10002964:	0006      	movs	r6, r0
10002966:	000c      	movs	r4, r1
10002968:	f7ff fe6a 	bl	10002640 <alarm_pool_add_alarm_at.constprop.0>
1000296c:	2800      	cmp	r0, #0
1000296e:	dc0c      	bgt.n	1000298a <best_effort_wfe_or_timeout+0x2e>
10002970:	4b2d      	ldr	r3, [pc, #180]	; (10002a28 <best_effort_wfe_or_timeout+0xcc>)
10002972:	2000      	movs	r0, #0
10002974:	6a59      	ldr	r1, [r3, #36]	; 0x24
10002976:	428c      	cmp	r4, r1
10002978:	d803      	bhi.n	10002982 <best_effort_wfe_or_timeout+0x26>
1000297a:	6a9b      	ldr	r3, [r3, #40]	; 0x28
1000297c:	3001      	adds	r0, #1
1000297e:	42b3      	cmp	r3, r6
10002980:	d345      	bcc.n	10002a0e <best_effort_wfe_or_timeout+0xb2>
10002982:	bcc0      	pop	{r6, r7}
10002984:	46b9      	mov	r9, r7
10002986:	46b0      	mov	r8, r6
10002988:	bdf8      	pop	{r3, r4, r5, r6, r7, pc}
1000298a:	bf20      	wfe
1000298c:	4d27      	ldr	r5, [pc, #156]	; (10002a2c <best_effort_wfe_or_timeout+0xd0>)
1000298e:	686a      	ldr	r2, [r5, #4]
10002990:	f3ef 8710 	mrs	r7, PRIMASK
10002994:	b672      	cpsid	i
10002996:	6813      	ldr	r3, [r2, #0]
10002998:	2b00      	cmp	r3, #0
1000299a:	d0fc      	beq.n	10002996 <best_effort_wfe_or_timeout+0x3a>
1000299c:	f3bf 8f5f 	dmb	sy
100029a0:	682b      	ldr	r3, [r5, #0]
100029a2:	b2c1      	uxtb	r1, r0
100029a4:	469c      	mov	ip, r3
100029a6:	7b5b      	ldrb	r3, [r3, #13]
100029a8:	428b      	cmp	r3, r1
100029aa:	d035      	beq.n	10002a18 <best_effort_wfe_or_timeout+0xbc>
100029ac:	23ff      	movs	r3, #255	; 0xff
100029ae:	4003      	ands	r3, r0
100029b0:	005a      	lsls	r2, r3, #1
100029b2:	4691      	mov	r9, r2
100029b4:	4662      	mov	r2, ip
100029b6:	6812      	ldr	r2, [r2, #0]
100029b8:	4499      	add	r9, r3
100029ba:	4690      	mov	r8, r2
100029bc:	464a      	mov	r2, r9
100029be:	4442      	add	r2, r8
100029c0:	3a03      	subs	r2, #3
100029c2:	7892      	ldrb	r2, [r2, #2]
100029c4:	2a00      	cmp	r2, #0
100029c6:	d01d      	beq.n	10002a04 <best_effort_wfe_or_timeout+0xa8>
100029c8:	68ea      	ldr	r2, [r5, #12]
100029ca:	0a00      	lsrs	r0, r0, #8
100029cc:	4690      	mov	r8, r2
100029ce:	4443      	add	r3, r8
100029d0:	3b01      	subs	r3, #1
100029d2:	781b      	ldrb	r3, [r3, #0]
100029d4:	b2c0      	uxtb	r0, r0
100029d6:	4283      	cmp	r3, r0
100029d8:	d021      	beq.n	10002a1e <best_effort_wfe_or_timeout+0xc2>
100029da:	686b      	ldr	r3, [r5, #4]
100029dc:	f3bf 8f5f 	dmb	sy
100029e0:	2200      	movs	r2, #0
100029e2:	601a      	str	r2, [r3, #0]
100029e4:	f387 8810 	msr	PRIMASK, r7
100029e8:	4a0f      	ldr	r2, [pc, #60]	; (10002a28 <best_effort_wfe_or_timeout+0xcc>)
100029ea:	2000      	movs	r0, #0
100029ec:	6a53      	ldr	r3, [r2, #36]	; 0x24
100029ee:	429c      	cmp	r4, r3
100029f0:	d8c7      	bhi.n	10002982 <best_effort_wfe_or_timeout+0x26>
100029f2:	6a92      	ldr	r2, [r2, #40]	; 0x28
100029f4:	3001      	adds	r0, #1
100029f6:	42b2      	cmp	r2, r6
100029f8:	d2c3      	bcs.n	10002982 <best_effort_wfe_or_timeout+0x26>
100029fa:	1ae0      	subs	r0, r4, r3
100029fc:	1e42      	subs	r2, r0, #1
100029fe:	4190      	sbcs	r0, r2
10002a00:	b2c0      	uxtb	r0, r0
10002a02:	e7be      	b.n	10002982 <best_effort_wfe_or_timeout+0x26>
10002a04:	692b      	ldr	r3, [r5, #16]
10002a06:	4298      	cmp	r0, r3
10002a08:	d1e7      	bne.n	100029da <best_effort_wfe_or_timeout+0x7e>
10002a0a:	612a      	str	r2, [r5, #16]
10002a0c:	e7e5      	b.n	100029da <best_effort_wfe_or_timeout+0x7e>
10002a0e:	1a60      	subs	r0, r4, r1
10002a10:	1e43      	subs	r3, r0, #1
10002a12:	4198      	sbcs	r0, r3
10002a14:	b2c0      	uxtb	r0, r0
10002a16:	e7b4      	b.n	10002982 <best_effort_wfe_or_timeout+0x26>
10002a18:	23ff      	movs	r3, #255	; 0xff
10002a1a:	4003      	ands	r3, r0
10002a1c:	e7d4      	b.n	100029c8 <best_effort_wfe_or_timeout+0x6c>
10002a1e:	4660      	mov	r0, ip
10002a20:	f000 fae0 	bl	10002fe4 <ph_remove_and_free_node>
10002a24:	e7d9      	b.n	100029da <best_effort_wfe_or_timeout+0x7e>
10002a26:	46c0      	nop			; (mov r8, r8)
10002a28:	40054000 	.word	0x40054000
10002a2c:	200003dc 	.word	0x200003dc

10002a30 <hardware_alarm_irq_handler>:
10002a30:	b5f0      	push	{r4, r5, r6, r7, lr}
10002a32:	46d6      	mov	lr, sl
10002a34:	464f      	mov	r7, r9
10002a36:	4646      	mov	r6, r8
10002a38:	b5c0      	push	{r6, r7, lr}
10002a3a:	f3ef 8305 	mrs	r3, IPSR
10002a3e:	223f      	movs	r2, #63	; 0x3f
10002a40:	4013      	ands	r3, r2
10002a42:	0018      	movs	r0, r3
10002a44:	3810      	subs	r0, #16
10002a46:	f3ef 8c10 	mrs	ip, PRIMASK
10002a4a:	b672      	cpsid	i
10002a4c:	4d20      	ldr	r5, [pc, #128]	; (10002ad0 <hardware_alarm_irq_handler+0xa0>)
10002a4e:	682a      	ldr	r2, [r5, #0]
10002a50:	2a00      	cmp	r2, #0
10002a52:	d0fc      	beq.n	10002a4e <hardware_alarm_irq_handler+0x1e>
10002a54:	f3bf 8f5f 	dmb	sy
10002a58:	2201      	movs	r2, #1
10002a5a:	0011      	movs	r1, r2
10002a5c:	4081      	lsls	r1, r0
10002a5e:	4c1d      	ldr	r4, [pc, #116]	; (10002ad4 <hardware_alarm_irq_handler+0xa4>)
10002a60:	4688      	mov	r8, r1
10002a62:	6361      	str	r1, [r4, #52]	; 0x34
10002a64:	491c      	ldr	r1, [pc, #112]	; (10002ad8 <hardware_alarm_irq_handler+0xa8>)
10002a66:	0017      	movs	r7, r2
10002a68:	780e      	ldrb	r6, [r1, #0]
10002a6a:	468a      	mov	sl, r1
10002a6c:	0031      	movs	r1, r6
10002a6e:	40c1      	lsrs	r1, r0
10002a70:	400f      	ands	r7, r1
10002a72:	420a      	tst	r2, r1
10002a74:	d109      	bne.n	10002a8a <hardware_alarm_irq_handler+0x5a>
10002a76:	f3bf 8f5f 	dmb	sy
10002a7a:	602f      	str	r7, [r5, #0]
10002a7c:	f38c 8810 	msr	PRIMASK, ip
10002a80:	bce0      	pop	{r5, r6, r7}
10002a82:	46ba      	mov	sl, r7
10002a84:	46b1      	mov	r9, r6
10002a86:	46a8      	mov	r8, r5
10002a88:	bdf0      	pop	{r4, r5, r6, r7, pc}
10002a8a:	4914      	ldr	r1, [pc, #80]	; (10002adc <hardware_alarm_irq_handler+0xac>)
10002a8c:	0082      	lsls	r2, r0, #2
10002a8e:	6a64      	ldr	r4, [r4, #36]	; 0x24
10002a90:	5851      	ldr	r1, [r2, r1]
10002a92:	428c      	cmp	r4, r1
10002a94:	d30f      	bcc.n	10002ab6 <hardware_alarm_irq_handler+0x86>
10002a96:	4b12      	ldr	r3, [pc, #72]	; (10002ae0 <hardware_alarm_irq_handler+0xb0>)
10002a98:	58d2      	ldr	r2, [r2, r3]
10002a9a:	4643      	mov	r3, r8
10002a9c:	439e      	bics	r6, r3
10002a9e:	4653      	mov	r3, sl
10002aa0:	701e      	strb	r6, [r3, #0]
10002aa2:	f3bf 8f5f 	dmb	sy
10002aa6:	2300      	movs	r3, #0
10002aa8:	602b      	str	r3, [r5, #0]
10002aaa:	f38c 8810 	msr	PRIMASK, ip
10002aae:	2a00      	cmp	r2, #0
10002ab0:	d0e6      	beq.n	10002a80 <hardware_alarm_irq_handler+0x50>
10002ab2:	4790      	blx	r2
10002ab4:	e7e4      	b.n	10002a80 <hardware_alarm_irq_handler+0x50>
10002ab6:	4a0b      	ldr	r2, [pc, #44]	; (10002ae4 <hardware_alarm_irq_handler+0xb4>)
10002ab8:	009b      	lsls	r3, r3, #2
10002aba:	4690      	mov	r8, r2
10002abc:	4443      	add	r3, r8
10002abe:	681a      	ldr	r2, [r3, #0]
10002ac0:	601a      	str	r2, [r3, #0]
10002ac2:	f3bf 8f5f 	dmb	sy
10002ac6:	2300      	movs	r3, #0
10002ac8:	602b      	str	r3, [r5, #0]
10002aca:	f38c 8810 	msr	PRIMASK, ip
10002ace:	e7d7      	b.n	10002a80 <hardware_alarm_irq_handler+0x50>
10002ad0:	d0000128 	.word	0xd0000128
10002ad4:	40054000 	.word	0x40054000
10002ad8:	20012dc0 	.word	0x20012dc0
10002adc:	2000afb0 	.word	0x2000afb0
10002ae0:	200014a0 	.word	0x200014a0
10002ae4:	40053fd0 	.word	0x40053fd0

10002ae8 <hardware_alarm_claim>:
10002ae8:	b510      	push	{r4, lr}
10002aea:	0001      	movs	r1, r0
10002aec:	4a02      	ldr	r2, [pc, #8]	; (10002af8 <hardware_alarm_claim+0x10>)
10002aee:	4803      	ldr	r0, [pc, #12]	; (10002afc <hardware_alarm_claim+0x14>)
10002af0:	f7ff f854 	bl	10001b9c <hw_claim_or_assert>
10002af4:	bd10      	pop	{r4, pc}
10002af6:	46c0      	nop			; (mov r8, r8)
10002af8:	1000b3f4 	.word	0x1000b3f4
10002afc:	20012dbc 	.word	0x20012dbc

10002b00 <time_us_64>:
10002b00:	4b03      	ldr	r3, [pc, #12]	; (10002b10 <time_us_64+0x10>)
10002b02:	6a59      	ldr	r1, [r3, #36]	; 0x24
10002b04:	000a      	movs	r2, r1
10002b06:	6a98      	ldr	r0, [r3, #40]	; 0x28
10002b08:	6a59      	ldr	r1, [r3, #36]	; 0x24
10002b0a:	428a      	cmp	r2, r1
10002b0c:	d1fa      	bne.n	10002b04 <time_us_64+0x4>
10002b0e:	4770      	bx	lr
10002b10:	40054000 	.word	0x40054000

10002b14 <hardware_alarm_set_callback>:
10002b14:	b570      	push	{r4, r5, r6, lr}
10002b16:	0004      	movs	r4, r0
10002b18:	000d      	movs	r5, r1
10002b1a:	f3ef 8610 	mrs	r6, PRIMASK
10002b1e:	b672      	cpsid	i
10002b20:	4a1a      	ldr	r2, [pc, #104]	; (10002b8c <hardware_alarm_set_callback+0x78>)
10002b22:	6813      	ldr	r3, [r2, #0]
10002b24:	2b00      	cmp	r3, #0
10002b26:	d0fc      	beq.n	10002b22 <hardware_alarm_set_callback+0xe>
10002b28:	f3bf 8f5f 	dmb	sy
10002b2c:	2d00      	cmp	r5, #0
10002b2e:	d01b      	beq.n	10002b68 <hardware_alarm_set_callback+0x54>
10002b30:	0020      	movs	r0, r4
10002b32:	f7ff f957 	bl	10001de4 <irq_get_vtable_handler>
10002b36:	4916      	ldr	r1, [pc, #88]	; (10002b90 <hardware_alarm_set_callback+0x7c>)
10002b38:	4281      	cmp	r1, r0
10002b3a:	d00a      	beq.n	10002b52 <hardware_alarm_set_callback+0x3e>
10002b3c:	0020      	movs	r0, r4
10002b3e:	f7ff f959 	bl	10001df4 <irq_set_exclusive_handler>
10002b42:	2101      	movs	r1, #1
10002b44:	0020      	movs	r0, r4
10002b46:	f7ff f91d 	bl	10001d84 <irq_set_enabled>
10002b4a:	2301      	movs	r3, #1
10002b4c:	40a3      	lsls	r3, r4
10002b4e:	4a11      	ldr	r2, [pc, #68]	; (10002b94 <hardware_alarm_set_callback+0x80>)
10002b50:	6013      	str	r3, [r2, #0]
10002b52:	4b11      	ldr	r3, [pc, #68]	; (10002b98 <hardware_alarm_set_callback+0x84>)
10002b54:	00a4      	lsls	r4, r4, #2
10002b56:	50e5      	str	r5, [r4, r3]
10002b58:	f3bf 8f5f 	dmb	sy
10002b5c:	2200      	movs	r2, #0
10002b5e:	4b0b      	ldr	r3, [pc, #44]	; (10002b8c <hardware_alarm_set_callback+0x78>)
10002b60:	601a      	str	r2, [r3, #0]
10002b62:	f386 8810 	msr	PRIMASK, r6
10002b66:	bd70      	pop	{r4, r5, r6, pc}
10002b68:	4b0b      	ldr	r3, [pc, #44]	; (10002b98 <hardware_alarm_set_callback+0x84>)
10002b6a:	00a2      	lsls	r2, r4, #2
10002b6c:	50d5      	str	r5, [r2, r3]
10002b6e:	2201      	movs	r2, #1
10002b70:	40a2      	lsls	r2, r4
10002b72:	490a      	ldr	r1, [pc, #40]	; (10002b9c <hardware_alarm_set_callback+0x88>)
10002b74:	0020      	movs	r0, r4
10002b76:	780b      	ldrb	r3, [r1, #0]
10002b78:	4393      	bics	r3, r2
10002b7a:	700b      	strb	r3, [r1, #0]
10002b7c:	4904      	ldr	r1, [pc, #16]	; (10002b90 <hardware_alarm_set_callback+0x7c>)
10002b7e:	f7ff fa55 	bl	1000202c <irq_remove_handler>
10002b82:	2100      	movs	r1, #0
10002b84:	0020      	movs	r0, r4
10002b86:	f7ff f8fd 	bl	10001d84 <irq_set_enabled>
10002b8a:	e7e5      	b.n	10002b58 <hardware_alarm_set_callback+0x44>
10002b8c:	d0000128 	.word	0xd0000128
10002b90:	10002a31 	.word	0x10002a31
10002b94:	40056038 	.word	0x40056038
10002b98:	200014a0 	.word	0x200014a0
10002b9c:	20012dc0 	.word	0x20012dc0

10002ba0 <hardware_alarm_set_target>:
10002ba0:	b5f0      	push	{r4, r5, r6, r7, lr}
10002ba2:	464f      	mov	r7, r9
10002ba4:	46d6      	mov	lr, sl
10002ba6:	4646      	mov	r6, r8
10002ba8:	b5c0      	push	{r6, r7, lr}
10002baa:	0007      	movs	r7, r0
10002bac:	4c2f      	ldr	r4, [pc, #188]	; (10002c6c <hardware_alarm_set_target+0xcc>)
10002bae:	6a61      	ldr	r1, [r4, #36]	; 0x24
10002bb0:	000d      	movs	r5, r1
10002bb2:	6aa6      	ldr	r6, [r4, #40]	; 0x28
10002bb4:	6a61      	ldr	r1, [r4, #36]	; 0x24
10002bb6:	42a9      	cmp	r1, r5
10002bb8:	d1fa      	bne.n	10002bb0 <hardware_alarm_set_target+0x10>
10002bba:	428b      	cmp	r3, r1
10002bbc:	d808      	bhi.n	10002bd0 <hardware_alarm_set_target+0x30>
10002bbe:	d005      	beq.n	10002bcc <hardware_alarm_set_target+0x2c>
10002bc0:	2001      	movs	r0, #1
10002bc2:	bce0      	pop	{r5, r6, r7}
10002bc4:	46ba      	mov	sl, r7
10002bc6:	46b1      	mov	r9, r6
10002bc8:	46a8      	mov	r8, r5
10002bca:	bdf0      	pop	{r4, r5, r6, r7, pc}
10002bcc:	42b2      	cmp	r2, r6
10002bce:	d9f7      	bls.n	10002bc0 <hardware_alarm_set_target+0x20>
10002bd0:	f3ef 8a10 	mrs	sl, PRIMASK
10002bd4:	b672      	cpsid	i
10002bd6:	4826      	ldr	r0, [pc, #152]	; (10002c70 <hardware_alarm_set_target+0xd0>)
10002bd8:	6801      	ldr	r1, [r0, #0]
10002bda:	2900      	cmp	r1, #0
10002bdc:	d0fc      	beq.n	10002bd8 <hardware_alarm_set_target+0x38>
10002bde:	f3bf 8f5f 	dmb	sy
10002be2:	2501      	movs	r5, #1
10002be4:	40bd      	lsls	r5, r7
10002be6:	4923      	ldr	r1, [pc, #140]	; (10002c74 <hardware_alarm_set_target+0xd4>)
10002be8:	4c20      	ldr	r4, [pc, #128]	; (10002c6c <hardware_alarm_set_target+0xcc>)
10002bea:	4688      	mov	r8, r1
10002bec:	7809      	ldrb	r1, [r1, #0]
10002bee:	4689      	mov	r9, r1
10002bf0:	4329      	orrs	r1, r5
10002bf2:	b2c9      	uxtb	r1, r1
10002bf4:	468c      	mov	ip, r1
10002bf6:	4641      	mov	r1, r8
10002bf8:	4660      	mov	r0, ip
10002bfa:	7008      	strb	r0, [r1, #0]
10002bfc:	1d39      	adds	r1, r7, #4
10002bfe:	481e      	ldr	r0, [pc, #120]	; (10002c78 <hardware_alarm_set_target+0xd8>)
10002c00:	0089      	lsls	r1, r1, #2
10002c02:	6365      	str	r5, [r4, #52]	; 0x34
10002c04:	510a      	str	r2, [r1, r4]
10002c06:	00b9      	lsls	r1, r7, #2
10002c08:	500b      	str	r3, [r1, r0]
10002c0a:	6a21      	ldr	r1, [r4, #32]
10002c0c:	2000      	movs	r0, #0
10002c0e:	4229      	tst	r1, r5
10002c10:	d019      	beq.n	10002c46 <hardware_alarm_set_target+0xa6>
10002c12:	6a61      	ldr	r1, [r4, #36]	; 0x24
10002c14:	0008      	movs	r0, r1
10002c16:	6aa6      	ldr	r6, [r4, #40]	; 0x28
10002c18:	6a61      	ldr	r1, [r4, #36]	; 0x24
10002c1a:	4281      	cmp	r1, r0
10002c1c:	d1fa      	bne.n	10002c14 <hardware_alarm_set_target+0x74>
10002c1e:	428b      	cmp	r3, r1
10002c20:	d819      	bhi.n	10002c56 <hardware_alarm_set_target+0xb6>
10002c22:	d101      	bne.n	10002c28 <hardware_alarm_set_target+0x88>
10002c24:	42b2      	cmp	r2, r6
10002c26:	d816      	bhi.n	10002c56 <hardware_alarm_set_target+0xb6>
10002c28:	45cc      	cmp	ip, r9
10002c2a:	d01d      	beq.n	10002c68 <hardware_alarm_set_target+0xc8>
10002c2c:	4b0f      	ldr	r3, [pc, #60]	; (10002c6c <hardware_alarm_set_target+0xcc>)
10002c2e:	201f      	movs	r0, #31
10002c30:	621d      	str	r5, [r3, #32]
10002c32:	635d      	str	r5, [r3, #52]	; 0x34
10002c34:	2301      	movs	r3, #1
10002c36:	4007      	ands	r7, r0
10002c38:	40bb      	lsls	r3, r7
10002c3a:	4a10      	ldr	r2, [pc, #64]	; (10002c7c <hardware_alarm_set_target+0xdc>)
10002c3c:	381e      	subs	r0, #30
10002c3e:	6013      	str	r3, [r2, #0]
10002c40:	4643      	mov	r3, r8
10002c42:	464a      	mov	r2, r9
10002c44:	701a      	strb	r2, [r3, #0]
10002c46:	f3bf 8f5f 	dmb	sy
10002c4a:	2200      	movs	r2, #0
10002c4c:	4b08      	ldr	r3, [pc, #32]	; (10002c70 <hardware_alarm_set_target+0xd0>)
10002c4e:	601a      	str	r2, [r3, #0]
10002c50:	f38a 8810 	msr	PRIMASK, sl
10002c54:	e7b5      	b.n	10002bc2 <hardware_alarm_set_target+0x22>
10002c56:	2000      	movs	r0, #0
10002c58:	f3bf 8f5f 	dmb	sy
10002c5c:	2200      	movs	r2, #0
10002c5e:	4b04      	ldr	r3, [pc, #16]	; (10002c70 <hardware_alarm_set_target+0xd0>)
10002c60:	601a      	str	r2, [r3, #0]
10002c62:	f38a 8810 	msr	PRIMASK, sl
10002c66:	e7ac      	b.n	10002bc2 <hardware_alarm_set_target+0x22>
10002c68:	2001      	movs	r0, #1
10002c6a:	e7ec      	b.n	10002c46 <hardware_alarm_set_target+0xa6>
10002c6c:	40054000 	.word	0x40054000
10002c70:	d0000128 	.word	0xd0000128
10002c74:	20012dc0 	.word	0x20012dc0
10002c78:	2000afb0 	.word	0x2000afb0
10002c7c:	e000e280 	.word	0xe000e280

10002c80 <hardware_alarm_cancel>:
10002c80:	f3ef 8c10 	mrs	ip, PRIMASK
10002c84:	b672      	cpsid	i
10002c86:	490a      	ldr	r1, [pc, #40]	; (10002cb0 <hardware_alarm_cancel+0x30>)
10002c88:	680b      	ldr	r3, [r1, #0]
10002c8a:	2b00      	cmp	r3, #0
10002c8c:	d0fc      	beq.n	10002c88 <hardware_alarm_cancel+0x8>
10002c8e:	f3bf 8f5f 	dmb	sy
10002c92:	2301      	movs	r3, #1
10002c94:	4083      	lsls	r3, r0
10002c96:	4a07      	ldr	r2, [pc, #28]	; (10002cb4 <hardware_alarm_cancel+0x34>)
10002c98:	4807      	ldr	r0, [pc, #28]	; (10002cb8 <hardware_alarm_cancel+0x38>)
10002c9a:	6213      	str	r3, [r2, #32]
10002c9c:	7802      	ldrb	r2, [r0, #0]
10002c9e:	439a      	bics	r2, r3
10002ca0:	7002      	strb	r2, [r0, #0]
10002ca2:	f3bf 8f5f 	dmb	sy
10002ca6:	2300      	movs	r3, #0
10002ca8:	600b      	str	r3, [r1, #0]
10002caa:	f38c 8810 	msr	PRIMASK, ip
10002cae:	4770      	bx	lr
10002cb0:	d0000128 	.word	0xd0000128
10002cb4:	40054000 	.word	0x40054000
10002cb8:	20012dc0 	.word	0x20012dc0

10002cbc <ph_merge_nodes>:
10002cbc:	b570      	push	{r4, r5, r6, lr}
10002cbe:	0005      	movs	r5, r0
10002cc0:	0014      	movs	r4, r2
10002cc2:	0016      	movs	r6, r2
10002cc4:	2900      	cmp	r1, #0
10002cc6:	d015      	beq.n	10002cf4 <ph_merge_nodes+0x38>
10002cc8:	000c      	movs	r4, r1
10002cca:	2a00      	cmp	r2, #0
10002ccc:	d012      	beq.n	10002cf4 <ph_merge_nodes+0x38>
10002cce:	6880      	ldr	r0, [r0, #8]
10002cd0:	686b      	ldr	r3, [r5, #4]
10002cd2:	4798      	blx	r3
10002cd4:	6829      	ldr	r1, [r5, #0]
10002cd6:	2800      	cmp	r0, #0
10002cd8:	d00e      	beq.n	10002cf8 <ph_merge_nodes+0x3c>
10002cda:	0073      	lsls	r3, r6, #1
10002cdc:	199b      	adds	r3, r3, r6
10002cde:	0062      	lsls	r2, r4, #1
10002ce0:	3b03      	subs	r3, #3
10002ce2:	1912      	adds	r2, r2, r4
10002ce4:	18cb      	adds	r3, r1, r3
10002ce6:	3a03      	subs	r2, #3
10002ce8:	709c      	strb	r4, [r3, #2]
10002cea:	1888      	adds	r0, r1, r2
10002cec:	5c8a      	ldrb	r2, [r1, r2]
10002cee:	2a00      	cmp	r2, #0
10002cf0:	d115      	bne.n	10002d1e <ph_merge_nodes+0x62>
10002cf2:	7006      	strb	r6, [r0, #0]
10002cf4:	0020      	movs	r0, r4
10002cf6:	bd70      	pop	{r4, r5, r6, pc}
10002cf8:	0063      	lsls	r3, r4, #1
10002cfa:	191b      	adds	r3, r3, r4
10002cfc:	0072      	lsls	r2, r6, #1
10002cfe:	3b03      	subs	r3, #3
10002d00:	1992      	adds	r2, r2, r6
10002d02:	18cb      	adds	r3, r1, r3
10002d04:	3a03      	subs	r2, #3
10002d06:	709e      	strb	r6, [r3, #2]
10002d08:	1888      	adds	r0, r1, r2
10002d0a:	5c8a      	ldrb	r2, [r1, r2]
10002d0c:	2a00      	cmp	r2, #0
10002d0e:	d102      	bne.n	10002d16 <ph_merge_nodes+0x5a>
10002d10:	7004      	strb	r4, [r0, #0]
10002d12:	0034      	movs	r4, r6
10002d14:	e7ee      	b.n	10002cf4 <ph_merge_nodes+0x38>
10002d16:	705a      	strb	r2, [r3, #1]
10002d18:	7004      	strb	r4, [r0, #0]
10002d1a:	0034      	movs	r4, r6
10002d1c:	e7ea      	b.n	10002cf4 <ph_merge_nodes+0x38>
10002d1e:	705a      	strb	r2, [r3, #1]
10002d20:	7006      	strb	r6, [r0, #0]
10002d22:	e7e7      	b.n	10002cf4 <ph_merge_nodes+0x38>

10002d24 <ph_post_alloc_init>:
10002d24:	b530      	push	{r4, r5, lr}
10002d26:	6083      	str	r3, [r0, #8]
10002d28:	2300      	movs	r3, #0
10002d2a:	b2cc      	uxtb	r4, r1
10002d2c:	7343      	strb	r3, [r0, #13]
10002d2e:	3301      	adds	r3, #1
10002d30:	7304      	strb	r4, [r0, #12]
10002d32:	6042      	str	r2, [r0, #4]
10002d34:	7383      	strb	r3, [r0, #14]
10002d36:	73c4      	strb	r4, [r0, #15]
10002d38:	000d      	movs	r5, r1
10002d3a:	6800      	ldr	r0, [r0, #0]
10002d3c:	2c01      	cmp	r4, #1
10002d3e:	d906      	bls.n	10002d4e <ph_post_alloc_init+0x2a>
10002d40:	1c42      	adds	r2, r0, #1
10002d42:	3301      	adds	r3, #1
10002d44:	b2db      	uxtb	r3, r3
10002d46:	7013      	strb	r3, [r2, #0]
10002d48:	3203      	adds	r2, #3
10002d4a:	429c      	cmp	r4, r3
10002d4c:	d1f9      	bne.n	10002d42 <ph_post_alloc_init+0x1e>
10002d4e:	21ff      	movs	r1, #255	; 0xff
10002d50:	4029      	ands	r1, r5
10002d52:	004b      	lsls	r3, r1, #1
10002d54:	1859      	adds	r1, r3, r1
10002d56:	2300      	movs	r3, #0
10002d58:	1840      	adds	r0, r0, r1
10002d5a:	3803      	subs	r0, #3
10002d5c:	7043      	strb	r3, [r0, #1]
10002d5e:	bd30      	pop	{r4, r5, pc}

10002d60 <ph_merge_two_pass>:
10002d60:	b5f8      	push	{r3, r4, r5, r6, r7, lr}
10002d62:	46ce      	mov	lr, r9
10002d64:	4647      	mov	r7, r8
10002d66:	0006      	movs	r6, r0
10002d68:	000c      	movs	r4, r1
10002d6a:	b580      	push	{r7, lr}
10002d6c:	2900      	cmp	r1, #0
10002d6e:	d007      	beq.n	10002d80 <ph_merge_two_pass+0x20>
10002d70:	004d      	lsls	r5, r1, #1
10002d72:	6803      	ldr	r3, [r0, #0]
10002d74:	186d      	adds	r5, r5, r1
10002d76:	3d03      	subs	r5, #3
10002d78:	195a      	adds	r2, r3, r5
10002d7a:	7857      	ldrb	r7, [r2, #1]
10002d7c:	2f00      	cmp	r7, #0
10002d7e:	d104      	bne.n	10002d8a <ph_merge_two_pass+0x2a>
10002d80:	0020      	movs	r0, r4
10002d82:	bcc0      	pop	{r6, r7}
10002d84:	46b9      	mov	r9, r7
10002d86:	46b0      	mov	r8, r6
10002d88:	bdf8      	pop	{r3, r4, r5, r6, r7, pc}
10002d8a:	0079      	lsls	r1, r7, #1
10002d8c:	19c9      	adds	r1, r1, r7
10002d8e:	3903      	subs	r1, #3
10002d90:	4688      	mov	r8, r1
10002d92:	4443      	add	r3, r8
10002d94:	7859      	ldrb	r1, [r3, #1]
10002d96:	4689      	mov	r9, r1
10002d98:	2100      	movs	r1, #0
10002d9a:	7059      	strb	r1, [r3, #1]
10002d9c:	7051      	strb	r1, [r2, #1]
10002d9e:	6873      	ldr	r3, [r6, #4]
10002da0:	003a      	movs	r2, r7
10002da2:	0021      	movs	r1, r4
10002da4:	6880      	ldr	r0, [r0, #8]
10002da6:	4798      	blx	r3
10002da8:	6833      	ldr	r3, [r6, #0]
10002daa:	2800      	cmp	r0, #0
10002dac:	d014      	beq.n	10002dd8 <ph_merge_two_pass+0x78>
10002dae:	4642      	mov	r2, r8
10002db0:	189a      	adds	r2, r3, r2
10002db2:	7094      	strb	r4, [r2, #2]
10002db4:	1959      	adds	r1, r3, r5
10002db6:	5d5b      	ldrb	r3, [r3, r5]
10002db8:	2b00      	cmp	r3, #0
10002dba:	d000      	beq.n	10002dbe <ph_merge_two_pass+0x5e>
10002dbc:	7053      	strb	r3, [r2, #1]
10002dbe:	700f      	strb	r7, [r1, #0]
10002dc0:	0027      	movs	r7, r4
10002dc2:	4649      	mov	r1, r9
10002dc4:	0030      	movs	r0, r6
10002dc6:	f7ff ffcb 	bl	10002d60 <ph_merge_two_pass>
10002dca:	0039      	movs	r1, r7
10002dcc:	0002      	movs	r2, r0
10002dce:	0030      	movs	r0, r6
10002dd0:	f7ff ff74 	bl	10002cbc <ph_merge_nodes>
10002dd4:	0004      	movs	r4, r0
10002dd6:	e7d3      	b.n	10002d80 <ph_merge_two_pass+0x20>
10002dd8:	4642      	mov	r2, r8
10002dda:	4641      	mov	r1, r8
10002ddc:	195d      	adds	r5, r3, r5
10002dde:	70af      	strb	r7, [r5, #2]
10002de0:	189a      	adds	r2, r3, r2
10002de2:	5c5b      	ldrb	r3, [r3, r1]
10002de4:	2b00      	cmp	r3, #0
10002de6:	d000      	beq.n	10002dea <ph_merge_two_pass+0x8a>
10002de8:	706b      	strb	r3, [r5, #1]
10002dea:	7014      	strb	r4, [r2, #0]
10002dec:	e7e9      	b.n	10002dc2 <ph_merge_two_pass+0x62>
10002dee:	46c0      	nop			; (mov r8, r8)

10002df0 <ph_remove_any_head>:
10002df0:	b5f0      	push	{r4, r5, r6, r7, lr}
10002df2:	4657      	mov	r7, sl
10002df4:	4645      	mov	r5, r8
10002df6:	46de      	mov	lr, fp
10002df8:	464e      	mov	r6, r9
10002dfa:	b5e0      	push	{r5, r6, r7, lr}
10002dfc:	000d      	movs	r5, r1
10002dfe:	006b      	lsls	r3, r5, #1
10002e00:	6801      	ldr	r1, [r0, #0]
10002e02:	195b      	adds	r3, r3, r5
10002e04:	1edf      	subs	r7, r3, #3
10002e06:	0004      	movs	r4, r0
10002e08:	5dc8      	ldrb	r0, [r1, r7]
10002e0a:	b083      	sub	sp, #12
10002e0c:	9201      	str	r2, [sp, #4]
10002e0e:	19ca      	adds	r2, r1, r7
10002e10:	2800      	cmp	r0, #0
10002e12:	d04c      	beq.n	10002eae <ph_remove_any_head+0xbe>
10002e14:	0043      	lsls	r3, r0, #1
10002e16:	181b      	adds	r3, r3, r0
10002e18:	3b03      	subs	r3, #3
10002e1a:	18cb      	adds	r3, r1, r3
10002e1c:	785e      	ldrb	r6, [r3, #1]
10002e1e:	46b4      	mov	ip, r6
10002e20:	2e00      	cmp	r6, #0
10002e22:	d116      	bne.n	10002e52 <ph_remove_any_head+0x62>
10002e24:	9e01      	ldr	r6, [sp, #4]
10002e26:	2e00      	cmp	r6, #0
10002e28:	d03e      	beq.n	10002ea8 <ph_remove_any_head+0xb8>
10002e2a:	7be6      	ldrb	r6, [r4, #15]
10002e2c:	2e00      	cmp	r6, #0
10002e2e:	d004      	beq.n	10002e3a <ph_remove_any_head+0x4a>
10002e30:	0073      	lsls	r3, r6, #1
10002e32:	199b      	adds	r3, r3, r6
10002e34:	18cb      	adds	r3, r1, r3
10002e36:	3b03      	subs	r3, #3
10002e38:	705d      	strb	r5, [r3, #1]
10002e3a:	73e5      	strb	r5, [r4, #15]
10002e3c:	2800      	cmp	r0, #0
10002e3e:	d12f      	bne.n	10002ea0 <ph_remove_any_head+0xb0>
10002e40:	2300      	movs	r3, #0
10002e42:	7053      	strb	r3, [r2, #1]
10002e44:	b003      	add	sp, #12
10002e46:	bcf0      	pop	{r4, r5, r6, r7}
10002e48:	46bb      	mov	fp, r7
10002e4a:	46b2      	mov	sl, r6
10002e4c:	46a9      	mov	r9, r5
10002e4e:	46a0      	mov	r8, r4
10002e50:	bdf0      	pop	{r4, r5, r6, r7, pc}
10002e52:	0072      	lsls	r2, r6, #1
10002e54:	4462      	add	r2, ip
10002e56:	3a03      	subs	r2, #3
10002e58:	1889      	adds	r1, r1, r2
10002e5a:	784a      	ldrb	r2, [r1, #1]
10002e5c:	4690      	mov	r8, r2
10002e5e:	2200      	movs	r2, #0
10002e60:	704a      	strb	r2, [r1, #1]
10002e62:	4691      	mov	r9, r2
10002e64:	705a      	strb	r2, [r3, #1]
10002e66:	0001      	movs	r1, r0
10002e68:	0032      	movs	r2, r6
10002e6a:	0020      	movs	r0, r4
10002e6c:	f7ff ff26 	bl	10002cbc <ph_merge_nodes>
10002e70:	4643      	mov	r3, r8
10002e72:	4682      	mov	sl, r0
10002e74:	2b00      	cmp	r3, #0
10002e76:	d007      	beq.n	10002e88 <ph_remove_any_head+0x98>
10002e78:	005b      	lsls	r3, r3, #1
10002e7a:	6821      	ldr	r1, [r4, #0]
10002e7c:	4443      	add	r3, r8
10002e7e:	3b03      	subs	r3, #3
10002e80:	18cb      	adds	r3, r1, r3
10002e82:	785a      	ldrb	r2, [r3, #1]
10002e84:	2a00      	cmp	r2, #0
10002e86:	d116      	bne.n	10002eb6 <ph_remove_any_head+0xc6>
10002e88:	4642      	mov	r2, r8
10002e8a:	4651      	mov	r1, sl
10002e8c:	0020      	movs	r0, r4
10002e8e:	f7ff ff15 	bl	10002cbc <ph_merge_nodes>
10002e92:	6821      	ldr	r1, [r4, #0]
10002e94:	9b01      	ldr	r3, [sp, #4]
10002e96:	19ca      	adds	r2, r1, r7
10002e98:	2b00      	cmp	r3, #0
10002e9a:	d1c6      	bne.n	10002e2a <ph_remove_any_head+0x3a>
10002e9c:	2800      	cmp	r0, #0
10002e9e:	d0cf      	beq.n	10002e40 <ph_remove_any_head+0x50>
10002ea0:	0043      	lsls	r3, r0, #1
10002ea2:	181b      	adds	r3, r3, r0
10002ea4:	3b03      	subs	r3, #3
10002ea6:	18cb      	adds	r3, r1, r3
10002ea8:	2100      	movs	r1, #0
10002eaa:	7099      	strb	r1, [r3, #2]
10002eac:	e7c8      	b.n	10002e40 <ph_remove_any_head+0x50>
10002eae:	9b01      	ldr	r3, [sp, #4]
10002eb0:	2b00      	cmp	r3, #0
10002eb2:	d1ba      	bne.n	10002e2a <ph_remove_any_head+0x3a>
10002eb4:	e7c4      	b.n	10002e40 <ph_remove_any_head+0x50>
10002eb6:	0050      	lsls	r0, r2, #1
10002eb8:	1880      	adds	r0, r0, r2
10002eba:	3803      	subs	r0, #3
10002ebc:	1809      	adds	r1, r1, r0
10002ebe:	7848      	ldrb	r0, [r1, #1]
10002ec0:	4683      	mov	fp, r0
10002ec2:	4648      	mov	r0, r9
10002ec4:	7048      	strb	r0, [r1, #1]
10002ec6:	7058      	strb	r0, [r3, #1]
10002ec8:	4641      	mov	r1, r8
10002eca:	0020      	movs	r0, r4
10002ecc:	f7ff fef6 	bl	10002cbc <ph_merge_nodes>
10002ed0:	4659      	mov	r1, fp
10002ed2:	4680      	mov	r8, r0
10002ed4:	0020      	movs	r0, r4
10002ed6:	f7ff ff43 	bl	10002d60 <ph_merge_two_pass>
10002eda:	4641      	mov	r1, r8
10002edc:	0002      	movs	r2, r0
10002ede:	0020      	movs	r0, r4
10002ee0:	f7ff feec 	bl	10002cbc <ph_merge_nodes>
10002ee4:	4680      	mov	r8, r0
10002ee6:	e7cf      	b.n	10002e88 <ph_remove_any_head+0x98>

10002ee8 <ph_remove_head>:
10002ee8:	b5f0      	push	{r4, r5, r6, r7, lr}
10002eea:	4657      	mov	r7, sl
10002eec:	4645      	mov	r5, r8
10002eee:	46de      	mov	lr, fp
10002ef0:	464e      	mov	r6, r9
10002ef2:	b5e0      	push	{r5, r6, r7, lr}
10002ef4:	b083      	sub	sp, #12
10002ef6:	9101      	str	r1, [sp, #4]
10002ef8:	7b45      	ldrb	r5, [r0, #13]
10002efa:	0004      	movs	r4, r0
10002efc:	006b      	lsls	r3, r5, #1
10002efe:	6800      	ldr	r0, [r0, #0]
10002f00:	195b      	adds	r3, r3, r5
10002f02:	1edf      	subs	r7, r3, #3
10002f04:	5dc1      	ldrb	r1, [r0, r7]
10002f06:	19c2      	adds	r2, r0, r7
10002f08:	2900      	cmp	r1, #0
10002f0a:	d04e      	beq.n	10002faa <ph_remove_head+0xc2>
10002f0c:	004b      	lsls	r3, r1, #1
10002f0e:	185b      	adds	r3, r3, r1
10002f10:	3b03      	subs	r3, #3
10002f12:	18c3      	adds	r3, r0, r3
10002f14:	785e      	ldrb	r6, [r3, #1]
10002f16:	46b4      	mov	ip, r6
10002f18:	2e00      	cmp	r6, #0
10002f1a:	d118      	bne.n	10002f4e <ph_remove_head+0x66>
10002f1c:	9e01      	ldr	r6, [sp, #4]
10002f1e:	2e00      	cmp	r6, #0
10002f20:	d040      	beq.n	10002fa4 <ph_remove_head+0xbc>
10002f22:	7be6      	ldrb	r6, [r4, #15]
10002f24:	2e00      	cmp	r6, #0
10002f26:	d004      	beq.n	10002f32 <ph_remove_head+0x4a>
10002f28:	0073      	lsls	r3, r6, #1
10002f2a:	199b      	adds	r3, r3, r6
10002f2c:	18c3      	adds	r3, r0, r3
10002f2e:	3b03      	subs	r3, #3
10002f30:	705d      	strb	r5, [r3, #1]
10002f32:	73e5      	strb	r5, [r4, #15]
10002f34:	2900      	cmp	r1, #0
10002f36:	d131      	bne.n	10002f9c <ph_remove_head+0xb4>
10002f38:	2300      	movs	r3, #0
10002f3a:	0028      	movs	r0, r5
10002f3c:	7053      	strb	r3, [r2, #1]
10002f3e:	7361      	strb	r1, [r4, #13]
10002f40:	b003      	add	sp, #12
10002f42:	bcf0      	pop	{r4, r5, r6, r7}
10002f44:	46bb      	mov	fp, r7
10002f46:	46b2      	mov	sl, r6
10002f48:	46a9      	mov	r9, r5
10002f4a:	46a0      	mov	r8, r4
10002f4c:	bdf0      	pop	{r4, r5, r6, r7, pc}
10002f4e:	0072      	lsls	r2, r6, #1
10002f50:	4462      	add	r2, ip
10002f52:	3a03      	subs	r2, #3
10002f54:	1880      	adds	r0, r0, r2
10002f56:	7842      	ldrb	r2, [r0, #1]
10002f58:	4690      	mov	r8, r2
10002f5a:	2200      	movs	r2, #0
10002f5c:	7042      	strb	r2, [r0, #1]
10002f5e:	4691      	mov	r9, r2
10002f60:	705a      	strb	r2, [r3, #1]
10002f62:	0020      	movs	r0, r4
10002f64:	0032      	movs	r2, r6
10002f66:	f7ff fea9 	bl	10002cbc <ph_merge_nodes>
10002f6a:	4643      	mov	r3, r8
10002f6c:	4682      	mov	sl, r0
10002f6e:	2b00      	cmp	r3, #0
10002f70:	d007      	beq.n	10002f82 <ph_remove_head+0x9a>
10002f72:	005b      	lsls	r3, r3, #1
10002f74:	6821      	ldr	r1, [r4, #0]
10002f76:	4443      	add	r3, r8
10002f78:	3b03      	subs	r3, #3
10002f7a:	18cb      	adds	r3, r1, r3
10002f7c:	785a      	ldrb	r2, [r3, #1]
10002f7e:	2a00      	cmp	r2, #0
10002f80:	d117      	bne.n	10002fb2 <ph_remove_head+0xca>
10002f82:	4642      	mov	r2, r8
10002f84:	4651      	mov	r1, sl
10002f86:	0020      	movs	r0, r4
10002f88:	f7ff fe98 	bl	10002cbc <ph_merge_nodes>
10002f8c:	9b01      	ldr	r3, [sp, #4]
10002f8e:	0001      	movs	r1, r0
10002f90:	6820      	ldr	r0, [r4, #0]
10002f92:	19c2      	adds	r2, r0, r7
10002f94:	2b00      	cmp	r3, #0
10002f96:	d1c4      	bne.n	10002f22 <ph_remove_head+0x3a>
10002f98:	2900      	cmp	r1, #0
10002f9a:	d0cd      	beq.n	10002f38 <ph_remove_head+0x50>
10002f9c:	004b      	lsls	r3, r1, #1
10002f9e:	185b      	adds	r3, r3, r1
10002fa0:	3b03      	subs	r3, #3
10002fa2:	18c3      	adds	r3, r0, r3
10002fa4:	2000      	movs	r0, #0
10002fa6:	7098      	strb	r0, [r3, #2]
10002fa8:	e7c6      	b.n	10002f38 <ph_remove_head+0x50>
10002faa:	9b01      	ldr	r3, [sp, #4]
10002fac:	2b00      	cmp	r3, #0
10002fae:	d1b8      	bne.n	10002f22 <ph_remove_head+0x3a>
10002fb0:	e7c2      	b.n	10002f38 <ph_remove_head+0x50>
10002fb2:	0050      	lsls	r0, r2, #1
10002fb4:	1880      	adds	r0, r0, r2
10002fb6:	3803      	subs	r0, #3
10002fb8:	1809      	adds	r1, r1, r0
10002fba:	7848      	ldrb	r0, [r1, #1]
10002fbc:	4683      	mov	fp, r0
10002fbe:	4648      	mov	r0, r9
10002fc0:	7048      	strb	r0, [r1, #1]
10002fc2:	7058      	strb	r0, [r3, #1]
10002fc4:	4641      	mov	r1, r8
10002fc6:	0020      	movs	r0, r4
10002fc8:	f7ff fe78 	bl	10002cbc <ph_merge_nodes>
10002fcc:	4659      	mov	r1, fp
10002fce:	4680      	mov	r8, r0
10002fd0:	0020      	movs	r0, r4
10002fd2:	f7ff fec5 	bl	10002d60 <ph_merge_two_pass>
10002fd6:	4641      	mov	r1, r8
10002fd8:	0002      	movs	r2, r0
10002fda:	0020      	movs	r0, r4
10002fdc:	f7ff fe6e 	bl	10002cbc <ph_merge_nodes>
10002fe0:	4680      	mov	r8, r0
10002fe2:	e7ce      	b.n	10002f82 <ph_remove_head+0x9a>

10002fe4 <ph_remove_and_free_node>:
10002fe4:	b570      	push	{r4, r5, r6, lr}
10002fe6:	0004      	movs	r4, r0
10002fe8:	2900      	cmp	r1, #0
10002fea:	d02c      	beq.n	10003046 <ph_remove_and_free_node+0x62>
10002fec:	7b43      	ldrb	r3, [r0, #13]
10002fee:	428b      	cmp	r3, r1
10002ff0:	d02e      	beq.n	10003050 <ph_remove_and_free_node+0x6c>
10002ff2:	6805      	ldr	r5, [r0, #0]
10002ff4:	0048      	lsls	r0, r1, #1
10002ff6:	1840      	adds	r0, r0, r1
10002ff8:	3803      	subs	r0, #3
10002ffa:	1828      	adds	r0, r5, r0
10002ffc:	7882      	ldrb	r2, [r0, #2]
10002ffe:	2a00      	cmp	r2, #0
10003000:	d021      	beq.n	10003046 <ph_remove_and_free_node+0x62>
10003002:	0053      	lsls	r3, r2, #1
10003004:	189b      	adds	r3, r3, r2
10003006:	3b03      	subs	r3, #3
10003008:	5cea      	ldrb	r2, [r5, r3]
1000300a:	18ee      	adds	r6, r5, r3
1000300c:	428a      	cmp	r2, r1
1000300e:	d102      	bne.n	10003016 <ph_remove_and_free_node+0x32>
10003010:	e01b      	b.n	1000304a <ph_remove_and_free_node+0x66>
10003012:	2a00      	cmp	r2, #0
10003014:	d008      	beq.n	10003028 <ph_remove_and_free_node+0x44>
10003016:	0053      	lsls	r3, r2, #1
10003018:	189b      	adds	r3, r3, r2
1000301a:	3b03      	subs	r3, #3
1000301c:	18eb      	adds	r3, r5, r3
1000301e:	785a      	ldrb	r2, [r3, #1]
10003020:	428a      	cmp	r2, r1
10003022:	d1f6      	bne.n	10003012 <ph_remove_and_free_node+0x2e>
10003024:	7842      	ldrb	r2, [r0, #1]
10003026:	705a      	strb	r2, [r3, #1]
10003028:	2300      	movs	r3, #0
1000302a:	2201      	movs	r2, #1
1000302c:	7083      	strb	r3, [r0, #2]
1000302e:	7043      	strb	r3, [r0, #1]
10003030:	0020      	movs	r0, r4
10003032:	f7ff fedd 	bl	10002df0 <ph_remove_any_head>
10003036:	7b61      	ldrb	r1, [r4, #13]
10003038:	0002      	movs	r2, r0
1000303a:	0020      	movs	r0, r4
1000303c:	f7ff fe3e 	bl	10002cbc <ph_merge_nodes>
10003040:	7360      	strb	r0, [r4, #13]
10003042:	2001      	movs	r0, #1
10003044:	e000      	b.n	10003048 <ph_remove_and_free_node+0x64>
10003046:	2000      	movs	r0, #0
10003048:	bd70      	pop	{r4, r5, r6, pc}
1000304a:	7843      	ldrb	r3, [r0, #1]
1000304c:	7033      	strb	r3, [r6, #0]
1000304e:	e7eb      	b.n	10003028 <ph_remove_and_free_node+0x44>
10003050:	2201      	movs	r2, #1
10003052:	0019      	movs	r1, r3
10003054:	f7ff fecc 	bl	10002df0 <ph_remove_any_head>
10003058:	7360      	strb	r0, [r4, #13]
1000305a:	2001      	movs	r0, #1
1000305c:	e7f4      	b.n	10003048 <ph_remove_and_free_node+0x64>
1000305e:	46c0      	nop			; (mov r8, r8)

10003060 <mutex_init>:
10003060:	b510      	push	{r4, lr}
10003062:	0004      	movs	r4, r0
10003064:	f7fe fe3c 	bl	10001ce0 <next_striped_spin_lock_num>
10003068:	0001      	movs	r1, r0
1000306a:	0020      	movs	r0, r4
1000306c:	f7ff f950 	bl	10002310 <lock_init>
10003070:	2301      	movs	r3, #1
10003072:	425b      	negs	r3, r3
10003074:	6063      	str	r3, [r4, #4]
10003076:	f3bf 8f5f 	dmb	sy
1000307a:	bd10      	pop	{r4, pc}

1000307c <recursive_mutex_init>:
1000307c:	b510      	push	{r4, lr}
1000307e:	0004      	movs	r4, r0
10003080:	f7fe fe2e 	bl	10001ce0 <next_striped_spin_lock_num>
10003084:	0001      	movs	r1, r0
10003086:	0020      	movs	r0, r4
10003088:	f7ff f942 	bl	10002310 <lock_init>
1000308c:	2301      	movs	r3, #1
1000308e:	425b      	negs	r3, r3
10003090:	6063      	str	r3, [r4, #4]
10003092:	2300      	movs	r3, #0
10003094:	7223      	strb	r3, [r4, #8]
10003096:	f3bf 8f5f 	dmb	sy
1000309a:	bd10      	pop	{r4, pc}

1000309c <critical_section_init>:
1000309c:	b510      	push	{r4, lr}
1000309e:	0004      	movs	r4, r0
100030a0:	2001      	movs	r0, #1
100030a2:	f7fe fe29 	bl	10001cf8 <spin_lock_claim_unused>
100030a6:	4b04      	ldr	r3, [pc, #16]	; (100030b8 <critical_section_init+0x1c>)
100030a8:	469c      	mov	ip, r3
100030aa:	4460      	add	r0, ip
100030ac:	0080      	lsls	r0, r0, #2
100030ae:	6020      	str	r0, [r4, #0]
100030b0:	f3bf 8f5f 	dmb	sy
100030b4:	bd10      	pop	{r4, pc}
100030b6:	46c0      	nop			; (mov r8, r8)
100030b8:	34000040 	.word	0x34000040

100030bc <dma_channel_unclaim>:
100030bc:	b510      	push	{r4, lr}
100030be:	0001      	movs	r1, r0
100030c0:	4801      	ldr	r0, [pc, #4]	; (100030c8 <dma_channel_unclaim+0xc>)
100030c2:	f7fe fddb 	bl	10001c7c <hw_claim_clear>
100030c6:	bd10      	pop	{r4, pc}
100030c8:	20012db4 	.word	0x20012db4

100030cc <dma_claim_unused_channel>:
100030cc:	b500      	push	{lr}
100030ce:	4b05      	ldr	r3, [pc, #20]	; (100030e4 <dma_claim_unused_channel+0x18>)
100030d0:	b083      	sub	sp, #12
100030d2:	0001      	movs	r1, r0
100030d4:	9300      	str	r3, [sp, #0]
100030d6:	2200      	movs	r2, #0
100030d8:	230b      	movs	r3, #11
100030da:	4803      	ldr	r0, [pc, #12]	; (100030e8 <dma_claim_unused_channel+0x1c>)
100030dc:	f7fe fd80 	bl	10001be0 <hw_claim_unused_from_range>
100030e0:	b003      	add	sp, #12
100030e2:	bd00      	pop	{pc}
100030e4:	1000b418 	.word	0x1000b418
100030e8:	20012db4 	.word	0x20012db4

100030ec <dma_channel_is_claimed>:
100030ec:	b510      	push	{r4, lr}
100030ee:	0001      	movs	r1, r0
100030f0:	4801      	ldr	r0, [pc, #4]	; (100030f8 <dma_channel_is_claimed+0xc>)
100030f2:	f7fe fd47 	bl	10001b84 <hw_is_claimed>
100030f6:	bd10      	pop	{r4, pc}
100030f8:	20012db4 	.word	0x20012db4

100030fc <isr_svcall>:
100030fc:	4770      	bx	lr
100030fe:	46c0      	nop			; (mov r8, r8)

10003100 <vPortStartFirstTask>:
10003100:	4a0b      	ldr	r2, [pc, #44]	; (10003130 <pxCurrentTCBConst1>)
10003102:	6813      	ldr	r3, [r2, #0]
10003104:	6818      	ldr	r0, [r3, #0]
10003106:	3020      	adds	r0, #32
10003108:	f380 8809 	msr	PSP, r0
1000310c:	2002      	movs	r0, #2
1000310e:	f380 8814 	msr	CONTROL, r0
10003112:	f3bf 8f6f 	isb	sy
10003116:	bc3f      	pop	{r0, r1, r2, r3, r4, r5}
10003118:	46ae      	mov	lr, r5
1000311a:	bc08      	pop	{r3}
1000311c:	bc04      	pop	{r2}
1000311e:	b662      	cpsie	i
10003120:	4718      	bx	r3
10003122:	46c0      	nop			; (mov r8, r8)
10003124:	46c0      	nop			; (mov r8, r8)
10003126:	46c0      	nop			; (mov r8, r8)
10003128:	46c0      	nop			; (mov r8, r8)
1000312a:	46c0      	nop			; (mov r8, r8)
1000312c:	46c0      	nop			; (mov r8, r8)
1000312e:	46c0      	nop			; (mov r8, r8)

10003130 <pxCurrentTCBConst1>:
10003130:	2000af30 	.word	0x2000af30
	...

10003140 <isr_pendsv>:
10003140:	f3ef 8009 	mrs	r0, PSP
10003144:	4b16      	ldr	r3, [pc, #88]	; (100031a0 <pxCurrentTCBConst2>)
10003146:	681a      	ldr	r2, [r3, #0]
10003148:	3820      	subs	r0, #32
1000314a:	6010      	str	r0, [r2, #0]
1000314c:	c0f0      	stmia	r0!, {r4, r5, r6, r7}
1000314e:	4644      	mov	r4, r8
10003150:	464d      	mov	r5, r9
10003152:	4656      	mov	r6, sl
10003154:	465f      	mov	r7, fp
10003156:	c0f0      	stmia	r0!, {r4, r5, r6, r7}
10003158:	220d      	movs	r2, #13
1000315a:	0712      	lsls	r2, r2, #28
1000315c:	6e14      	ldr	r4, [r2, #96]	; 0x60
1000315e:	6e55      	ldr	r5, [r2, #100]	; 0x64
10003160:	6f56      	ldr	r6, [r2, #116]	; 0x74
10003162:	6f17      	ldr	r7, [r2, #112]	; 0x70
10003164:	3830      	subs	r0, #48	; 0x30
10003166:	c0f0      	stmia	r0!, {r4, r5, r6, r7}
10003168:	b508      	push	{r3, lr}
1000316a:	b672      	cpsid	i
1000316c:	f001 feba 	bl	10004ee4 <vTaskSwitchContext>
10003170:	b662      	cpsie	i
10003172:	bc0c      	pop	{r2, r3}
10003174:	6811      	ldr	r1, [r2, #0]
10003176:	6808      	ldr	r0, [r1, #0]
10003178:	3010      	adds	r0, #16
1000317a:	c8f0      	ldmia	r0!, {r4, r5, r6, r7}
1000317c:	46a0      	mov	r8, r4
1000317e:	46a9      	mov	r9, r5
10003180:	46b2      	mov	sl, r6
10003182:	46bb      	mov	fp, r7
10003184:	f380 8809 	msr	PSP, r0
10003188:	220d      	movs	r2, #13
1000318a:	0712      	lsls	r2, r2, #28
1000318c:	3830      	subs	r0, #48	; 0x30
1000318e:	c8f0      	ldmia	r0!, {r4, r5, r6, r7}
10003190:	6614      	str	r4, [r2, #96]	; 0x60
10003192:	6655      	str	r5, [r2, #100]	; 0x64
10003194:	6756      	str	r6, [r2, #116]	; 0x74
10003196:	6717      	str	r7, [r2, #112]	; 0x70
10003198:	c8f0      	ldmia	r0!, {r4, r5, r6, r7}
1000319a:	4718      	bx	r3
1000319c:	46c0      	nop			; (mov r8, r8)
1000319e:	46c0      	nop			; (mov r8, r8)

100031a0 <pxCurrentTCBConst2>:
100031a0:	2000af30 	.word	0x2000af30

100031a4 <prvFIFOInterruptHandler>:
100031a4:	23d0      	movs	r3, #208	; 0xd0
100031a6:	b500      	push	{lr}
100031a8:	061b      	lsls	r3, r3, #24
100031aa:	6d1a      	ldr	r2, [r3, #80]	; 0x50
100031ac:	b083      	sub	sp, #12
100031ae:	07d2      	lsls	r2, r2, #31
100031b0:	d504      	bpl.n	100031bc <prvFIFOInterruptHandler+0x18>
100031b2:	2101      	movs	r1, #1
100031b4:	6d9a      	ldr	r2, [r3, #88]	; 0x58
100031b6:	6d1a      	ldr	r2, [r3, #80]	; 0x50
100031b8:	4211      	tst	r1, r2
100031ba:	d1fb      	bne.n	100031b4 <prvFIFOInterruptHandler+0x10>
100031bc:	23d0      	movs	r3, #208	; 0xd0
100031be:	22ff      	movs	r2, #255	; 0xff
100031c0:	061b      	lsls	r3, r3, #24
100031c2:	651a      	str	r2, [r3, #80]	; 0x50
100031c4:	2300      	movs	r3, #0
100031c6:	4912      	ldr	r1, [pc, #72]	; (10003210 <prvFIFOInterruptHandler+0x6c>)
100031c8:	9301      	str	r3, [sp, #4]
100031ca:	680a      	ldr	r2, [r1, #0]
100031cc:	f3ef 8c10 	mrs	ip, PRIMASK
100031d0:	b672      	cpsid	i
100031d2:	6813      	ldr	r3, [r2, #0]
100031d4:	2b00      	cmp	r3, #0
100031d6:	d0fc      	beq.n	100031d2 <prvFIFOInterruptHandler+0x2e>
100031d8:	f3bf 8f5f 	dmb	sy
100031dc:	2300      	movs	r3, #0
100031de:	480d      	ldr	r0, [pc, #52]	; (10003214 <prvFIFOInterruptHandler+0x70>)
100031e0:	6809      	ldr	r1, [r1, #0]
100031e2:	6802      	ldr	r2, [r0, #0]
100031e4:	6003      	str	r3, [r0, #0]
100031e6:	f3bf 8f5f 	dmb	sy
100031ea:	600b      	str	r3, [r1, #0]
100031ec:	f38c 8810 	msr	PRIMASK, ip
100031f0:	4b09      	ldr	r3, [pc, #36]	; (10003218 <prvFIFOInterruptHandler+0x74>)
100031f2:	480a      	ldr	r0, [pc, #40]	; (1000321c <prvFIFOInterruptHandler+0x78>)
100031f4:	6819      	ldr	r1, [r3, #0]
100031f6:	ab01      	add	r3, sp, #4
100031f8:	f002 fbb4 	bl	10005964 <xTimerPendFunctionCallFromISR>
100031fc:	9b01      	ldr	r3, [sp, #4]
100031fe:	2b00      	cmp	r3, #0
10003200:	d003      	beq.n	1000320a <prvFIFOInterruptHandler+0x66>
10003202:	2280      	movs	r2, #128	; 0x80
10003204:	4b06      	ldr	r3, [pc, #24]	; (10003220 <prvFIFOInterruptHandler+0x7c>)
10003206:	0552      	lsls	r2, r2, #21
10003208:	601a      	str	r2, [r3, #0]
1000320a:	b003      	add	sp, #12
1000320c:	bd00      	pop	{pc}
1000320e:	46c0      	nop			; (mov r8, r8)
10003210:	2000af2c 	.word	0x2000af2c
10003214:	20012ce0 	.word	0x20012ce0
10003218:	20012d48 	.word	0x20012d48
1000321c:	100037a9 	.word	0x100037a9
10003220:	e000ed04 	.word	0xe000ed04

10003224 <prvTaskExitError>:
10003224:	b510      	push	{r4, lr}
10003226:	f002 fcad 	bl	10005b84 <panic_unsupported>
1000322a:	46c0      	nop			; (mov r8, r8)

1000322c <pxPortInitialiseStack>:
1000322c:	b510      	push	{r4, lr}
1000322e:	2480      	movs	r4, #128	; 0x80
10003230:	1f03      	subs	r3, r0, #4
10003232:	0464      	lsls	r4, r4, #17
10003234:	601c      	str	r4, [r3, #0]
10003236:	3b04      	subs	r3, #4
10003238:	6019      	str	r1, [r3, #0]
1000323a:	4903      	ldr	r1, [pc, #12]	; (10003248 <pxPortInitialiseStack+0x1c>)
1000323c:	3b04      	subs	r3, #4
1000323e:	6019      	str	r1, [r3, #0]
10003240:	3b14      	subs	r3, #20
10003242:	3840      	subs	r0, #64	; 0x40
10003244:	601a      	str	r2, [r3, #0]
10003246:	bd10      	pop	{r4, pc}
10003248:	10003225 	.word	0x10003225

1000324c <vPortYield>:
1000324c:	2280      	movs	r2, #128	; 0x80
1000324e:	4b04      	ldr	r3, [pc, #16]	; (10003260 <vPortYield+0x14>)
10003250:	0552      	lsls	r2, r2, #21
10003252:	601a      	str	r2, [r3, #0]
10003254:	f3bf 8f4f 	dsb	sy
10003258:	f3bf 8f6f 	isb	sy
1000325c:	4770      	bx	lr
1000325e:	46c0      	nop			; (mov r8, r8)
10003260:	e000ed04 	.word	0xe000ed04

10003264 <vPortEnterCritical>:
10003264:	b672      	cpsid	i
10003266:	4a04      	ldr	r2, [pc, #16]	; (10003278 <vPortEnterCritical+0x14>)
10003268:	6813      	ldr	r3, [r2, #0]
1000326a:	3301      	adds	r3, #1
1000326c:	6013      	str	r3, [r2, #0]
1000326e:	f3bf 8f4f 	dsb	sy
10003272:	f3bf 8f6f 	isb	sy
10003276:	4770      	bx	lr
10003278:	20012cdc 	.word	0x20012cdc

1000327c <vPortExitCritical>:
1000327c:	4a09      	ldr	r2, [pc, #36]	; (100032a4 <vPortExitCritical+0x28>)
1000327e:	6813      	ldr	r3, [r2, #0]
10003280:	3b01      	subs	r3, #1
10003282:	6013      	str	r3, [r2, #0]
10003284:	2b00      	cmp	r3, #0
10003286:	d10c      	bne.n	100032a2 <vPortExitCritical+0x26>
10003288:	4a07      	ldr	r2, [pc, #28]	; (100032a8 <vPortExitCritical+0x2c>)
1000328a:	6811      	ldr	r1, [r2, #0]
1000328c:	2900      	cmp	r1, #0
1000328e:	d007      	beq.n	100032a0 <vPortExitCritical+0x24>
10003290:	4806      	ldr	r0, [pc, #24]	; (100032ac <vPortExitCritical+0x30>)
10003292:	6800      	ldr	r0, [r0, #0]
10003294:	f3bf 8f5f 	dmb	sy
10003298:	600b      	str	r3, [r1, #0]
1000329a:	f380 8810 	msr	PRIMASK, r0
1000329e:	6013      	str	r3, [r2, #0]
100032a0:	b662      	cpsie	i
100032a2:	4770      	bx	lr
100032a4:	20012cdc 	.word	0x20012cdc
100032a8:	2000af94 	.word	0x2000af94
100032ac:	20012cc0 	.word	0x20012cc0

100032b0 <ulSetInterruptMaskFromISR>:
100032b0:	f3ef 8010 	mrs	r0, PRIMASK
100032b4:	b672      	cpsid	i
100032b6:	4770      	bx	lr

100032b8 <vClearInterruptMaskFromISR>:
100032b8:	f380 8810 	msr	PRIMASK, r0
100032bc:	4770      	bx	lr
100032be:	46c0      	nop			; (mov r8, r8)

100032c0 <isr_systick>:
100032c0:	b510      	push	{r4, lr}
100032c2:	f7ff fff5 	bl	100032b0 <ulSetInterruptMaskFromISR>
100032c6:	0004      	movs	r4, r0
100032c8:	f001 fdfa 	bl	10004ec0 <xTaskIncrementTick>
100032cc:	2800      	cmp	r0, #0
100032ce:	d003      	beq.n	100032d8 <isr_systick+0x18>
100032d0:	2280      	movs	r2, #128	; 0x80
100032d2:	4b03      	ldr	r3, [pc, #12]	; (100032e0 <isr_systick+0x20>)
100032d4:	0552      	lsls	r2, r2, #21
100032d6:	601a      	str	r2, [r3, #0]
100032d8:	0020      	movs	r0, r4
100032da:	f7ff ffed 	bl	100032b8 <vClearInterruptMaskFromISR>
100032de:	bd10      	pop	{r4, pc}
100032e0:	e000ed04 	.word	0xe000ed04

100032e4 <vPortSetupTimerInterrupt>:
100032e4:	2300      	movs	r3, #0
100032e6:	b510      	push	{r4, lr}
100032e8:	4a07      	ldr	r2, [pc, #28]	; (10003308 <vPortSetupTimerInterrupt+0x24>)
100032ea:	4c08      	ldr	r4, [pc, #32]	; (1000330c <vPortSetupTimerInterrupt+0x28>)
100032ec:	2005      	movs	r0, #5
100032ee:	6023      	str	r3, [r4, #0]
100032f0:	6013      	str	r3, [r2, #0]
100032f2:	f002 fdb1 	bl	10005e58 <clock_get_hz>
100032f6:	2164      	movs	r1, #100	; 0x64
100032f8:	f004 f9b8 	bl	1000766c <__wrap___aeabi_uidiv>
100032fc:	4b04      	ldr	r3, [pc, #16]	; (10003310 <vPortSetupTimerInterrupt+0x2c>)
100032fe:	3801      	subs	r0, #1
10003300:	6018      	str	r0, [r3, #0]
10003302:	2307      	movs	r3, #7
10003304:	6023      	str	r3, [r4, #0]
10003306:	bd10      	pop	{r4, pc}
10003308:	e000e018 	.word	0xe000e018
1000330c:	e000e010 	.word	0xe000e010
10003310:	e000e014 	.word	0xe000e014

10003314 <xPortStartScheduler>:
10003314:	22ff      	movs	r2, #255	; 0xff
10003316:	4b22      	ldr	r3, [pc, #136]	; (100033a0 <xPortStartScheduler+0x8c>)
10003318:	0412      	lsls	r2, r2, #16
1000331a:	6819      	ldr	r1, [r3, #0]
1000331c:	b510      	push	{r4, lr}
1000331e:	430a      	orrs	r2, r1
10003320:	601a      	str	r2, [r3, #0]
10003322:	22ff      	movs	r2, #255	; 0xff
10003324:	2002      	movs	r0, #2
10003326:	6819      	ldr	r1, [r3, #0]
10003328:	0612      	lsls	r2, r2, #24
1000332a:	430a      	orrs	r2, r1
1000332c:	601a      	str	r2, [r3, #0]
1000332e:	491d      	ldr	r1, [pc, #116]	; (100033a4 <xPortStartScheduler+0x90>)
10003330:	4240      	negs	r0, r0
10003332:	f002 fb2b 	bl	1000598c <exception_set_exclusive_handler>
10003336:	2001      	movs	r0, #1
10003338:	491b      	ldr	r1, [pc, #108]	; (100033a8 <xPortStartScheduler+0x94>)
1000333a:	4240      	negs	r0, r0
1000333c:	f002 fb26 	bl	1000598c <exception_set_exclusive_handler>
10003340:	2005      	movs	r0, #5
10003342:	491a      	ldr	r1, [pc, #104]	; (100033ac <xPortStartScheduler+0x98>)
10003344:	4240      	negs	r0, r0
10003346:	f002 fb21 	bl	1000598c <exception_set_exclusive_handler>
1000334a:	f7ff ffcb 	bl	100032e4 <vPortSetupTimerInterrupt>
1000334e:	2200      	movs	r2, #0
10003350:	4b17      	ldr	r3, [pc, #92]	; (100033b0 <xPortStartScheduler+0x9c>)
10003352:	601a      	str	r2, [r3, #0]
10003354:	23d0      	movs	r3, #208	; 0xd0
10003356:	061b      	lsls	r3, r3, #24
10003358:	4a16      	ldr	r2, [pc, #88]	; (100033b4 <xPortStartScheduler+0xa0>)
1000335a:	6819      	ldr	r1, [r3, #0]
1000335c:	7011      	strb	r1, [r2, #0]
1000335e:	22ff      	movs	r2, #255	; 0xff
10003360:	651a      	str	r2, [r3, #80]	; 0x50
10003362:	6d1a      	ldr	r2, [r3, #80]	; 0x50
10003364:	07d2      	lsls	r2, r2, #31
10003366:	d504      	bpl.n	10003372 <xPortStartScheduler+0x5e>
10003368:	2101      	movs	r1, #1
1000336a:	6d9a      	ldr	r2, [r3, #88]	; 0x58
1000336c:	6d1a      	ldr	r2, [r3, #80]	; 0x50
1000336e:	4211      	tst	r1, r2
10003370:	d1fb      	bne.n	1000336a <xPortStartScheduler+0x56>
10003372:	23d0      	movs	r3, #208	; 0xd0
10003374:	061b      	lsls	r3, r3, #24
10003376:	681c      	ldr	r4, [r3, #0]
10003378:	21ff      	movs	r1, #255	; 0xff
1000337a:	340f      	adds	r4, #15
1000337c:	0020      	movs	r0, r4
1000337e:	f7fe ff2f 	bl	100021e0 <irq_set_priority>
10003382:	0020      	movs	r0, r4
10003384:	490c      	ldr	r1, [pc, #48]	; (100033b8 <xPortStartScheduler+0xa4>)
10003386:	f7fe fd35 	bl	10001df4 <irq_set_exclusive_handler>
1000338a:	2101      	movs	r1, #1
1000338c:	0020      	movs	r0, r4
1000338e:	f7fe fcf9 	bl	10001d84 <irq_set_enabled>
10003392:	f7ff feb5 	bl	10003100 <vPortStartFirstTask>
10003396:	f001 fda5 	bl	10004ee4 <vTaskSwitchContext>
1000339a:	f002 fbf3 	bl	10005b84 <panic_unsupported>
1000339e:	46c0      	nop			; (mov r8, r8)
100033a0:	e000ed20 	.word	0xe000ed20
100033a4:	10003141 	.word	0x10003141
100033a8:	100032c1 	.word	0x100032c1
100033ac:	100030fd 	.word	0x100030fd
100033b0:	20012cdc 	.word	0x20012cdc
100033b4:	20000404 	.word	0x20000404
100033b8:	100031a5 	.word	0x100031a5

100033bc <ulPortLockGetCurrentOwnerId>:
100033bc:	b510      	push	{r4, lr}
100033be:	24d0      	movs	r4, #208	; 0xd0
100033c0:	4b08      	ldr	r3, [pc, #32]	; (100033e4 <ulPortLockGetCurrentOwnerId+0x28>)
100033c2:	0624      	lsls	r4, r4, #24
100033c4:	6820      	ldr	r0, [r4, #0]
100033c6:	781b      	ldrb	r3, [r3, #0]
100033c8:	4283      	cmp	r3, r0
100033ca:	d000      	beq.n	100033ce <ulPortLockGetCurrentOwnerId+0x12>
100033cc:	bd10      	pop	{r4, pc}
100033ce:	f7fc ff4a 	bl	10000266 <__get_current_exception>
100033d2:	2800      	cmp	r0, #0
100033d4:	d003      	beq.n	100033de <ulPortLockGetCurrentOwnerId+0x22>
100033d6:	6823      	ldr	r3, [r4, #0]
100033d8:	0040      	lsls	r0, r0, #1
100033da:	18c0      	adds	r0, r0, r3
100033dc:	e7f6      	b.n	100033cc <ulPortLockGetCurrentOwnerId+0x10>
100033de:	f001 fff1 	bl	100053c4 <xTaskGetCurrentTaskHandle>
100033e2:	e7f3      	b.n	100033cc <ulPortLockGetCurrentOwnerId+0x10>
100033e4:	20000404 	.word	0x20000404

100033e8 <vPortLockInternalSpinUnlockWithWait>:
100033e8:	b500      	push	{lr}
100033ea:	4b14      	ldr	r3, [pc, #80]	; (1000343c <vPortLockInternalSpinUnlockWithWait+0x54>)
100033ec:	b083      	sub	sp, #12
100033ee:	781a      	ldrb	r2, [r3, #0]
100033f0:	23d0      	movs	r3, #208	; 0xd0
100033f2:	061b      	lsls	r3, r3, #24
100033f4:	681b      	ldr	r3, [r3, #0]
100033f6:	429a      	cmp	r2, r3
100033f8:	d009      	beq.n	1000340e <vPortLockInternalSpinUnlockWithWait+0x26>
100033fa:	6803      	ldr	r3, [r0, #0]
100033fc:	f3bf 8f5f 	dmb	sy
10003400:	2200      	movs	r2, #0
10003402:	601a      	str	r2, [r3, #0]
10003404:	f381 8810 	msr	PRIMASK, r1
10003408:	bf20      	wfe
1000340a:	b003      	add	sp, #12
1000340c:	bd00      	pop	{pc}
1000340e:	6803      	ldr	r3, [r0, #0]
10003410:	4a0b      	ldr	r2, [pc, #44]	; (10003440 <vPortLockInternalSpinUnlockWithWait+0x58>)
10003412:	6013      	str	r3, [r2, #0]
10003414:	4a0b      	ldr	r2, [pc, #44]	; (10003444 <vPortLockInternalSpinUnlockWithWait+0x5c>)
10003416:	6011      	str	r1, [r2, #0]
10003418:	4a0b      	ldr	r2, [pc, #44]	; (10003448 <vPortLockInternalSpinUnlockWithWait+0x60>)
1000341a:	2102      	movs	r1, #2
1000341c:	4694      	mov	ip, r2
1000341e:	4463      	add	r3, ip
10003420:	109b      	asrs	r3, r3, #2
10003422:	31ff      	adds	r1, #255	; 0xff
10003424:	4099      	lsls	r1, r3
10003426:	4b09      	ldr	r3, [pc, #36]	; (1000344c <vPortLockInternalSpinUnlockWithWait+0x64>)
10003428:	2201      	movs	r2, #1
1000342a:	6818      	ldr	r0, [r3, #0]
1000342c:	2301      	movs	r3, #1
1000342e:	425b      	negs	r3, r3
10003430:	9300      	str	r3, [sp, #0]
10003432:	0a09      	lsrs	r1, r1, #8
10003434:	2300      	movs	r3, #0
10003436:	f000 f913 	bl	10003660 <xEventGroupWaitBits>
1000343a:	e7e6      	b.n	1000340a <vPortLockInternalSpinUnlockWithWait+0x22>
1000343c:	20000404 	.word	0x20000404
10003440:	2000af94 	.word	0x2000af94
10003444:	20012cc0 	.word	0x20012cc0
10003448:	2fffff00 	.word	0x2fffff00
1000344c:	20012d48 	.word	0x20012d48

10003450 <vPortLockInternalSpinUnlockWithNotify>:
10003450:	4a2c      	ldr	r2, [pc, #176]	; (10003504 <vPortLockInternalSpinUnlockWithNotify+0xb4>)
10003452:	6803      	ldr	r3, [r0, #0]
10003454:	4694      	mov	ip, r2
10003456:	2202      	movs	r2, #2
10003458:	b530      	push	{r4, r5, lr}
1000345a:	4463      	add	r3, ip
1000345c:	109b      	asrs	r3, r3, #2
1000345e:	32ff      	adds	r2, #255	; 0xff
10003460:	409a      	lsls	r2, r3
10003462:	4b29      	ldr	r3, [pc, #164]	; (10003508 <vPortLockInternalSpinUnlockWithNotify+0xb8>)
10003464:	b083      	sub	sp, #12
10003466:	781c      	ldrb	r4, [r3, #0]
10003468:	23d0      	movs	r3, #208	; 0xd0
1000346a:	061b      	lsls	r3, r3, #24
1000346c:	681b      	ldr	r3, [r3, #0]
1000346e:	0a12      	lsrs	r2, r2, #8
10003470:	429c      	cmp	r4, r3
10003472:	d01f      	beq.n	100034b4 <vPortLockInternalSpinUnlockWithNotify+0x64>
10003474:	bf40      	sev
10003476:	4d25      	ldr	r5, [pc, #148]	; (1000350c <vPortLockInternalSpinUnlockWithNotify+0xbc>)
10003478:	6803      	ldr	r3, [r0, #0]
1000347a:	682c      	ldr	r4, [r5, #0]
1000347c:	42a3      	cmp	r3, r4
1000347e:	d035      	beq.n	100034ec <vPortLockInternalSpinUnlockWithNotify+0x9c>
10003480:	6823      	ldr	r3, [r4, #0]
10003482:	2b00      	cmp	r3, #0
10003484:	d0fc      	beq.n	10003480 <vPortLockInternalSpinUnlockWithNotify+0x30>
10003486:	f3bf 8f5f 	dmb	sy
1000348a:	4b21      	ldr	r3, [pc, #132]	; (10003510 <vPortLockInternalSpinUnlockWithNotify+0xc0>)
1000348c:	681c      	ldr	r4, [r3, #0]
1000348e:	4322      	orrs	r2, r4
10003490:	601a      	str	r2, [r3, #0]
10003492:	682b      	ldr	r3, [r5, #0]
10003494:	f3bf 8f5f 	dmb	sy
10003498:	2200      	movs	r2, #0
1000349a:	601a      	str	r2, [r3, #0]
1000349c:	6803      	ldr	r3, [r0, #0]
1000349e:	20d0      	movs	r0, #208	; 0xd0
100034a0:	2200      	movs	r2, #0
100034a2:	0600      	lsls	r0, r0, #24
100034a4:	6542      	str	r2, [r0, #84]	; 0x54
100034a6:	f3bf 8f5f 	dmb	sy
100034aa:	601a      	str	r2, [r3, #0]
100034ac:	f381 8810 	msr	PRIMASK, r1
100034b0:	b003      	add	sp, #12
100034b2:	bd30      	pop	{r4, r5, pc}
100034b4:	bf40      	sev
100034b6:	6803      	ldr	r3, [r0, #0]
100034b8:	f3bf 8f5f 	dmb	sy
100034bc:	2000      	movs	r0, #0
100034be:	6018      	str	r0, [r3, #0]
100034c0:	f381 8810 	msr	PRIMASK, r1
100034c4:	f3ef 8305 	mrs	r3, IPSR
100034c8:	b2db      	uxtb	r3, r3
100034ca:	2b00      	cmp	r3, #0
100034cc:	d013      	beq.n	100034f6 <vPortLockInternalSpinUnlockWithNotify+0xa6>
100034ce:	4b11      	ldr	r3, [pc, #68]	; (10003514 <vPortLockInternalSpinUnlockWithNotify+0xc4>)
100034d0:	9001      	str	r0, [sp, #4]
100034d2:	6819      	ldr	r1, [r3, #0]
100034d4:	4810      	ldr	r0, [pc, #64]	; (10003518 <vPortLockInternalSpinUnlockWithNotify+0xc8>)
100034d6:	ab01      	add	r3, sp, #4
100034d8:	f002 fa44 	bl	10005964 <xTimerPendFunctionCallFromISR>
100034dc:	9b01      	ldr	r3, [sp, #4]
100034de:	2b00      	cmp	r3, #0
100034e0:	d0e6      	beq.n	100034b0 <vPortLockInternalSpinUnlockWithNotify+0x60>
100034e2:	2280      	movs	r2, #128	; 0x80
100034e4:	4b0d      	ldr	r3, [pc, #52]	; (1000351c <vPortLockInternalSpinUnlockWithNotify+0xcc>)
100034e6:	0552      	lsls	r2, r2, #21
100034e8:	601a      	str	r2, [r3, #0]
100034ea:	e7e1      	b.n	100034b0 <vPortLockInternalSpinUnlockWithNotify+0x60>
100034ec:	4808      	ldr	r0, [pc, #32]	; (10003510 <vPortLockInternalSpinUnlockWithNotify+0xc0>)
100034ee:	6804      	ldr	r4, [r0, #0]
100034f0:	4322      	orrs	r2, r4
100034f2:	6002      	str	r2, [r0, #0]
100034f4:	e7d3      	b.n	1000349e <vPortLockInternalSpinUnlockWithNotify+0x4e>
100034f6:	4b07      	ldr	r3, [pc, #28]	; (10003514 <vPortLockInternalSpinUnlockWithNotify+0xc4>)
100034f8:	0011      	movs	r1, r2
100034fa:	6818      	ldr	r0, [r3, #0]
100034fc:	f000 f90c 	bl	10003718 <xEventGroupSetBits>
10003500:	e7d6      	b.n	100034b0 <vPortLockInternalSpinUnlockWithNotify+0x60>
10003502:	46c0      	nop			; (mov r8, r8)
10003504:	2fffff00 	.word	0x2fffff00
10003508:	20000404 	.word	0x20000404
1000350c:	2000af2c 	.word	0x2000af2c
10003510:	20012ce0 	.word	0x20012ce0
10003514:	20012d48 	.word	0x20012d48
10003518:	100037a9 	.word	0x100037a9
1000351c:	e000ed04 	.word	0xe000ed04

10003520 <xPortLockInternalSpinUnlockWithBestEffortWaitOrTimeout>:
10003520:	b5f0      	push	{r4, r5, r6, r7, lr}
10003522:	46ce      	mov	lr, r9
10003524:	4647      	mov	r7, r8
10003526:	b580      	push	{r7, lr}
10003528:	001d      	movs	r5, r3
1000352a:	4b33      	ldr	r3, [pc, #204]	; (100035f8 <xPortLockInternalSpinUnlockWithBestEffortWaitOrTimeout+0xd8>)
1000352c:	0014      	movs	r4, r2
1000352e:	781a      	ldrb	r2, [r3, #0]
10003530:	23d0      	movs	r3, #208	; 0xd0
10003532:	061b      	lsls	r3, r3, #24
10003534:	681b      	ldr	r3, [r3, #0]
10003536:	4681      	mov	r9, r0
10003538:	4688      	mov	r8, r1
1000353a:	b083      	sub	sp, #12
1000353c:	429a      	cmp	r2, r3
1000353e:	d00f      	beq.n	10003560 <xPortLockInternalSpinUnlockWithBestEffortWaitOrTimeout+0x40>
10003540:	6803      	ldr	r3, [r0, #0]
10003542:	f3bf 8f5f 	dmb	sy
10003546:	2200      	movs	r2, #0
10003548:	601a      	str	r2, [r3, #0]
1000354a:	f381 8810 	msr	PRIMASK, r1
1000354e:	0020      	movs	r0, r4
10003550:	0029      	movs	r1, r5
10003552:	f7ff fa03 	bl	1000295c <best_effort_wfe_or_timeout>
10003556:	b003      	add	sp, #12
10003558:	bcc0      	pop	{r6, r7}
1000355a:	46b9      	mov	r9, r7
1000355c:	46b0      	mov	r8, r6
1000355e:	bdf0      	pop	{r4, r5, r6, r7, pc}
10003560:	f7ff face 	bl	10002b00 <time_us_64>
10003564:	0022      	movs	r2, r4
10003566:	002b      	movs	r3, r5
10003568:	2701      	movs	r7, #1
1000356a:	1a12      	subs	r2, r2, r0
1000356c:	418b      	sbcs	r3, r1
1000356e:	4e23      	ldr	r6, [pc, #140]	; (100035fc <xPortLockInternalSpinUnlockWithBestEffortWaitOrTimeout+0xdc>)
10003570:	427f      	negs	r7, r7
10003572:	18b6      	adds	r6, r6, r2
10003574:	415f      	adcs	r7, r3
10003576:	2f00      	cmp	r7, #0
10003578:	dc1f      	bgt.n	100035ba <xPortLockInternalSpinUnlockWithBestEffortWaitOrTimeout+0x9a>
1000357a:	d01b      	beq.n	100035b4 <xPortLockInternalSpinUnlockWithBestEffortWaitOrTimeout+0x94>
1000357c:	464b      	mov	r3, r9
1000357e:	681b      	ldr	r3, [r3, #0]
10003580:	f3bf 8f5f 	dmb	sy
10003584:	2200      	movs	r2, #0
10003586:	601a      	str	r2, [r3, #0]
10003588:	f388 8810 	msr	PRIMASK, r8
1000358c:	4b1c      	ldr	r3, [pc, #112]	; (10003600 <xPortLockInternalSpinUnlockWithBestEffortWaitOrTimeout+0xe0>)
1000358e:	6a5a      	ldr	r2, [r3, #36]	; 0x24
10003590:	4295      	cmp	r5, r2
10003592:	d805      	bhi.n	100035a0 <xPortLockInternalSpinUnlockWithBestEffortWaitOrTimeout+0x80>
10003594:	6a9b      	ldr	r3, [r3, #40]	; 0x28
10003596:	2001      	movs	r0, #1
10003598:	42a3      	cmp	r3, r4
1000359a:	d2dc      	bcs.n	10003556 <xPortLockInternalSpinUnlockWithBestEffortWaitOrTimeout+0x36>
1000359c:	4295      	cmp	r5, r2
1000359e:	d1da      	bne.n	10003556 <xPortLockInternalSpinUnlockWithBestEffortWaitOrTimeout+0x36>
100035a0:	2280      	movs	r2, #128	; 0x80
100035a2:	4b18      	ldr	r3, [pc, #96]	; (10003604 <xPortLockInternalSpinUnlockWithBestEffortWaitOrTimeout+0xe4>)
100035a4:	0552      	lsls	r2, r2, #21
100035a6:	601a      	str	r2, [r3, #0]
100035a8:	f3bf 8f4f 	dsb	sy
100035ac:	f3bf 8f6f 	isb	sy
100035b0:	2000      	movs	r0, #0
100035b2:	e7d0      	b.n	10003556 <xPortLockInternalSpinUnlockWithBestEffortWaitOrTimeout+0x36>
100035b4:	4b14      	ldr	r3, [pc, #80]	; (10003608 <xPortLockInternalSpinUnlockWithBestEffortWaitOrTimeout+0xe8>)
100035b6:	429e      	cmp	r6, r3
100035b8:	d9e0      	bls.n	1000357c <xPortLockInternalSpinUnlockWithBestEffortWaitOrTimeout+0x5c>
100035ba:	2300      	movs	r3, #0
100035bc:	0030      	movs	r0, r6
100035be:	0039      	movs	r1, r7
100035c0:	4a12      	ldr	r2, [pc, #72]	; (1000360c <xPortLockInternalSpinUnlockWithBestEffortWaitOrTimeout+0xec>)
100035c2:	f004 f879 	bl	100076b8 <__wrap___aeabi_ldivmod>
100035c6:	1e03      	subs	r3, r0, #0
100035c8:	d0d8      	beq.n	1000357c <xPortLockInternalSpinUnlockWithBestEffortWaitOrTimeout+0x5c>
100035ca:	464a      	mov	r2, r9
100035cc:	4640      	mov	r0, r8
100035ce:	6812      	ldr	r2, [r2, #0]
100035d0:	490f      	ldr	r1, [pc, #60]	; (10003610 <xPortLockInternalSpinUnlockWithBestEffortWaitOrTimeout+0xf0>)
100035d2:	600a      	str	r2, [r1, #0]
100035d4:	490f      	ldr	r1, [pc, #60]	; (10003614 <xPortLockInternalSpinUnlockWithBestEffortWaitOrTimeout+0xf4>)
100035d6:	6008      	str	r0, [r1, #0]
100035d8:	490f      	ldr	r1, [pc, #60]	; (10003618 <xPortLockInternalSpinUnlockWithBestEffortWaitOrTimeout+0xf8>)
100035da:	468c      	mov	ip, r1
100035dc:	2102      	movs	r1, #2
100035de:	4462      	add	r2, ip
100035e0:	1092      	asrs	r2, r2, #2
100035e2:	31ff      	adds	r1, #255	; 0xff
100035e4:	4091      	lsls	r1, r2
100035e6:	4a0d      	ldr	r2, [pc, #52]	; (1000361c <xPortLockInternalSpinUnlockWithBestEffortWaitOrTimeout+0xfc>)
100035e8:	0a09      	lsrs	r1, r1, #8
100035ea:	6810      	ldr	r0, [r2, #0]
100035ec:	9300      	str	r3, [sp, #0]
100035ee:	2201      	movs	r2, #1
100035f0:	2300      	movs	r3, #0
100035f2:	f000 f835 	bl	10003660 <xEventGroupWaitBits>
100035f6:	e7c9      	b.n	1000358c <xPortLockInternalSpinUnlockWithBestEffortWaitOrTimeout+0x6c>
100035f8:	20000404 	.word	0x20000404
100035fc:	ffffd8f0 	.word	0xffffd8f0
10003600:	40054000 	.word	0x40054000
10003604:	e000ed04 	.word	0xe000ed04
10003608:	0000270f 	.word	0x0000270f
1000360c:	00002710 	.word	0x00002710
10003610:	2000af94 	.word	0x2000af94
10003614:	20012cc0 	.word	0x20012cc0
10003618:	2fffff00 	.word	0x2fffff00
1000361c:	20012d48 	.word	0x20012d48

10003620 <prvRuntimeInitializer>:
10003620:	b510      	push	{r4, lr}
10003622:	f7fe fb5d 	bl	10001ce0 <next_striped_spin_lock_num>
10003626:	4b05      	ldr	r3, [pc, #20]	; (1000363c <prvRuntimeInitializer+0x1c>)
10003628:	469c      	mov	ip, r3
1000362a:	4b05      	ldr	r3, [pc, #20]	; (10003640 <prvRuntimeInitializer+0x20>)
1000362c:	4460      	add	r0, ip
1000362e:	0080      	lsls	r0, r0, #2
10003630:	6018      	str	r0, [r3, #0]
10003632:	f000 f809 	bl	10003648 <xEventGroupCreate>
10003636:	4b03      	ldr	r3, [pc, #12]	; (10003644 <prvRuntimeInitializer+0x24>)
10003638:	6018      	str	r0, [r3, #0]
1000363a:	bd10      	pop	{r4, pc}
1000363c:	34000040 	.word	0x34000040
10003640:	2000af2c 	.word	0x2000af2c
10003644:	20012d48 	.word	0x20012d48

10003648 <xEventGroupCreate>:
10003648:	b510      	push	{r4, lr}
1000364a:	2018      	movs	r0, #24
1000364c:	f002 f9c2 	bl	100059d4 <pvPortMalloc>
10003650:	1e04      	subs	r4, r0, #0
10003652:	d003      	beq.n	1000365c <xEventGroupCreate+0x14>
10003654:	2300      	movs	r3, #0
10003656:	c008      	stmia	r0!, {r3}
10003658:	f000 f8ec 	bl	10003834 <vListInitialise>
1000365c:	0020      	movs	r0, r4
1000365e:	bd10      	pop	{r4, pc}

10003660 <xEventGroupWaitBits>:
10003660:	b5f0      	push	{r4, r5, r6, r7, lr}
10003662:	46c6      	mov	lr, r8
10003664:	0006      	movs	r6, r0
10003666:	b500      	push	{lr}
10003668:	000d      	movs	r5, r1
1000366a:	4690      	mov	r8, r2
1000366c:	001f      	movs	r7, r3
1000366e:	f001 fb11 	bl	10004c94 <vTaskSuspendAll>
10003672:	6834      	ldr	r4, [r6, #0]
10003674:	2f00      	cmp	r7, #0
10003676:	d10a      	bne.n	1000368e <xEventGroupWaitBits+0x2e>
10003678:	4225      	tst	r5, r4
1000367a:	d00c      	beq.n	10003696 <xEventGroupWaitBits+0x36>
1000367c:	4643      	mov	r3, r8
1000367e:	2b00      	cmp	r3, #0
10003680:	d00c      	beq.n	1000369c <xEventGroupWaitBits+0x3c>
10003682:	0023      	movs	r3, r4
10003684:	43ab      	bics	r3, r5
10003686:	6033      	str	r3, [r6, #0]
10003688:	f001 fb0c 	bl	10004ca4 <xTaskResumeAll>
1000368c:	e008      	b.n	100036a0 <xEventGroupWaitBits+0x40>
1000368e:	002b      	movs	r3, r5
10003690:	4023      	ands	r3, r4
10003692:	429d      	cmp	r5, r3
10003694:	d0f2      	beq.n	1000367c <xEventGroupWaitBits+0x1c>
10003696:	9b06      	ldr	r3, [sp, #24]
10003698:	2b00      	cmp	r3, #0
1000369a:	d105      	bne.n	100036a8 <xEventGroupWaitBits+0x48>
1000369c:	f001 fb02 	bl	10004ca4 <xTaskResumeAll>
100036a0:	0020      	movs	r0, r4
100036a2:	bc80      	pop	{r7}
100036a4:	46b8      	mov	r8, r7
100036a6:	bdf0      	pop	{r4, r5, r6, r7, pc}
100036a8:	4643      	mov	r3, r8
100036aa:	2b00      	cmp	r3, #0
100036ac:	d116      	bne.n	100036dc <xEventGroupWaitBits+0x7c>
100036ae:	2180      	movs	r1, #128	; 0x80
100036b0:	2300      	movs	r3, #0
100036b2:	04c9      	lsls	r1, r1, #19
100036b4:	2f00      	cmp	r7, #0
100036b6:	d100      	bne.n	100036ba <xEventGroupWaitBits+0x5a>
100036b8:	0019      	movs	r1, r3
100036ba:	9a06      	ldr	r2, [sp, #24]
100036bc:	4329      	orrs	r1, r5
100036be:	1d30      	adds	r0, r6, #4
100036c0:	f001 fca8 	bl	10005014 <vTaskPlaceOnUnorderedEventList>
100036c4:	f001 faee 	bl	10004ca4 <xTaskResumeAll>
100036c8:	2800      	cmp	r0, #0
100036ca:	d01c      	beq.n	10003706 <xEventGroupWaitBits+0xa6>
100036cc:	f001 ff3c 	bl	10005548 <uxTaskResetEventItemValue>
100036d0:	0004      	movs	r4, r0
100036d2:	0183      	lsls	r3, r0, #6
100036d4:	d507      	bpl.n	100036e6 <xEventGroupWaitBits+0x86>
100036d6:	0224      	lsls	r4, r4, #8
100036d8:	0a24      	lsrs	r4, r4, #8
100036da:	e7e1      	b.n	100036a0 <xEventGroupWaitBits+0x40>
100036dc:	21a0      	movs	r1, #160	; 0xa0
100036de:	2380      	movs	r3, #128	; 0x80
100036e0:	04c9      	lsls	r1, r1, #19
100036e2:	045b      	lsls	r3, r3, #17
100036e4:	e7e6      	b.n	100036b4 <xEventGroupWaitBits+0x54>
100036e6:	f7ff fdbd 	bl	10003264 <vPortEnterCritical>
100036ea:	6834      	ldr	r4, [r6, #0]
100036ec:	2f00      	cmp	r7, #0
100036ee:	d10d      	bne.n	1000370c <xEventGroupWaitBits+0xac>
100036f0:	422c      	tst	r4, r5
100036f2:	d005      	beq.n	10003700 <xEventGroupWaitBits+0xa0>
100036f4:	4643      	mov	r3, r8
100036f6:	2b00      	cmp	r3, #0
100036f8:	d002      	beq.n	10003700 <xEventGroupWaitBits+0xa0>
100036fa:	0023      	movs	r3, r4
100036fc:	43ab      	bics	r3, r5
100036fe:	6033      	str	r3, [r6, #0]
10003700:	f7ff fdbc 	bl	1000327c <vPortExitCritical>
10003704:	e7e7      	b.n	100036d6 <xEventGroupWaitBits+0x76>
10003706:	f7ff fda1 	bl	1000324c <vPortYield>
1000370a:	e7df      	b.n	100036cc <xEventGroupWaitBits+0x6c>
1000370c:	0023      	movs	r3, r4
1000370e:	402b      	ands	r3, r5
10003710:	429d      	cmp	r5, r3
10003712:	d1f5      	bne.n	10003700 <xEventGroupWaitBits+0xa0>
10003714:	e7ee      	b.n	100036f4 <xEventGroupWaitBits+0x94>
10003716:	46c0      	nop			; (mov r8, r8)

10003718 <xEventGroupSetBits>:
10003718:	b5f8      	push	{r3, r4, r5, r6, r7, lr}
1000371a:	46de      	mov	lr, fp
1000371c:	4657      	mov	r7, sl
1000371e:	464e      	mov	r6, r9
10003720:	4645      	mov	r5, r8
10003722:	b5e0      	push	{r5, r6, r7, lr}
10003724:	0005      	movs	r5, r0
10003726:	000f      	movs	r7, r1
10003728:	0006      	movs	r6, r0
1000372a:	f001 fab3 	bl	10004c94 <vTaskSuspendAll>
1000372e:	6829      	ldr	r1, [r5, #0]
10003730:	692c      	ldr	r4, [r5, #16]
10003732:	4339      	orrs	r1, r7
10003734:	360c      	adds	r6, #12
10003736:	6029      	str	r1, [r5, #0]
10003738:	42a6      	cmp	r6, r4
1000373a:	d02a      	beq.n	10003792 <xEventGroupSetBits+0x7a>
1000373c:	2300      	movs	r3, #0
1000373e:	4698      	mov	r8, r3
10003740:	2380      	movs	r3, #128	; 0x80
10003742:	04db      	lsls	r3, r3, #19
10003744:	469b      	mov	fp, r3
10003746:	2380      	movs	r3, #128	; 0x80
10003748:	045b      	lsls	r3, r3, #17
1000374a:	469a      	mov	sl, r3
1000374c:	2380      	movs	r3, #128	; 0x80
1000374e:	049b      	lsls	r3, r3, #18
10003750:	4699      	mov	r9, r3
10003752:	e00e      	b.n	10003772 <xEventGroupSetBits+0x5a>
10003754:	4219      	tst	r1, r3
10003756:	d00a      	beq.n	1000376e <xEventGroupSetBits+0x56>
10003758:	4657      	mov	r7, sl
1000375a:	423a      	tst	r2, r7
1000375c:	d002      	beq.n	10003764 <xEventGroupSetBits+0x4c>
1000375e:	4642      	mov	r2, r8
10003760:	431a      	orrs	r2, r3
10003762:	4690      	mov	r8, r2
10003764:	464b      	mov	r3, r9
10003766:	4319      	orrs	r1, r3
10003768:	f001 fd80 	bl	1000526c <vTaskRemoveFromUnorderedEventList>
1000376c:	6829      	ldr	r1, [r5, #0]
1000376e:	42a6      	cmp	r6, r4
10003770:	d00d      	beq.n	1000378e <xEventGroupSetBits+0x76>
10003772:	0020      	movs	r0, r4
10003774:	465f      	mov	r7, fp
10003776:	6802      	ldr	r2, [r0, #0]
10003778:	6864      	ldr	r4, [r4, #4]
1000377a:	0213      	lsls	r3, r2, #8
1000377c:	0a1b      	lsrs	r3, r3, #8
1000377e:	423a      	tst	r2, r7
10003780:	d0e8      	beq.n	10003754 <xEventGroupSetBits+0x3c>
10003782:	000f      	movs	r7, r1
10003784:	401f      	ands	r7, r3
10003786:	429f      	cmp	r7, r3
10003788:	d0e6      	beq.n	10003758 <xEventGroupSetBits+0x40>
1000378a:	42a6      	cmp	r6, r4
1000378c:	d1f1      	bne.n	10003772 <xEventGroupSetBits+0x5a>
1000378e:	4643      	mov	r3, r8
10003790:	4399      	bics	r1, r3
10003792:	6029      	str	r1, [r5, #0]
10003794:	f001 fa86 	bl	10004ca4 <xTaskResumeAll>
10003798:	6828      	ldr	r0, [r5, #0]
1000379a:	bcf0      	pop	{r4, r5, r6, r7}
1000379c:	46bb      	mov	fp, r7
1000379e:	46b2      	mov	sl, r6
100037a0:	46a9      	mov	r9, r5
100037a2:	46a0      	mov	r8, r4
100037a4:	bdf8      	pop	{r3, r4, r5, r6, r7, pc}
100037a6:	46c0      	nop			; (mov r8, r8)

100037a8 <vEventGroupSetBitsCallback>:
100037a8:	b5f8      	push	{r3, r4, r5, r6, r7, lr}
100037aa:	46de      	mov	lr, fp
100037ac:	4657      	mov	r7, sl
100037ae:	464e      	mov	r6, r9
100037b0:	4645      	mov	r5, r8
100037b2:	b5e0      	push	{r5, r6, r7, lr}
100037b4:	0005      	movs	r5, r0
100037b6:	000f      	movs	r7, r1
100037b8:	0006      	movs	r6, r0
100037ba:	f001 fa6b 	bl	10004c94 <vTaskSuspendAll>
100037be:	6829      	ldr	r1, [r5, #0]
100037c0:	692c      	ldr	r4, [r5, #16]
100037c2:	4339      	orrs	r1, r7
100037c4:	360c      	adds	r6, #12
100037c6:	6029      	str	r1, [r5, #0]
100037c8:	42a6      	cmp	r6, r4
100037ca:	d02a      	beq.n	10003822 <vEventGroupSetBitsCallback+0x7a>
100037cc:	2300      	movs	r3, #0
100037ce:	4698      	mov	r8, r3
100037d0:	2380      	movs	r3, #128	; 0x80
100037d2:	04db      	lsls	r3, r3, #19
100037d4:	469b      	mov	fp, r3
100037d6:	2380      	movs	r3, #128	; 0x80
100037d8:	045b      	lsls	r3, r3, #17
100037da:	469a      	mov	sl, r3
100037dc:	2380      	movs	r3, #128	; 0x80
100037de:	049b      	lsls	r3, r3, #18
100037e0:	4699      	mov	r9, r3
100037e2:	e00e      	b.n	10003802 <vEventGroupSetBitsCallback+0x5a>
100037e4:	420b      	tst	r3, r1
100037e6:	d00a      	beq.n	100037fe <vEventGroupSetBitsCallback+0x56>
100037e8:	4657      	mov	r7, sl
100037ea:	423a      	tst	r2, r7
100037ec:	d002      	beq.n	100037f4 <vEventGroupSetBitsCallback+0x4c>
100037ee:	4642      	mov	r2, r8
100037f0:	431a      	orrs	r2, r3
100037f2:	4690      	mov	r8, r2
100037f4:	464b      	mov	r3, r9
100037f6:	4319      	orrs	r1, r3
100037f8:	f001 fd38 	bl	1000526c <vTaskRemoveFromUnorderedEventList>
100037fc:	6829      	ldr	r1, [r5, #0]
100037fe:	42a6      	cmp	r6, r4
10003800:	d00d      	beq.n	1000381e <vEventGroupSetBitsCallback+0x76>
10003802:	0020      	movs	r0, r4
10003804:	465f      	mov	r7, fp
10003806:	6802      	ldr	r2, [r0, #0]
10003808:	6864      	ldr	r4, [r4, #4]
1000380a:	0213      	lsls	r3, r2, #8
1000380c:	0a1b      	lsrs	r3, r3, #8
1000380e:	423a      	tst	r2, r7
10003810:	d0e8      	beq.n	100037e4 <vEventGroupSetBitsCallback+0x3c>
10003812:	001f      	movs	r7, r3
10003814:	400f      	ands	r7, r1
10003816:	42bb      	cmp	r3, r7
10003818:	d0e6      	beq.n	100037e8 <vEventGroupSetBitsCallback+0x40>
1000381a:	42a6      	cmp	r6, r4
1000381c:	d1f1      	bne.n	10003802 <vEventGroupSetBitsCallback+0x5a>
1000381e:	4643      	mov	r3, r8
10003820:	4399      	bics	r1, r3
10003822:	6029      	str	r1, [r5, #0]
10003824:	f001 fa3e 	bl	10004ca4 <xTaskResumeAll>
10003828:	bcf0      	pop	{r4, r5, r6, r7}
1000382a:	46bb      	mov	fp, r7
1000382c:	46b2      	mov	sl, r6
1000382e:	46a9      	mov	r9, r5
10003830:	46a0      	mov	r8, r4
10003832:	bdf8      	pop	{r3, r4, r5, r6, r7, pc}

10003834 <vListInitialise>:
10003834:	0003      	movs	r3, r0
10003836:	3308      	adds	r3, #8
10003838:	2201      	movs	r2, #1
1000383a:	6043      	str	r3, [r0, #4]
1000383c:	60c3      	str	r3, [r0, #12]
1000383e:	6103      	str	r3, [r0, #16]
10003840:	2300      	movs	r3, #0
10003842:	4252      	negs	r2, r2
10003844:	6082      	str	r2, [r0, #8]
10003846:	6003      	str	r3, [r0, #0]
10003848:	4770      	bx	lr
1000384a:	46c0      	nop			; (mov r8, r8)

1000384c <vListInitialiseItem>:
1000384c:	2300      	movs	r3, #0
1000384e:	6103      	str	r3, [r0, #16]
10003850:	4770      	bx	lr
10003852:	46c0      	nop			; (mov r8, r8)

10003854 <vListInsertEnd>:
10003854:	6843      	ldr	r3, [r0, #4]
10003856:	689a      	ldr	r2, [r3, #8]
10003858:	604b      	str	r3, [r1, #4]
1000385a:	608a      	str	r2, [r1, #8]
1000385c:	689a      	ldr	r2, [r3, #8]
1000385e:	6051      	str	r1, [r2, #4]
10003860:	6099      	str	r1, [r3, #8]
10003862:	6803      	ldr	r3, [r0, #0]
10003864:	6108      	str	r0, [r1, #16]
10003866:	3301      	adds	r3, #1
10003868:	6003      	str	r3, [r0, #0]
1000386a:	4770      	bx	lr

1000386c <vListInsert>:
1000386c:	0003      	movs	r3, r0
1000386e:	b530      	push	{r4, r5, lr}
10003870:	680c      	ldr	r4, [r1, #0]
10003872:	3308      	adds	r3, #8
10003874:	1c62      	adds	r2, r4, #1
10003876:	d00d      	beq.n	10003894 <vListInsert+0x28>
10003878:	001a      	movs	r2, r3
1000387a:	685b      	ldr	r3, [r3, #4]
1000387c:	681d      	ldr	r5, [r3, #0]
1000387e:	42a5      	cmp	r5, r4
10003880:	d9fa      	bls.n	10003878 <vListInsert+0xc>
10003882:	604b      	str	r3, [r1, #4]
10003884:	6099      	str	r1, [r3, #8]
10003886:	6803      	ldr	r3, [r0, #0]
10003888:	608a      	str	r2, [r1, #8]
1000388a:	3301      	adds	r3, #1
1000388c:	6051      	str	r1, [r2, #4]
1000388e:	6108      	str	r0, [r1, #16]
10003890:	6003      	str	r3, [r0, #0]
10003892:	bd30      	pop	{r4, r5, pc}
10003894:	6902      	ldr	r2, [r0, #16]
10003896:	6853      	ldr	r3, [r2, #4]
10003898:	e7f3      	b.n	10003882 <vListInsert+0x16>
1000389a:	46c0      	nop			; (mov r8, r8)

1000389c <uxListRemove>:
1000389c:	6903      	ldr	r3, [r0, #16]
1000389e:	6841      	ldr	r1, [r0, #4]
100038a0:	6882      	ldr	r2, [r0, #8]
100038a2:	608a      	str	r2, [r1, #8]
100038a4:	6051      	str	r1, [r2, #4]
100038a6:	6859      	ldr	r1, [r3, #4]
100038a8:	4281      	cmp	r1, r0
100038aa:	d006      	beq.n	100038ba <uxListRemove+0x1e>
100038ac:	2200      	movs	r2, #0
100038ae:	6102      	str	r2, [r0, #16]
100038b0:	681a      	ldr	r2, [r3, #0]
100038b2:	3a01      	subs	r2, #1
100038b4:	601a      	str	r2, [r3, #0]
100038b6:	6818      	ldr	r0, [r3, #0]
100038b8:	4770      	bx	lr
100038ba:	605a      	str	r2, [r3, #4]
100038bc:	e7f6      	b.n	100038ac <uxListRemove+0x10>
100038be:	46c0      	nop			; (mov r8, r8)

100038c0 <xQueueGenericCreate>:
100038c0:	b570      	push	{r4, r5, r6, lr}
100038c2:	0005      	movs	r5, r0
100038c4:	000e      	movs	r6, r1
100038c6:	2800      	cmp	r0, #0
100038c8:	d043      	beq.n	10003952 <xQueueGenericCreate+0x92>
100038ca:	0c0b      	lsrs	r3, r1, #16
100038cc:	0c02      	lsrs	r2, r0, #16
100038ce:	2b00      	cmp	r3, #0
100038d0:	d131      	bne.n	10003936 <xQueueGenericCreate+0x76>
100038d2:	1c33      	adds	r3, r6, #0
100038d4:	2a00      	cmp	r2, #0
100038d6:	d132      	bne.n	1000393e <xQueueGenericCreate+0x7e>
100038d8:	0030      	movs	r0, r6
100038da:	4368      	muls	r0, r5
100038dc:	0003      	movs	r3, r0
100038de:	3349      	adds	r3, #73	; 0x49
100038e0:	d837      	bhi.n	10003952 <xQueueGenericCreate+0x92>
100038e2:	3048      	adds	r0, #72	; 0x48
100038e4:	f002 f876 	bl	100059d4 <pvPortMalloc>
100038e8:	1e04      	subs	r4, r0, #0
100038ea:	d032      	beq.n	10003952 <xQueueGenericCreate+0x92>
100038ec:	0003      	movs	r3, r0
100038ee:	2e00      	cmp	r6, #0
100038f0:	d000      	beq.n	100038f4 <xQueueGenericCreate+0x34>
100038f2:	3348      	adds	r3, #72	; 0x48
100038f4:	6023      	str	r3, [r4, #0]
100038f6:	63e5      	str	r5, [r4, #60]	; 0x3c
100038f8:	6426      	str	r6, [r4, #64]	; 0x40
100038fa:	f7ff fcb3 	bl	10003264 <vPortEnterCritical>
100038fe:	6c21      	ldr	r1, [r4, #64]	; 0x40
10003900:	6be3      	ldr	r3, [r4, #60]	; 0x3c
10003902:	6822      	ldr	r2, [r4, #0]
10003904:	434b      	muls	r3, r1
10003906:	18d0      	adds	r0, r2, r3
10003908:	60a0      	str	r0, [r4, #8]
1000390a:	2000      	movs	r0, #0
1000390c:	1a5b      	subs	r3, r3, r1
1000390e:	18d3      	adds	r3, r2, r3
10003910:	6062      	str	r2, [r4, #4]
10003912:	60e3      	str	r3, [r4, #12]
10003914:	2244      	movs	r2, #68	; 0x44
10003916:	23ff      	movs	r3, #255	; 0xff
10003918:	63a0      	str	r0, [r4, #56]	; 0x38
1000391a:	0020      	movs	r0, r4
1000391c:	54a3      	strb	r3, [r4, r2]
1000391e:	3201      	adds	r2, #1
10003920:	54a3      	strb	r3, [r4, r2]
10003922:	3010      	adds	r0, #16
10003924:	f7ff ff86 	bl	10003834 <vListInitialise>
10003928:	0020      	movs	r0, r4
1000392a:	3024      	adds	r0, #36	; 0x24
1000392c:	f7ff ff82 	bl	10003834 <vListInitialise>
10003930:	f7ff fca4 	bl	1000327c <vPortExitCritical>
10003934:	e00e      	b.n	10003954 <xQueueGenericCreate+0x94>
10003936:	2a00      	cmp	r2, #0
10003938:	d10b      	bne.n	10003952 <xQueueGenericCreate+0x92>
1000393a:	1c1a      	adds	r2, r3, #0
1000393c:	1c03      	adds	r3, r0, #0
1000393e:	b2b0      	uxth	r0, r6
10003940:	b2a9      	uxth	r1, r5
10003942:	4341      	muls	r1, r0
10003944:	b298      	uxth	r0, r3
10003946:	b293      	uxth	r3, r2
10003948:	4343      	muls	r3, r0
1000394a:	0c09      	lsrs	r1, r1, #16
1000394c:	185b      	adds	r3, r3, r1
1000394e:	0c1b      	lsrs	r3, r3, #16
10003950:	d0c2      	beq.n	100038d8 <xQueueGenericCreate+0x18>
10003952:	2400      	movs	r4, #0
10003954:	0020      	movs	r0, r4
10003956:	bd70      	pop	{r4, r5, r6, pc}

10003958 <xQueueGenericSend>:
10003958:	b5f0      	push	{r4, r5, r6, r7, lr}
1000395a:	46ce      	mov	lr, r9
1000395c:	4647      	mov	r7, r8
1000395e:	0004      	movs	r4, r0
10003960:	0006      	movs	r6, r0
10003962:	b580      	push	{r7, lr}
10003964:	b085      	sub	sp, #20
10003966:	4699      	mov	r9, r3
10003968:	9201      	str	r2, [sp, #4]
1000396a:	4688      	mov	r8, r1
1000396c:	f7ff fc7a 	bl	10003264 <vPortEnterCritical>
10003970:	6ba3      	ldr	r3, [r4, #56]	; 0x38
10003972:	6be2      	ldr	r2, [r4, #60]	; 0x3c
10003974:	2500      	movs	r5, #0
10003976:	3624      	adds	r6, #36	; 0x24
10003978:	4293      	cmp	r3, r2
1000397a:	d37c      	bcc.n	10003a76 <xQueueGenericSend+0x11e>
1000397c:	464b      	mov	r3, r9
1000397e:	2b02      	cmp	r3, #2
10003980:	d100      	bne.n	10003984 <xQueueGenericSend+0x2c>
10003982:	e0f2      	b.n	10003b6a <xQueueGenericSend+0x212>
10003984:	9b01      	ldr	r3, [sp, #4]
10003986:	2b00      	cmp	r3, #0
10003988:	d100      	bne.n	1000398c <xQueueGenericSend+0x34>
1000398a:	e103      	b.n	10003b94 <xQueueGenericSend+0x23c>
1000398c:	2d00      	cmp	r5, #0
1000398e:	d100      	bne.n	10003992 <xQueueGenericSend+0x3a>
10003990:	e0e7      	b.n	10003b62 <xQueueGenericSend+0x20a>
10003992:	f7ff fc73 	bl	1000327c <vPortExitCritical>
10003996:	f001 f97d 	bl	10004c94 <vTaskSuspendAll>
1000399a:	f7ff fc63 	bl	10003264 <vPortEnterCritical>
1000399e:	2244      	movs	r2, #68	; 0x44
100039a0:	5ca3      	ldrb	r3, [r4, r2]
100039a2:	b25b      	sxtb	r3, r3
100039a4:	3301      	adds	r3, #1
100039a6:	d101      	bne.n	100039ac <xQueueGenericSend+0x54>
100039a8:	2300      	movs	r3, #0
100039aa:	54a3      	strb	r3, [r4, r2]
100039ac:	2245      	movs	r2, #69	; 0x45
100039ae:	5ca3      	ldrb	r3, [r4, r2]
100039b0:	b25b      	sxtb	r3, r3
100039b2:	3301      	adds	r3, #1
100039b4:	d101      	bne.n	100039ba <xQueueGenericSend+0x62>
100039b6:	2300      	movs	r3, #0
100039b8:	54a3      	strb	r3, [r4, r2]
100039ba:	f7ff fc5f 	bl	1000327c <vPortExitCritical>
100039be:	a901      	add	r1, sp, #4
100039c0:	a802      	add	r0, sp, #8
100039c2:	f001 fcab 	bl	1000531c <xTaskCheckForTimeOut>
100039c6:	2800      	cmp	r0, #0
100039c8:	d000      	beq.n	100039cc <xQueueGenericSend+0x74>
100039ca:	e0e7      	b.n	10003b9c <xQueueGenericSend+0x244>
100039cc:	f7ff fc4a 	bl	10003264 <vPortEnterCritical>
100039d0:	6ba3      	ldr	r3, [r4, #56]	; 0x38
100039d2:	6be2      	ldr	r2, [r4, #60]	; 0x3c
100039d4:	4293      	cmp	r3, r2
100039d6:	d072      	beq.n	10003abe <xQueueGenericSend+0x166>
100039d8:	f7ff fc50 	bl	1000327c <vPortExitCritical>
100039dc:	f7ff fc42 	bl	10003264 <vPortEnterCritical>
100039e0:	2345      	movs	r3, #69	; 0x45
100039e2:	5ce5      	ldrb	r5, [r4, r3]
100039e4:	b26d      	sxtb	r5, r5
100039e6:	2d00      	cmp	r5, #0
100039e8:	dc05      	bgt.n	100039f6 <xQueueGenericSend+0x9e>
100039ea:	e013      	b.n	10003a14 <xQueueGenericSend+0xbc>
100039ec:	3d01      	subs	r5, #1
100039ee:	b2eb      	uxtb	r3, r5
100039f0:	b26d      	sxtb	r5, r5
100039f2:	2b00      	cmp	r3, #0
100039f4:	d00e      	beq.n	10003a14 <xQueueGenericSend+0xbc>
100039f6:	6a63      	ldr	r3, [r4, #36]	; 0x24
100039f8:	2b00      	cmp	r3, #0
100039fa:	d00b      	beq.n	10003a14 <xQueueGenericSend+0xbc>
100039fc:	0030      	movs	r0, r6
100039fe:	f001 fbc9 	bl	10005194 <xTaskRemoveFromEventList>
10003a02:	2800      	cmp	r0, #0
10003a04:	d0f2      	beq.n	100039ec <xQueueGenericSend+0x94>
10003a06:	3d01      	subs	r5, #1
10003a08:	f001 fcc2 	bl	10005390 <vTaskMissedYield>
10003a0c:	b2eb      	uxtb	r3, r5
10003a0e:	b26d      	sxtb	r5, r5
10003a10:	2b00      	cmp	r3, #0
10003a12:	d1f0      	bne.n	100039f6 <xQueueGenericSend+0x9e>
10003a14:	2345      	movs	r3, #69	; 0x45
10003a16:	22ff      	movs	r2, #255	; 0xff
10003a18:	54e2      	strb	r2, [r4, r3]
10003a1a:	f7ff fc2f 	bl	1000327c <vPortExitCritical>
10003a1e:	f7ff fc21 	bl	10003264 <vPortEnterCritical>
10003a22:	2344      	movs	r3, #68	; 0x44
10003a24:	5ce5      	ldrb	r5, [r4, r3]
10003a26:	b26d      	sxtb	r5, r5
10003a28:	2d00      	cmp	r5, #0
10003a2a:	dd16      	ble.n	10003a5a <xQueueGenericSend+0x102>
10003a2c:	0027      	movs	r7, r4
10003a2e:	3710      	adds	r7, #16
10003a30:	e004      	b.n	10003a3c <xQueueGenericSend+0xe4>
10003a32:	3d01      	subs	r5, #1
10003a34:	b2eb      	uxtb	r3, r5
10003a36:	b26d      	sxtb	r5, r5
10003a38:	2b00      	cmp	r3, #0
10003a3a:	d00e      	beq.n	10003a5a <xQueueGenericSend+0x102>
10003a3c:	6923      	ldr	r3, [r4, #16]
10003a3e:	2b00      	cmp	r3, #0
10003a40:	d00b      	beq.n	10003a5a <xQueueGenericSend+0x102>
10003a42:	0038      	movs	r0, r7
10003a44:	f001 fba6 	bl	10005194 <xTaskRemoveFromEventList>
10003a48:	2800      	cmp	r0, #0
10003a4a:	d0f2      	beq.n	10003a32 <xQueueGenericSend+0xda>
10003a4c:	3d01      	subs	r5, #1
10003a4e:	f001 fc9f 	bl	10005390 <vTaskMissedYield>
10003a52:	b2eb      	uxtb	r3, r5
10003a54:	b26d      	sxtb	r5, r5
10003a56:	2b00      	cmp	r3, #0
10003a58:	d1f0      	bne.n	10003a3c <xQueueGenericSend+0xe4>
10003a5a:	2344      	movs	r3, #68	; 0x44
10003a5c:	22ff      	movs	r2, #255	; 0xff
10003a5e:	54e2      	strb	r2, [r4, r3]
10003a60:	f7ff fc0c 	bl	1000327c <vPortExitCritical>
10003a64:	f001 f91e 	bl	10004ca4 <xTaskResumeAll>
10003a68:	2501      	movs	r5, #1
10003a6a:	f7ff fbfb 	bl	10003264 <vPortEnterCritical>
10003a6e:	6ba3      	ldr	r3, [r4, #56]	; 0x38
10003a70:	6be2      	ldr	r2, [r4, #60]	; 0x3c
10003a72:	4293      	cmp	r3, r2
10003a74:	d282      	bcs.n	1000397c <xQueueGenericSend+0x24>
10003a76:	6c22      	ldr	r2, [r4, #64]	; 0x40
10003a78:	6ba5      	ldr	r5, [r4, #56]	; 0x38
10003a7a:	2a00      	cmp	r2, #0
10003a7c:	d079      	beq.n	10003b72 <xQueueGenericSend+0x21a>
10003a7e:	464b      	mov	r3, r9
10003a80:	4641      	mov	r1, r8
10003a82:	2b00      	cmp	r3, #0
10003a84:	d000      	beq.n	10003a88 <xQueueGenericSend+0x130>
10003a86:	e0ff      	b.n	10003c88 <xQueueGenericSend+0x330>
10003a88:	6860      	ldr	r0, [r4, #4]
10003a8a:	f004 fc85 	bl	10008398 <__wrap___aeabi_memcpy>
10003a8e:	6c22      	ldr	r2, [r4, #64]	; 0x40
10003a90:	6863      	ldr	r3, [r4, #4]
10003a92:	4694      	mov	ip, r2
10003a94:	68a2      	ldr	r2, [r4, #8]
10003a96:	4463      	add	r3, ip
10003a98:	6063      	str	r3, [r4, #4]
10003a9a:	4293      	cmp	r3, r2
10003a9c:	d36d      	bcc.n	10003b7a <xQueueGenericSend+0x222>
10003a9e:	6823      	ldr	r3, [r4, #0]
10003aa0:	3501      	adds	r5, #1
10003aa2:	63a5      	str	r5, [r4, #56]	; 0x38
10003aa4:	6063      	str	r3, [r4, #4]
10003aa6:	6a63      	ldr	r3, [r4, #36]	; 0x24
10003aa8:	2b00      	cmp	r3, #0
10003aaa:	d06b      	beq.n	10003b84 <xQueueGenericSend+0x22c>
10003aac:	0020      	movs	r0, r4
10003aae:	3024      	adds	r0, #36	; 0x24
10003ab0:	f001 fb70 	bl	10005194 <xTaskRemoveFromEventList>
10003ab4:	2800      	cmp	r0, #0
10003ab6:	d065      	beq.n	10003b84 <xQueueGenericSend+0x22c>
10003ab8:	f7ff fbc8 	bl	1000324c <vPortYield>
10003abc:	e062      	b.n	10003b84 <xQueueGenericSend+0x22c>
10003abe:	0027      	movs	r7, r4
10003ac0:	3710      	adds	r7, #16
10003ac2:	f7ff fbdb 	bl	1000327c <vPortExitCritical>
10003ac6:	0038      	movs	r0, r7
10003ac8:	9901      	ldr	r1, [sp, #4]
10003aca:	f001 fa57 	bl	10004f7c <vTaskPlaceOnEventList>
10003ace:	f7ff fbc9 	bl	10003264 <vPortEnterCritical>
10003ad2:	2345      	movs	r3, #69	; 0x45
10003ad4:	5ce5      	ldrb	r5, [r4, r3]
10003ad6:	b26d      	sxtb	r5, r5
10003ad8:	2d00      	cmp	r5, #0
10003ada:	dc05      	bgt.n	10003ae8 <xQueueGenericSend+0x190>
10003adc:	e013      	b.n	10003b06 <xQueueGenericSend+0x1ae>
10003ade:	3d01      	subs	r5, #1
10003ae0:	b2ea      	uxtb	r2, r5
10003ae2:	b26d      	sxtb	r5, r5
10003ae4:	2a00      	cmp	r2, #0
10003ae6:	d00e      	beq.n	10003b06 <xQueueGenericSend+0x1ae>
10003ae8:	6a63      	ldr	r3, [r4, #36]	; 0x24
10003aea:	2b00      	cmp	r3, #0
10003aec:	d00b      	beq.n	10003b06 <xQueueGenericSend+0x1ae>
10003aee:	0030      	movs	r0, r6
10003af0:	f001 fb50 	bl	10005194 <xTaskRemoveFromEventList>
10003af4:	2800      	cmp	r0, #0
10003af6:	d0f2      	beq.n	10003ade <xQueueGenericSend+0x186>
10003af8:	3d01      	subs	r5, #1
10003afa:	f001 fc49 	bl	10005390 <vTaskMissedYield>
10003afe:	b2ea      	uxtb	r2, r5
10003b00:	b26d      	sxtb	r5, r5
10003b02:	2a00      	cmp	r2, #0
10003b04:	d1f0      	bne.n	10003ae8 <xQueueGenericSend+0x190>
10003b06:	2345      	movs	r3, #69	; 0x45
10003b08:	22ff      	movs	r2, #255	; 0xff
10003b0a:	54e2      	strb	r2, [r4, r3]
10003b0c:	f7ff fbb6 	bl	1000327c <vPortExitCritical>
10003b10:	f7ff fba8 	bl	10003264 <vPortEnterCritical>
10003b14:	2344      	movs	r3, #68	; 0x44
10003b16:	5ce5      	ldrb	r5, [r4, r3]
10003b18:	b26d      	sxtb	r5, r5
10003b1a:	2d00      	cmp	r5, #0
10003b1c:	dc05      	bgt.n	10003b2a <xQueueGenericSend+0x1d2>
10003b1e:	e013      	b.n	10003b48 <xQueueGenericSend+0x1f0>
10003b20:	3d01      	subs	r5, #1
10003b22:	b2ea      	uxtb	r2, r5
10003b24:	b26d      	sxtb	r5, r5
10003b26:	2a00      	cmp	r2, #0
10003b28:	d00e      	beq.n	10003b48 <xQueueGenericSend+0x1f0>
10003b2a:	6923      	ldr	r3, [r4, #16]
10003b2c:	2b00      	cmp	r3, #0
10003b2e:	d00b      	beq.n	10003b48 <xQueueGenericSend+0x1f0>
10003b30:	0038      	movs	r0, r7
10003b32:	f001 fb2f 	bl	10005194 <xTaskRemoveFromEventList>
10003b36:	2800      	cmp	r0, #0
10003b38:	d0f2      	beq.n	10003b20 <xQueueGenericSend+0x1c8>
10003b3a:	3d01      	subs	r5, #1
10003b3c:	f001 fc28 	bl	10005390 <vTaskMissedYield>
10003b40:	b2ea      	uxtb	r2, r5
10003b42:	b26d      	sxtb	r5, r5
10003b44:	2a00      	cmp	r2, #0
10003b46:	d1f0      	bne.n	10003b2a <xQueueGenericSend+0x1d2>
10003b48:	2344      	movs	r3, #68	; 0x44
10003b4a:	22ff      	movs	r2, #255	; 0xff
10003b4c:	54e2      	strb	r2, [r4, r3]
10003b4e:	f7ff fb95 	bl	1000327c <vPortExitCritical>
10003b52:	f001 f8a7 	bl	10004ca4 <xTaskResumeAll>
10003b56:	2800      	cmp	r0, #0
10003b58:	d186      	bne.n	10003a68 <xQueueGenericSend+0x110>
10003b5a:	f7ff fb77 	bl	1000324c <vPortYield>
10003b5e:	2501      	movs	r5, #1
10003b60:	e783      	b.n	10003a6a <xQueueGenericSend+0x112>
10003b62:	a802      	add	r0, sp, #8
10003b64:	f001 fbce 	bl	10005304 <vTaskInternalSetTimeOutState>
10003b68:	e713      	b.n	10003992 <xQueueGenericSend+0x3a>
10003b6a:	6c22      	ldr	r2, [r4, #64]	; 0x40
10003b6c:	6ba5      	ldr	r5, [r4, #56]	; 0x38
10003b6e:	2a00      	cmp	r2, #0
10003b70:	d15e      	bne.n	10003c30 <xQueueGenericSend+0x2d8>
10003b72:	6826      	ldr	r6, [r4, #0]
10003b74:	2e00      	cmp	r6, #0
10003b76:	d100      	bne.n	10003b7a <xQueueGenericSend+0x222>
10003b78:	e078      	b.n	10003c6c <xQueueGenericSend+0x314>
10003b7a:	3501      	adds	r5, #1
10003b7c:	63a5      	str	r5, [r4, #56]	; 0x38
10003b7e:	6a63      	ldr	r3, [r4, #36]	; 0x24
10003b80:	2b00      	cmp	r3, #0
10003b82:	d193      	bne.n	10003aac <xQueueGenericSend+0x154>
10003b84:	f7ff fb7a 	bl	1000327c <vPortExitCritical>
10003b88:	2001      	movs	r0, #1
10003b8a:	b005      	add	sp, #20
10003b8c:	bcc0      	pop	{r6, r7}
10003b8e:	46b9      	mov	r9, r7
10003b90:	46b0      	mov	r8, r6
10003b92:	bdf0      	pop	{r4, r5, r6, r7, pc}
10003b94:	f7ff fb72 	bl	1000327c <vPortExitCritical>
10003b98:	2000      	movs	r0, #0
10003b9a:	e7f6      	b.n	10003b8a <xQueueGenericSend+0x232>
10003b9c:	f7ff fb62 	bl	10003264 <vPortEnterCritical>
10003ba0:	2345      	movs	r3, #69	; 0x45
10003ba2:	5ce5      	ldrb	r5, [r4, r3]
10003ba4:	b26d      	sxtb	r5, r5
10003ba6:	2d00      	cmp	r5, #0
10003ba8:	dd16      	ble.n	10003bd8 <xQueueGenericSend+0x280>
10003baa:	0026      	movs	r6, r4
10003bac:	3624      	adds	r6, #36	; 0x24
10003bae:	e004      	b.n	10003bba <xQueueGenericSend+0x262>
10003bb0:	3d01      	subs	r5, #1
10003bb2:	b2ea      	uxtb	r2, r5
10003bb4:	b26d      	sxtb	r5, r5
10003bb6:	2a00      	cmp	r2, #0
10003bb8:	d00e      	beq.n	10003bd8 <xQueueGenericSend+0x280>
10003bba:	6a63      	ldr	r3, [r4, #36]	; 0x24
10003bbc:	2b00      	cmp	r3, #0
10003bbe:	d00b      	beq.n	10003bd8 <xQueueGenericSend+0x280>
10003bc0:	0030      	movs	r0, r6
10003bc2:	f001 fae7 	bl	10005194 <xTaskRemoveFromEventList>
10003bc6:	2800      	cmp	r0, #0
10003bc8:	d0f2      	beq.n	10003bb0 <xQueueGenericSend+0x258>
10003bca:	3d01      	subs	r5, #1
10003bcc:	f001 fbe0 	bl	10005390 <vTaskMissedYield>
10003bd0:	b2ea      	uxtb	r2, r5
10003bd2:	b26d      	sxtb	r5, r5
10003bd4:	2a00      	cmp	r2, #0
10003bd6:	d1f0      	bne.n	10003bba <xQueueGenericSend+0x262>
10003bd8:	2345      	movs	r3, #69	; 0x45
10003bda:	22ff      	movs	r2, #255	; 0xff
10003bdc:	54e2      	strb	r2, [r4, r3]
10003bde:	f7ff fb4d 	bl	1000327c <vPortExitCritical>
10003be2:	f7ff fb3f 	bl	10003264 <vPortEnterCritical>
10003be6:	2344      	movs	r3, #68	; 0x44
10003be8:	5ce5      	ldrb	r5, [r4, r3]
10003bea:	b26d      	sxtb	r5, r5
10003bec:	2d00      	cmp	r5, #0
10003bee:	dd16      	ble.n	10003c1e <xQueueGenericSend+0x2c6>
10003bf0:	0026      	movs	r6, r4
10003bf2:	3610      	adds	r6, #16
10003bf4:	e004      	b.n	10003c00 <xQueueGenericSend+0x2a8>
10003bf6:	3d01      	subs	r5, #1
10003bf8:	b2ea      	uxtb	r2, r5
10003bfa:	b26d      	sxtb	r5, r5
10003bfc:	2a00      	cmp	r2, #0
10003bfe:	d00e      	beq.n	10003c1e <xQueueGenericSend+0x2c6>
10003c00:	6923      	ldr	r3, [r4, #16]
10003c02:	2b00      	cmp	r3, #0
10003c04:	d00b      	beq.n	10003c1e <xQueueGenericSend+0x2c6>
10003c06:	0030      	movs	r0, r6
10003c08:	f001 fac4 	bl	10005194 <xTaskRemoveFromEventList>
10003c0c:	2800      	cmp	r0, #0
10003c0e:	d0f2      	beq.n	10003bf6 <xQueueGenericSend+0x29e>
10003c10:	3d01      	subs	r5, #1
10003c12:	f001 fbbd 	bl	10005390 <vTaskMissedYield>
10003c16:	b2ea      	uxtb	r2, r5
10003c18:	b26d      	sxtb	r5, r5
10003c1a:	2a00      	cmp	r2, #0
10003c1c:	d1f0      	bne.n	10003c00 <xQueueGenericSend+0x2a8>
10003c1e:	2344      	movs	r3, #68	; 0x44
10003c20:	22ff      	movs	r2, #255	; 0xff
10003c22:	54e2      	strb	r2, [r4, r3]
10003c24:	f7ff fb2a 	bl	1000327c <vPortExitCritical>
10003c28:	f001 f83c 	bl	10004ca4 <xTaskResumeAll>
10003c2c:	2000      	movs	r0, #0
10003c2e:	e7ac      	b.n	10003b8a <xQueueGenericSend+0x232>
10003c30:	4641      	mov	r1, r8
10003c32:	68e0      	ldr	r0, [r4, #12]
10003c34:	f004 fbb0 	bl	10008398 <__wrap___aeabi_memcpy>
10003c38:	68e1      	ldr	r1, [r4, #12]
10003c3a:	6c23      	ldr	r3, [r4, #64]	; 0x40
10003c3c:	425a      	negs	r2, r3
10003c3e:	1acb      	subs	r3, r1, r3
10003c40:	6821      	ldr	r1, [r4, #0]
10003c42:	60e3      	str	r3, [r4, #12]
10003c44:	428b      	cmp	r3, r1
10003c46:	d207      	bcs.n	10003c58 <xQueueGenericSend+0x300>
10003c48:	68a3      	ldr	r3, [r4, #8]
10003c4a:	469c      	mov	ip, r3
10003c4c:	4462      	add	r2, ip
10003c4e:	60e2      	str	r2, [r4, #12]
10003c50:	464b      	mov	r3, r9
10003c52:	2b02      	cmp	r3, #2
10003c54:	d000      	beq.n	10003c58 <xQueueGenericSend+0x300>
10003c56:	e790      	b.n	10003b7a <xQueueGenericSend+0x222>
10003c58:	2d00      	cmp	r5, #0
10003c5a:	d000      	beq.n	10003c5e <xQueueGenericSend+0x306>
10003c5c:	e78e      	b.n	10003b7c <xQueueGenericSend+0x224>
10003c5e:	2301      	movs	r3, #1
10003c60:	63a3      	str	r3, [r4, #56]	; 0x38
10003c62:	6a63      	ldr	r3, [r4, #36]	; 0x24
10003c64:	2b00      	cmp	r3, #0
10003c66:	d100      	bne.n	10003c6a <xQueueGenericSend+0x312>
10003c68:	e78c      	b.n	10003b84 <xQueueGenericSend+0x22c>
10003c6a:	e71f      	b.n	10003aac <xQueueGenericSend+0x154>
10003c6c:	68a0      	ldr	r0, [r4, #8]
10003c6e:	3501      	adds	r5, #1
10003c70:	f001 fbf8 	bl	10005464 <xTaskPriorityDisinherit>
10003c74:	63a5      	str	r5, [r4, #56]	; 0x38
10003c76:	6a63      	ldr	r3, [r4, #36]	; 0x24
10003c78:	60a6      	str	r6, [r4, #8]
10003c7a:	2b00      	cmp	r3, #0
10003c7c:	d000      	beq.n	10003c80 <xQueueGenericSend+0x328>
10003c7e:	e715      	b.n	10003aac <xQueueGenericSend+0x154>
10003c80:	2800      	cmp	r0, #0
10003c82:	d000      	beq.n	10003c86 <xQueueGenericSend+0x32e>
10003c84:	e718      	b.n	10003ab8 <xQueueGenericSend+0x160>
10003c86:	e77d      	b.n	10003b84 <xQueueGenericSend+0x22c>
10003c88:	68e0      	ldr	r0, [r4, #12]
10003c8a:	f004 fb85 	bl	10008398 <__wrap___aeabi_memcpy>
10003c8e:	68e1      	ldr	r1, [r4, #12]
10003c90:	6c23      	ldr	r3, [r4, #64]	; 0x40
10003c92:	425a      	negs	r2, r3
10003c94:	1acb      	subs	r3, r1, r3
10003c96:	6821      	ldr	r1, [r4, #0]
10003c98:	60e3      	str	r3, [r4, #12]
10003c9a:	428b      	cmp	r3, r1
10003c9c:	d2d8      	bcs.n	10003c50 <xQueueGenericSend+0x2f8>
10003c9e:	e7d3      	b.n	10003c48 <xQueueGenericSend+0x2f0>

10003ca0 <xQueueCreateMutex>:
10003ca0:	b570      	push	{r4, r5, r6, lr}
10003ca2:	2048      	movs	r0, #72	; 0x48
10003ca4:	f001 fe96 	bl	100059d4 <pvPortMalloc>
10003ca8:	1e04      	subs	r4, r0, #0
10003caa:	d029      	beq.n	10003d00 <xQueueCreateMutex+0x60>
10003cac:	2500      	movs	r5, #0
10003cae:	2301      	movs	r3, #1
10003cb0:	6000      	str	r0, [r0, #0]
10003cb2:	63c3      	str	r3, [r0, #60]	; 0x3c
10003cb4:	6405      	str	r5, [r0, #64]	; 0x40
10003cb6:	f7ff fad5 	bl	10003264 <vPortEnterCritical>
10003cba:	6c21      	ldr	r1, [r4, #64]	; 0x40
10003cbc:	6be3      	ldr	r3, [r4, #60]	; 0x3c
10003cbe:	6822      	ldr	r2, [r4, #0]
10003cc0:	434b      	muls	r3, r1
10003cc2:	18d0      	adds	r0, r2, r3
10003cc4:	1a5b      	subs	r3, r3, r1
10003cc6:	18d3      	adds	r3, r2, r3
10003cc8:	6062      	str	r2, [r4, #4]
10003cca:	60e3      	str	r3, [r4, #12]
10003ccc:	2244      	movs	r2, #68	; 0x44
10003cce:	23ff      	movs	r3, #255	; 0xff
10003cd0:	60a0      	str	r0, [r4, #8]
10003cd2:	0020      	movs	r0, r4
10003cd4:	63a5      	str	r5, [r4, #56]	; 0x38
10003cd6:	54a3      	strb	r3, [r4, r2]
10003cd8:	3201      	adds	r2, #1
10003cda:	54a3      	strb	r3, [r4, r2]
10003cdc:	3010      	adds	r0, #16
10003cde:	f7ff fda9 	bl	10003834 <vListInitialise>
10003ce2:	0020      	movs	r0, r4
10003ce4:	3024      	adds	r0, #36	; 0x24
10003ce6:	f7ff fda5 	bl	10003834 <vListInitialise>
10003cea:	f7ff fac7 	bl	1000327c <vPortExitCritical>
10003cee:	2300      	movs	r3, #0
10003cf0:	2200      	movs	r2, #0
10003cf2:	2100      	movs	r1, #0
10003cf4:	0020      	movs	r0, r4
10003cf6:	60a5      	str	r5, [r4, #8]
10003cf8:	6025      	str	r5, [r4, #0]
10003cfa:	60e5      	str	r5, [r4, #12]
10003cfc:	f7ff fe2c 	bl	10003958 <xQueueGenericSend>
10003d00:	0020      	movs	r0, r4
10003d02:	bd70      	pop	{r4, r5, r6, pc}

10003d04 <xQueueGenericSendFromISR>:
10003d04:	b5f0      	push	{r4, r5, r6, r7, lr}
10003d06:	464f      	mov	r7, r9
10003d08:	46d6      	mov	lr, sl
10003d0a:	4646      	mov	r6, r8
10003d0c:	b5c0      	push	{r6, r7, lr}
10003d0e:	0004      	movs	r4, r0
10003d10:	4699      	mov	r9, r3
10003d12:	000f      	movs	r7, r1
10003d14:	4690      	mov	r8, r2
10003d16:	f7ff facb 	bl	100032b0 <ulSetInterruptMaskFromISR>
10003d1a:	6be3      	ldr	r3, [r4, #60]	; 0x3c
10003d1c:	0005      	movs	r5, r0
10003d1e:	6ba0      	ldr	r0, [r4, #56]	; 0x38
10003d20:	4298      	cmp	r0, r3
10003d22:	d32d      	bcc.n	10003d80 <xQueueGenericSendFromISR+0x7c>
10003d24:	464b      	mov	r3, r9
10003d26:	2b02      	cmp	r3, #2
10003d28:	d009      	beq.n	10003d3e <xQueueGenericSendFromISR+0x3a>
10003d2a:	2400      	movs	r4, #0
10003d2c:	0028      	movs	r0, r5
10003d2e:	f7ff fac3 	bl	100032b8 <vClearInterruptMaskFromISR>
10003d32:	0020      	movs	r0, r4
10003d34:	bce0      	pop	{r5, r6, r7}
10003d36:	46ba      	mov	sl, r7
10003d38:	46b1      	mov	r9, r6
10003d3a:	46a8      	mov	r8, r5
10003d3c:	bdf0      	pop	{r4, r5, r6, r7, pc}
10003d3e:	2345      	movs	r3, #69	; 0x45
10003d40:	6c22      	ldr	r2, [r4, #64]	; 0x40
10003d42:	5ce6      	ldrb	r6, [r4, r3]
10003d44:	6ba3      	ldr	r3, [r4, #56]	; 0x38
10003d46:	6ba3      	ldr	r3, [r4, #56]	; 0x38
10003d48:	b276      	sxtb	r6, r6
10003d4a:	469a      	mov	sl, r3
10003d4c:	2a00      	cmp	r2, #0
10003d4e:	d020      	beq.n	10003d92 <xQueueGenericSendFromISR+0x8e>
10003d50:	0039      	movs	r1, r7
10003d52:	68e0      	ldr	r0, [r4, #12]
10003d54:	f004 fb20 	bl	10008398 <__wrap___aeabi_memcpy>
10003d58:	68e1      	ldr	r1, [r4, #12]
10003d5a:	6c23      	ldr	r3, [r4, #64]	; 0x40
10003d5c:	425a      	negs	r2, r3
10003d5e:	1acb      	subs	r3, r1, r3
10003d60:	6821      	ldr	r1, [r4, #0]
10003d62:	60e3      	str	r3, [r4, #12]
10003d64:	428b      	cmp	r3, r1
10003d66:	d206      	bcs.n	10003d76 <xQueueGenericSendFromISR+0x72>
10003d68:	68a3      	ldr	r3, [r4, #8]
10003d6a:	469c      	mov	ip, r3
10003d6c:	4462      	add	r2, ip
10003d6e:	60e2      	str	r2, [r4, #12]
10003d70:	464b      	mov	r3, r9
10003d72:	2b02      	cmp	r3, #2
10003d74:	d110      	bne.n	10003d98 <xQueueGenericSendFromISR+0x94>
10003d76:	4653      	mov	r3, sl
10003d78:	2b00      	cmp	r3, #0
10003d7a:	d10f      	bne.n	10003d9c <xQueueGenericSendFromISR+0x98>
10003d7c:	3301      	adds	r3, #1
10003d7e:	e00d      	b.n	10003d9c <xQueueGenericSendFromISR+0x98>
10003d80:	2345      	movs	r3, #69	; 0x45
10003d82:	6c22      	ldr	r2, [r4, #64]	; 0x40
10003d84:	5ce6      	ldrb	r6, [r4, r3]
10003d86:	6ba3      	ldr	r3, [r4, #56]	; 0x38
10003d88:	6ba3      	ldr	r3, [r4, #56]	; 0x38
10003d8a:	b276      	sxtb	r6, r6
10003d8c:	469a      	mov	sl, r3
10003d8e:	2a00      	cmp	r2, #0
10003d90:	d116      	bne.n	10003dc0 <xQueueGenericSendFromISR+0xbc>
10003d92:	6827      	ldr	r7, [r4, #0]
10003d94:	2f00      	cmp	r7, #0
10003d96:	d033      	beq.n	10003e00 <xQueueGenericSendFromISR+0xfc>
10003d98:	4653      	mov	r3, sl
10003d9a:	3301      	adds	r3, #1
10003d9c:	63a3      	str	r3, [r4, #56]	; 0x38
10003d9e:	1c73      	adds	r3, r6, #1
10003da0:	d104      	bne.n	10003dac <xQueueGenericSendFromISR+0xa8>
10003da2:	6a63      	ldr	r3, [r4, #36]	; 0x24
10003da4:	2b00      	cmp	r3, #0
10003da6:	d11d      	bne.n	10003de4 <xQueueGenericSendFromISR+0xe0>
10003da8:	2401      	movs	r4, #1
10003daa:	e7bf      	b.n	10003d2c <xQueueGenericSendFromISR+0x28>
10003dac:	f001 f882 	bl	10004eb4 <uxTaskGetNumberOfTasks>
10003db0:	4286      	cmp	r6, r0
10003db2:	d2f9      	bcs.n	10003da8 <xQueueGenericSendFromISR+0xa4>
10003db4:	2345      	movs	r3, #69	; 0x45
10003db6:	3601      	adds	r6, #1
10003db8:	b276      	sxtb	r6, r6
10003dba:	54e6      	strb	r6, [r4, r3]
10003dbc:	2401      	movs	r4, #1
10003dbe:	e7b5      	b.n	10003d2c <xQueueGenericSendFromISR+0x28>
10003dc0:	464b      	mov	r3, r9
10003dc2:	0039      	movs	r1, r7
10003dc4:	2b00      	cmp	r3, #0
10003dc6:	d122      	bne.n	10003e0e <xQueueGenericSendFromISR+0x10a>
10003dc8:	6860      	ldr	r0, [r4, #4]
10003dca:	f004 fae5 	bl	10008398 <__wrap___aeabi_memcpy>
10003dce:	6c22      	ldr	r2, [r4, #64]	; 0x40
10003dd0:	6863      	ldr	r3, [r4, #4]
10003dd2:	4694      	mov	ip, r2
10003dd4:	68a2      	ldr	r2, [r4, #8]
10003dd6:	4463      	add	r3, ip
10003dd8:	6063      	str	r3, [r4, #4]
10003dda:	4293      	cmp	r3, r2
10003ddc:	d3dc      	bcc.n	10003d98 <xQueueGenericSendFromISR+0x94>
10003dde:	6823      	ldr	r3, [r4, #0]
10003de0:	6063      	str	r3, [r4, #4]
10003de2:	e7d9      	b.n	10003d98 <xQueueGenericSendFromISR+0x94>
10003de4:	0020      	movs	r0, r4
10003de6:	3024      	adds	r0, #36	; 0x24
10003de8:	f001 f9d4 	bl	10005194 <xTaskRemoveFromEventList>
10003dec:	2800      	cmp	r0, #0
10003dee:	d0db      	beq.n	10003da8 <xQueueGenericSendFromISR+0xa4>
10003df0:	4643      	mov	r3, r8
10003df2:	2b00      	cmp	r3, #0
10003df4:	d0d8      	beq.n	10003da8 <xQueueGenericSendFromISR+0xa4>
10003df6:	2301      	movs	r3, #1
10003df8:	4642      	mov	r2, r8
10003dfa:	2401      	movs	r4, #1
10003dfc:	6013      	str	r3, [r2, #0]
10003dfe:	e795      	b.n	10003d2c <xQueueGenericSendFromISR+0x28>
10003e00:	68a0      	ldr	r0, [r4, #8]
10003e02:	f001 fb2f 	bl	10005464 <xTaskPriorityDisinherit>
10003e06:	4653      	mov	r3, sl
10003e08:	60a7      	str	r7, [r4, #8]
10003e0a:	3301      	adds	r3, #1
10003e0c:	e7c6      	b.n	10003d9c <xQueueGenericSendFromISR+0x98>
10003e0e:	68e0      	ldr	r0, [r4, #12]
10003e10:	f004 fac2 	bl	10008398 <__wrap___aeabi_memcpy>
10003e14:	68e1      	ldr	r1, [r4, #12]
10003e16:	6c23      	ldr	r3, [r4, #64]	; 0x40
10003e18:	425a      	negs	r2, r3
10003e1a:	1acb      	subs	r3, r1, r3
10003e1c:	6821      	ldr	r1, [r4, #0]
10003e1e:	60e3      	str	r3, [r4, #12]
10003e20:	428b      	cmp	r3, r1
10003e22:	d2a5      	bcs.n	10003d70 <xQueueGenericSendFromISR+0x6c>
10003e24:	e7a0      	b.n	10003d68 <xQueueGenericSendFromISR+0x64>
10003e26:	46c0      	nop			; (mov r8, r8)

10003e28 <xQueueReceive>:
10003e28:	b5f0      	push	{r4, r5, r6, r7, lr}
10003e2a:	46ce      	mov	lr, r9
10003e2c:	4647      	mov	r7, r8
10003e2e:	0004      	movs	r4, r0
10003e30:	b580      	push	{r7, lr}
10003e32:	b085      	sub	sp, #20
10003e34:	4688      	mov	r8, r1
10003e36:	9201      	str	r2, [sp, #4]
10003e38:	f7ff fa14 	bl	10003264 <vPortEnterCritical>
10003e3c:	6ba5      	ldr	r5, [r4, #56]	; 0x38
10003e3e:	2d00      	cmp	r5, #0
10003e40:	d000      	beq.n	10003e44 <xQueueReceive+0x1c>
10003e42:	e11f      	b.n	10004084 <xQueueReceive+0x25c>
10003e44:	9b01      	ldr	r3, [sp, #4]
10003e46:	2b00      	cmp	r3, #0
10003e48:	d100      	bne.n	10003e4c <xQueueReceive+0x24>
10003e4a:	e0cb      	b.n	10003fe4 <xQueueReceive+0x1bc>
10003e4c:	0026      	movs	r6, r4
10003e4e:	a802      	add	r0, sp, #8
10003e50:	f001 fa58 	bl	10005304 <vTaskInternalSetTimeOutState>
10003e54:	2744      	movs	r7, #68	; 0x44
10003e56:	3624      	adds	r6, #36	; 0x24
10003e58:	f7ff fa10 	bl	1000327c <vPortExitCritical>
10003e5c:	f000 ff1a 	bl	10004c94 <vTaskSuspendAll>
10003e60:	f7ff fa00 	bl	10003264 <vPortEnterCritical>
10003e64:	5de3      	ldrb	r3, [r4, r7]
10003e66:	b25b      	sxtb	r3, r3
10003e68:	3301      	adds	r3, #1
10003e6a:	d101      	bne.n	10003e70 <xQueueReceive+0x48>
10003e6c:	2300      	movs	r3, #0
10003e6e:	55e3      	strb	r3, [r4, r7]
10003e70:	2245      	movs	r2, #69	; 0x45
10003e72:	5ca3      	ldrb	r3, [r4, r2]
10003e74:	b25b      	sxtb	r3, r3
10003e76:	3301      	adds	r3, #1
10003e78:	d101      	bne.n	10003e7e <xQueueReceive+0x56>
10003e7a:	2300      	movs	r3, #0
10003e7c:	54a3      	strb	r3, [r4, r2]
10003e7e:	f7ff f9fd 	bl	1000327c <vPortExitCritical>
10003e82:	a901      	add	r1, sp, #4
10003e84:	a802      	add	r0, sp, #8
10003e86:	f001 fa49 	bl	1000531c <xTaskCheckForTimeOut>
10003e8a:	2800      	cmp	r0, #0
10003e8c:	d155      	bne.n	10003f3a <xQueueReceive+0x112>
10003e8e:	f7ff f9e9 	bl	10003264 <vPortEnterCritical>
10003e92:	6ba3      	ldr	r3, [r4, #56]	; 0x38
10003e94:	2b00      	cmp	r3, #0
10003e96:	d000      	beq.n	10003e9a <xQueueReceive+0x72>
10003e98:	e0ac      	b.n	10003ff4 <xQueueReceive+0x1cc>
10003e9a:	f7ff f9ef 	bl	1000327c <vPortExitCritical>
10003e9e:	0030      	movs	r0, r6
10003ea0:	9901      	ldr	r1, [sp, #4]
10003ea2:	f001 f86b 	bl	10004f7c <vTaskPlaceOnEventList>
10003ea6:	f7ff f9dd 	bl	10003264 <vPortEnterCritical>
10003eaa:	2345      	movs	r3, #69	; 0x45
10003eac:	5ce5      	ldrb	r5, [r4, r3]
10003eae:	b26d      	sxtb	r5, r5
10003eb0:	2d00      	cmp	r5, #0
10003eb2:	dc05      	bgt.n	10003ec0 <xQueueReceive+0x98>
10003eb4:	e013      	b.n	10003ede <xQueueReceive+0xb6>
10003eb6:	3d01      	subs	r5, #1
10003eb8:	b2ea      	uxtb	r2, r5
10003eba:	b26d      	sxtb	r5, r5
10003ebc:	2a00      	cmp	r2, #0
10003ebe:	d00e      	beq.n	10003ede <xQueueReceive+0xb6>
10003ec0:	6a63      	ldr	r3, [r4, #36]	; 0x24
10003ec2:	2b00      	cmp	r3, #0
10003ec4:	d00b      	beq.n	10003ede <xQueueReceive+0xb6>
10003ec6:	0030      	movs	r0, r6
10003ec8:	f001 f964 	bl	10005194 <xTaskRemoveFromEventList>
10003ecc:	2800      	cmp	r0, #0
10003ece:	d0f2      	beq.n	10003eb6 <xQueueReceive+0x8e>
10003ed0:	3d01      	subs	r5, #1
10003ed2:	f001 fa5d 	bl	10005390 <vTaskMissedYield>
10003ed6:	b2ea      	uxtb	r2, r5
10003ed8:	b26d      	sxtb	r5, r5
10003eda:	2a00      	cmp	r2, #0
10003edc:	d1f0      	bne.n	10003ec0 <xQueueReceive+0x98>
10003ede:	2345      	movs	r3, #69	; 0x45
10003ee0:	22ff      	movs	r2, #255	; 0xff
10003ee2:	54e2      	strb	r2, [r4, r3]
10003ee4:	f7ff f9ca 	bl	1000327c <vPortExitCritical>
10003ee8:	f7ff f9bc 	bl	10003264 <vPortEnterCritical>
10003eec:	2310      	movs	r3, #16
10003eee:	4699      	mov	r9, r3
10003ef0:	5de5      	ldrb	r5, [r4, r7]
10003ef2:	44a1      	add	r9, r4
10003ef4:	b26d      	sxtb	r5, r5
10003ef6:	2d00      	cmp	r5, #0
10003ef8:	dc05      	bgt.n	10003f06 <xQueueReceive+0xde>
10003efa:	e013      	b.n	10003f24 <xQueueReceive+0xfc>
10003efc:	3d01      	subs	r5, #1
10003efe:	b2ea      	uxtb	r2, r5
10003f00:	b26d      	sxtb	r5, r5
10003f02:	2a00      	cmp	r2, #0
10003f04:	d00e      	beq.n	10003f24 <xQueueReceive+0xfc>
10003f06:	6923      	ldr	r3, [r4, #16]
10003f08:	2b00      	cmp	r3, #0
10003f0a:	d00b      	beq.n	10003f24 <xQueueReceive+0xfc>
10003f0c:	4648      	mov	r0, r9
10003f0e:	f001 f941 	bl	10005194 <xTaskRemoveFromEventList>
10003f12:	2800      	cmp	r0, #0
10003f14:	d0f2      	beq.n	10003efc <xQueueReceive+0xd4>
10003f16:	3d01      	subs	r5, #1
10003f18:	f001 fa3a 	bl	10005390 <vTaskMissedYield>
10003f1c:	b2ea      	uxtb	r2, r5
10003f1e:	b26d      	sxtb	r5, r5
10003f20:	2a00      	cmp	r2, #0
10003f22:	d1f0      	bne.n	10003f06 <xQueueReceive+0xde>
10003f24:	23ff      	movs	r3, #255	; 0xff
10003f26:	55e3      	strb	r3, [r4, r7]
10003f28:	f7ff f9a8 	bl	1000327c <vPortExitCritical>
10003f2c:	f000 feba 	bl	10004ca4 <xTaskResumeAll>
10003f30:	2800      	cmp	r0, #0
10003f32:	d14e      	bne.n	10003fd2 <xQueueReceive+0x1aa>
10003f34:	f7ff f98a 	bl	1000324c <vPortYield>
10003f38:	e04b      	b.n	10003fd2 <xQueueReceive+0x1aa>
10003f3a:	f7ff f993 	bl	10003264 <vPortEnterCritical>
10003f3e:	2345      	movs	r3, #69	; 0x45
10003f40:	5ce5      	ldrb	r5, [r4, r3]
10003f42:	b26d      	sxtb	r5, r5
10003f44:	2d00      	cmp	r5, #0
10003f46:	dc05      	bgt.n	10003f54 <xQueueReceive+0x12c>
10003f48:	e013      	b.n	10003f72 <xQueueReceive+0x14a>
10003f4a:	3d01      	subs	r5, #1
10003f4c:	b2ea      	uxtb	r2, r5
10003f4e:	b26d      	sxtb	r5, r5
10003f50:	2a00      	cmp	r2, #0
10003f52:	d00e      	beq.n	10003f72 <xQueueReceive+0x14a>
10003f54:	6a63      	ldr	r3, [r4, #36]	; 0x24
10003f56:	2b00      	cmp	r3, #0
10003f58:	d00b      	beq.n	10003f72 <xQueueReceive+0x14a>
10003f5a:	0030      	movs	r0, r6
10003f5c:	f001 f91a 	bl	10005194 <xTaskRemoveFromEventList>
10003f60:	2800      	cmp	r0, #0
10003f62:	d0f2      	beq.n	10003f4a <xQueueReceive+0x122>
10003f64:	3d01      	subs	r5, #1
10003f66:	f001 fa13 	bl	10005390 <vTaskMissedYield>
10003f6a:	b2ea      	uxtb	r2, r5
10003f6c:	b26d      	sxtb	r5, r5
10003f6e:	2a00      	cmp	r2, #0
10003f70:	d1f0      	bne.n	10003f54 <xQueueReceive+0x12c>
10003f72:	2345      	movs	r3, #69	; 0x45
10003f74:	22ff      	movs	r2, #255	; 0xff
10003f76:	54e2      	strb	r2, [r4, r3]
10003f78:	f7ff f980 	bl	1000327c <vPortExitCritical>
10003f7c:	f7ff f972 	bl	10003264 <vPortEnterCritical>
10003f80:	2310      	movs	r3, #16
10003f82:	4699      	mov	r9, r3
10003f84:	5de5      	ldrb	r5, [r4, r7]
10003f86:	44a1      	add	r9, r4
10003f88:	b26d      	sxtb	r5, r5
10003f8a:	2d00      	cmp	r5, #0
10003f8c:	dc05      	bgt.n	10003f9a <xQueueReceive+0x172>
10003f8e:	e013      	b.n	10003fb8 <xQueueReceive+0x190>
10003f90:	3d01      	subs	r5, #1
10003f92:	b2ea      	uxtb	r2, r5
10003f94:	b26d      	sxtb	r5, r5
10003f96:	2a00      	cmp	r2, #0
10003f98:	d00e      	beq.n	10003fb8 <xQueueReceive+0x190>
10003f9a:	6923      	ldr	r3, [r4, #16]
10003f9c:	2b00      	cmp	r3, #0
10003f9e:	d00b      	beq.n	10003fb8 <xQueueReceive+0x190>
10003fa0:	4648      	mov	r0, r9
10003fa2:	f001 f8f7 	bl	10005194 <xTaskRemoveFromEventList>
10003fa6:	2800      	cmp	r0, #0
10003fa8:	d0f2      	beq.n	10003f90 <xQueueReceive+0x168>
10003faa:	3d01      	subs	r5, #1
10003fac:	f001 f9f0 	bl	10005390 <vTaskMissedYield>
10003fb0:	b2ea      	uxtb	r2, r5
10003fb2:	b26d      	sxtb	r5, r5
10003fb4:	2a00      	cmp	r2, #0
10003fb6:	d1f0      	bne.n	10003f9a <xQueueReceive+0x172>
10003fb8:	23ff      	movs	r3, #255	; 0xff
10003fba:	55e3      	strb	r3, [r4, r7]
10003fbc:	f7ff f95e 	bl	1000327c <vPortExitCritical>
10003fc0:	f000 fe70 	bl	10004ca4 <xTaskResumeAll>
10003fc4:	f7ff f94e 	bl	10003264 <vPortEnterCritical>
10003fc8:	6ba3      	ldr	r3, [r4, #56]	; 0x38
10003fca:	2b00      	cmp	r3, #0
10003fcc:	d00a      	beq.n	10003fe4 <xQueueReceive+0x1bc>
10003fce:	f7ff f955 	bl	1000327c <vPortExitCritical>
10003fd2:	f7ff f947 	bl	10003264 <vPortEnterCritical>
10003fd6:	6ba5      	ldr	r5, [r4, #56]	; 0x38
10003fd8:	2d00      	cmp	r5, #0
10003fda:	d153      	bne.n	10004084 <xQueueReceive+0x25c>
10003fdc:	9b01      	ldr	r3, [sp, #4]
10003fde:	2b00      	cmp	r3, #0
10003fe0:	d000      	beq.n	10003fe4 <xQueueReceive+0x1bc>
10003fe2:	e739      	b.n	10003e58 <xQueueReceive+0x30>
10003fe4:	f7ff f94a 	bl	1000327c <vPortExitCritical>
10003fe8:	2000      	movs	r0, #0
10003fea:	b005      	add	sp, #20
10003fec:	bcc0      	pop	{r6, r7}
10003fee:	46b9      	mov	r9, r7
10003ff0:	46b0      	mov	r8, r6
10003ff2:	bdf0      	pop	{r4, r5, r6, r7, pc}
10003ff4:	f7ff f942 	bl	1000327c <vPortExitCritical>
10003ff8:	f7ff f934 	bl	10003264 <vPortEnterCritical>
10003ffc:	2345      	movs	r3, #69	; 0x45
10003ffe:	5ce5      	ldrb	r5, [r4, r3]
10004000:	b26d      	sxtb	r5, r5
10004002:	2d00      	cmp	r5, #0
10004004:	dc05      	bgt.n	10004012 <xQueueReceive+0x1ea>
10004006:	e013      	b.n	10004030 <xQueueReceive+0x208>
10004008:	3d01      	subs	r5, #1
1000400a:	b2ea      	uxtb	r2, r5
1000400c:	b26d      	sxtb	r5, r5
1000400e:	2a00      	cmp	r2, #0
10004010:	d00e      	beq.n	10004030 <xQueueReceive+0x208>
10004012:	6a63      	ldr	r3, [r4, #36]	; 0x24
10004014:	2b00      	cmp	r3, #0
10004016:	d00b      	beq.n	10004030 <xQueueReceive+0x208>
10004018:	0030      	movs	r0, r6
1000401a:	f001 f8bb 	bl	10005194 <xTaskRemoveFromEventList>
1000401e:	2800      	cmp	r0, #0
10004020:	d0f2      	beq.n	10004008 <xQueueReceive+0x1e0>
10004022:	3d01      	subs	r5, #1
10004024:	f001 f9b4 	bl	10005390 <vTaskMissedYield>
10004028:	b2ea      	uxtb	r2, r5
1000402a:	b26d      	sxtb	r5, r5
1000402c:	2a00      	cmp	r2, #0
1000402e:	d1f0      	bne.n	10004012 <xQueueReceive+0x1ea>
10004030:	2345      	movs	r3, #69	; 0x45
10004032:	22ff      	movs	r2, #255	; 0xff
10004034:	54e2      	strb	r2, [r4, r3]
10004036:	f7ff f921 	bl	1000327c <vPortExitCritical>
1000403a:	f7ff f913 	bl	10003264 <vPortEnterCritical>
1000403e:	2310      	movs	r3, #16
10004040:	4699      	mov	r9, r3
10004042:	5de5      	ldrb	r5, [r4, r7]
10004044:	44a1      	add	r9, r4
10004046:	b26d      	sxtb	r5, r5
10004048:	2d00      	cmp	r5, #0
1000404a:	dc05      	bgt.n	10004058 <xQueueReceive+0x230>
1000404c:	e013      	b.n	10004076 <xQueueReceive+0x24e>
1000404e:	3d01      	subs	r5, #1
10004050:	b2ea      	uxtb	r2, r5
10004052:	b26d      	sxtb	r5, r5
10004054:	2a00      	cmp	r2, #0
10004056:	d00e      	beq.n	10004076 <xQueueReceive+0x24e>
10004058:	6923      	ldr	r3, [r4, #16]
1000405a:	2b00      	cmp	r3, #0
1000405c:	d00b      	beq.n	10004076 <xQueueReceive+0x24e>
1000405e:	4648      	mov	r0, r9
10004060:	f001 f898 	bl	10005194 <xTaskRemoveFromEventList>
10004064:	2800      	cmp	r0, #0
10004066:	d0f2      	beq.n	1000404e <xQueueReceive+0x226>
10004068:	3d01      	subs	r5, #1
1000406a:	f001 f991 	bl	10005390 <vTaskMissedYield>
1000406e:	b2ea      	uxtb	r2, r5
10004070:	b26d      	sxtb	r5, r5
10004072:	2a00      	cmp	r2, #0
10004074:	d1f0      	bne.n	10004058 <xQueueReceive+0x230>
10004076:	23ff      	movs	r3, #255	; 0xff
10004078:	55e3      	strb	r3, [r4, r7]
1000407a:	f7ff f8ff 	bl	1000327c <vPortExitCritical>
1000407e:	f000 fe11 	bl	10004ca4 <xTaskResumeAll>
10004082:	e7a6      	b.n	10003fd2 <xQueueReceive+0x1aa>
10004084:	6c22      	ldr	r2, [r4, #64]	; 0x40
10004086:	2a00      	cmp	r2, #0
10004088:	d008      	beq.n	1000409c <xQueueReceive+0x274>
1000408a:	68e3      	ldr	r3, [r4, #12]
1000408c:	1899      	adds	r1, r3, r2
1000408e:	68a3      	ldr	r3, [r4, #8]
10004090:	60e1      	str	r1, [r4, #12]
10004092:	4299      	cmp	r1, r3
10004094:	d20b      	bcs.n	100040ae <xQueueReceive+0x286>
10004096:	4640      	mov	r0, r8
10004098:	f004 f97e 	bl	10008398 <__wrap___aeabi_memcpy>
1000409c:	3d01      	subs	r5, #1
1000409e:	63a5      	str	r5, [r4, #56]	; 0x38
100040a0:	6923      	ldr	r3, [r4, #16]
100040a2:	2b00      	cmp	r3, #0
100040a4:	d106      	bne.n	100040b4 <xQueueReceive+0x28c>
100040a6:	f7ff f8e9 	bl	1000327c <vPortExitCritical>
100040aa:	2001      	movs	r0, #1
100040ac:	e79d      	b.n	10003fea <xQueueReceive+0x1c2>
100040ae:	6821      	ldr	r1, [r4, #0]
100040b0:	60e1      	str	r1, [r4, #12]
100040b2:	e7f0      	b.n	10004096 <xQueueReceive+0x26e>
100040b4:	0020      	movs	r0, r4
100040b6:	3010      	adds	r0, #16
100040b8:	f001 f86c 	bl	10005194 <xTaskRemoveFromEventList>
100040bc:	2800      	cmp	r0, #0
100040be:	d0f2      	beq.n	100040a6 <xQueueReceive+0x27e>
100040c0:	f7ff f8c4 	bl	1000324c <vPortYield>
100040c4:	e7ef      	b.n	100040a6 <xQueueReceive+0x27e>
100040c6:	46c0      	nop			; (mov r8, r8)

100040c8 <xQueueSemaphoreTake>:
100040c8:	b5f0      	push	{r4, r5, r6, r7, lr}
100040ca:	46c6      	mov	lr, r8
100040cc:	2300      	movs	r3, #0
100040ce:	0004      	movs	r4, r0
100040d0:	0006      	movs	r6, r0
100040d2:	b500      	push	{lr}
100040d4:	b084      	sub	sp, #16
100040d6:	4698      	mov	r8, r3
100040d8:	9101      	str	r1, [sp, #4]
100040da:	f7ff f8c3 	bl	10003264 <vPortEnterCritical>
100040de:	6ba3      	ldr	r3, [r4, #56]	; 0x38
100040e0:	2500      	movs	r5, #0
100040e2:	3624      	adds	r6, #36	; 0x24
100040e4:	2b00      	cmp	r3, #0
100040e6:	d000      	beq.n	100040ea <xQueueSemaphoreTake+0x22>
100040e8:	e082      	b.n	100041f0 <xQueueSemaphoreTake+0x128>
100040ea:	9b01      	ldr	r3, [sp, #4]
100040ec:	2b00      	cmp	r3, #0
100040ee:	d100      	bne.n	100040f2 <xQueueSemaphoreTake+0x2a>
100040f0:	e140      	b.n	10004374 <xQueueSemaphoreTake+0x2ac>
100040f2:	2d00      	cmp	r5, #0
100040f4:	d100      	bne.n	100040f8 <xQueueSemaphoreTake+0x30>
100040f6:	e0d9      	b.n	100042ac <xQueueSemaphoreTake+0x1e4>
100040f8:	f7ff f8c0 	bl	1000327c <vPortExitCritical>
100040fc:	f000 fdca 	bl	10004c94 <vTaskSuspendAll>
10004100:	f7ff f8b0 	bl	10003264 <vPortEnterCritical>
10004104:	2244      	movs	r2, #68	; 0x44
10004106:	5ca3      	ldrb	r3, [r4, r2]
10004108:	b25b      	sxtb	r3, r3
1000410a:	3301      	adds	r3, #1
1000410c:	d101      	bne.n	10004112 <xQueueSemaphoreTake+0x4a>
1000410e:	2300      	movs	r3, #0
10004110:	54a3      	strb	r3, [r4, r2]
10004112:	2245      	movs	r2, #69	; 0x45
10004114:	5ca3      	ldrb	r3, [r4, r2]
10004116:	b25b      	sxtb	r3, r3
10004118:	3301      	adds	r3, #1
1000411a:	d101      	bne.n	10004120 <xQueueSemaphoreTake+0x58>
1000411c:	2300      	movs	r3, #0
1000411e:	54a3      	strb	r3, [r4, r2]
10004120:	f7ff f8ac 	bl	1000327c <vPortExitCritical>
10004124:	a901      	add	r1, sp, #4
10004126:	a802      	add	r0, sp, #8
10004128:	f001 f8f8 	bl	1000531c <xTaskCheckForTimeOut>
1000412c:	2800      	cmp	r0, #0
1000412e:	d16e      	bne.n	1000420e <xQueueSemaphoreTake+0x146>
10004130:	f7ff f898 	bl	10003264 <vPortEnterCritical>
10004134:	6ba3      	ldr	r3, [r4, #56]	; 0x38
10004136:	2b00      	cmp	r3, #0
10004138:	d000      	beq.n	1000413c <xQueueSemaphoreTake+0x74>
1000413a:	e0c5      	b.n	100042c8 <xQueueSemaphoreTake+0x200>
1000413c:	f7ff f89e 	bl	1000327c <vPortExitCritical>
10004140:	6823      	ldr	r3, [r4, #0]
10004142:	2b00      	cmp	r3, #0
10004144:	d100      	bne.n	10004148 <xQueueSemaphoreTake+0x80>
10004146:	e122      	b.n	1000438e <xQueueSemaphoreTake+0x2c6>
10004148:	0030      	movs	r0, r6
1000414a:	9901      	ldr	r1, [sp, #4]
1000414c:	f000 ff16 	bl	10004f7c <vTaskPlaceOnEventList>
10004150:	f7ff f888 	bl	10003264 <vPortEnterCritical>
10004154:	2345      	movs	r3, #69	; 0x45
10004156:	5ce5      	ldrb	r5, [r4, r3]
10004158:	b26d      	sxtb	r5, r5
1000415a:	2d00      	cmp	r5, #0
1000415c:	dc05      	bgt.n	1000416a <xQueueSemaphoreTake+0xa2>
1000415e:	e013      	b.n	10004188 <xQueueSemaphoreTake+0xc0>
10004160:	3d01      	subs	r5, #1
10004162:	b2ea      	uxtb	r2, r5
10004164:	b26d      	sxtb	r5, r5
10004166:	2a00      	cmp	r2, #0
10004168:	d00e      	beq.n	10004188 <xQueueSemaphoreTake+0xc0>
1000416a:	6a63      	ldr	r3, [r4, #36]	; 0x24
1000416c:	2b00      	cmp	r3, #0
1000416e:	d00b      	beq.n	10004188 <xQueueSemaphoreTake+0xc0>
10004170:	0030      	movs	r0, r6
10004172:	f001 f80f 	bl	10005194 <xTaskRemoveFromEventList>
10004176:	2800      	cmp	r0, #0
10004178:	d0f2      	beq.n	10004160 <xQueueSemaphoreTake+0x98>
1000417a:	3d01      	subs	r5, #1
1000417c:	f001 f908 	bl	10005390 <vTaskMissedYield>
10004180:	b2ea      	uxtb	r2, r5
10004182:	b26d      	sxtb	r5, r5
10004184:	2a00      	cmp	r2, #0
10004186:	d1f0      	bne.n	1000416a <xQueueSemaphoreTake+0xa2>
10004188:	2345      	movs	r3, #69	; 0x45
1000418a:	22ff      	movs	r2, #255	; 0xff
1000418c:	54e2      	strb	r2, [r4, r3]
1000418e:	f7ff f875 	bl	1000327c <vPortExitCritical>
10004192:	f7ff f867 	bl	10003264 <vPortEnterCritical>
10004196:	2344      	movs	r3, #68	; 0x44
10004198:	5ce5      	ldrb	r5, [r4, r3]
1000419a:	b26d      	sxtb	r5, r5
1000419c:	2d00      	cmp	r5, #0
1000419e:	dd16      	ble.n	100041ce <xQueueSemaphoreTake+0x106>
100041a0:	0027      	movs	r7, r4
100041a2:	3710      	adds	r7, #16
100041a4:	e004      	b.n	100041b0 <xQueueSemaphoreTake+0xe8>
100041a6:	3d01      	subs	r5, #1
100041a8:	b2ea      	uxtb	r2, r5
100041aa:	b26d      	sxtb	r5, r5
100041ac:	2a00      	cmp	r2, #0
100041ae:	d00e      	beq.n	100041ce <xQueueSemaphoreTake+0x106>
100041b0:	6923      	ldr	r3, [r4, #16]
100041b2:	2b00      	cmp	r3, #0
100041b4:	d00b      	beq.n	100041ce <xQueueSemaphoreTake+0x106>
100041b6:	0038      	movs	r0, r7
100041b8:	f000 ffec 	bl	10005194 <xTaskRemoveFromEventList>
100041bc:	2800      	cmp	r0, #0
100041be:	d0f2      	beq.n	100041a6 <xQueueSemaphoreTake+0xde>
100041c0:	3d01      	subs	r5, #1
100041c2:	f001 f8e5 	bl	10005390 <vTaskMissedYield>
100041c6:	b2ea      	uxtb	r2, r5
100041c8:	b26d      	sxtb	r5, r5
100041ca:	2a00      	cmp	r2, #0
100041cc:	d1f0      	bne.n	100041b0 <xQueueSemaphoreTake+0xe8>
100041ce:	2344      	movs	r3, #68	; 0x44
100041d0:	22ff      	movs	r2, #255	; 0xff
100041d2:	54e2      	strb	r2, [r4, r3]
100041d4:	f7ff f852 	bl	1000327c <vPortExitCritical>
100041d8:	f000 fd64 	bl	10004ca4 <xTaskResumeAll>
100041dc:	2800      	cmp	r0, #0
100041de:	d100      	bne.n	100041e2 <xQueueSemaphoreTake+0x11a>
100041e0:	e0bc      	b.n	1000435c <xQueueSemaphoreTake+0x294>
100041e2:	2501      	movs	r5, #1
100041e4:	f7ff f83e 	bl	10003264 <vPortEnterCritical>
100041e8:	6ba3      	ldr	r3, [r4, #56]	; 0x38
100041ea:	2b00      	cmp	r3, #0
100041ec:	d100      	bne.n	100041f0 <xQueueSemaphoreTake+0x128>
100041ee:	e77c      	b.n	100040ea <xQueueSemaphoreTake+0x22>
100041f0:	3b01      	subs	r3, #1
100041f2:	63a3      	str	r3, [r4, #56]	; 0x38
100041f4:	6823      	ldr	r3, [r4, #0]
100041f6:	2b00      	cmp	r3, #0
100041f8:	d100      	bne.n	100041fc <xQueueSemaphoreTake+0x134>
100041fa:	e0db      	b.n	100043b4 <xQueueSemaphoreTake+0x2ec>
100041fc:	6923      	ldr	r3, [r4, #16]
100041fe:	2b00      	cmp	r3, #0
10004200:	d000      	beq.n	10004204 <xQueueSemaphoreTake+0x13c>
10004202:	e0cd      	b.n	100043a0 <xQueueSemaphoreTake+0x2d8>
10004204:	f7ff f83a 	bl	1000327c <vPortExitCritical>
10004208:	2301      	movs	r3, #1
1000420a:	4698      	mov	r8, r3
1000420c:	e057      	b.n	100042be <xQueueSemaphoreTake+0x1f6>
1000420e:	f7ff f829 	bl	10003264 <vPortEnterCritical>
10004212:	2345      	movs	r3, #69	; 0x45
10004214:	5ce5      	ldrb	r5, [r4, r3]
10004216:	b26d      	sxtb	r5, r5
10004218:	2d00      	cmp	r5, #0
1000421a:	dc05      	bgt.n	10004228 <xQueueSemaphoreTake+0x160>
1000421c:	e013      	b.n	10004246 <xQueueSemaphoreTake+0x17e>
1000421e:	3d01      	subs	r5, #1
10004220:	b2ea      	uxtb	r2, r5
10004222:	b26d      	sxtb	r5, r5
10004224:	2a00      	cmp	r2, #0
10004226:	d00e      	beq.n	10004246 <xQueueSemaphoreTake+0x17e>
10004228:	6a63      	ldr	r3, [r4, #36]	; 0x24
1000422a:	2b00      	cmp	r3, #0
1000422c:	d00b      	beq.n	10004246 <xQueueSemaphoreTake+0x17e>
1000422e:	0030      	movs	r0, r6
10004230:	f000 ffb0 	bl	10005194 <xTaskRemoveFromEventList>
10004234:	2800      	cmp	r0, #0
10004236:	d0f2      	beq.n	1000421e <xQueueSemaphoreTake+0x156>
10004238:	3d01      	subs	r5, #1
1000423a:	f001 f8a9 	bl	10005390 <vTaskMissedYield>
1000423e:	b2ea      	uxtb	r2, r5
10004240:	b26d      	sxtb	r5, r5
10004242:	2a00      	cmp	r2, #0
10004244:	d1f0      	bne.n	10004228 <xQueueSemaphoreTake+0x160>
10004246:	2345      	movs	r3, #69	; 0x45
10004248:	22ff      	movs	r2, #255	; 0xff
1000424a:	54e2      	strb	r2, [r4, r3]
1000424c:	f7ff f816 	bl	1000327c <vPortExitCritical>
10004250:	f7ff f808 	bl	10003264 <vPortEnterCritical>
10004254:	2344      	movs	r3, #68	; 0x44
10004256:	5ce5      	ldrb	r5, [r4, r3]
10004258:	b26d      	sxtb	r5, r5
1000425a:	2d00      	cmp	r5, #0
1000425c:	dd16      	ble.n	1000428c <xQueueSemaphoreTake+0x1c4>
1000425e:	0027      	movs	r7, r4
10004260:	3710      	adds	r7, #16
10004262:	e004      	b.n	1000426e <xQueueSemaphoreTake+0x1a6>
10004264:	3d01      	subs	r5, #1
10004266:	b2ea      	uxtb	r2, r5
10004268:	b26d      	sxtb	r5, r5
1000426a:	2a00      	cmp	r2, #0
1000426c:	d00e      	beq.n	1000428c <xQueueSemaphoreTake+0x1c4>
1000426e:	6923      	ldr	r3, [r4, #16]
10004270:	2b00      	cmp	r3, #0
10004272:	d00b      	beq.n	1000428c <xQueueSemaphoreTake+0x1c4>
10004274:	0038      	movs	r0, r7
10004276:	f000 ff8d 	bl	10005194 <xTaskRemoveFromEventList>
1000427a:	2800      	cmp	r0, #0
1000427c:	d0f2      	beq.n	10004264 <xQueueSemaphoreTake+0x19c>
1000427e:	3d01      	subs	r5, #1
10004280:	f001 f886 	bl	10005390 <vTaskMissedYield>
10004284:	b2ea      	uxtb	r2, r5
10004286:	b26d      	sxtb	r5, r5
10004288:	2a00      	cmp	r2, #0
1000428a:	d1f0      	bne.n	1000426e <xQueueSemaphoreTake+0x1a6>
1000428c:	2344      	movs	r3, #68	; 0x44
1000428e:	22ff      	movs	r2, #255	; 0xff
10004290:	54e2      	strb	r2, [r4, r3]
10004292:	f7fe fff3 	bl	1000327c <vPortExitCritical>
10004296:	f000 fd05 	bl	10004ca4 <xTaskResumeAll>
1000429a:	f7fe ffe3 	bl	10003264 <vPortEnterCritical>
1000429e:	6ba3      	ldr	r3, [r4, #56]	; 0x38
100042a0:	2b00      	cmp	r3, #0
100042a2:	d007      	beq.n	100042b4 <xQueueSemaphoreTake+0x1ec>
100042a4:	f7fe ffea 	bl	1000327c <vPortExitCritical>
100042a8:	2501      	movs	r5, #1
100042aa:	e79b      	b.n	100041e4 <xQueueSemaphoreTake+0x11c>
100042ac:	a802      	add	r0, sp, #8
100042ae:	f001 f829 	bl	10005304 <vTaskInternalSetTimeOutState>
100042b2:	e721      	b.n	100040f8 <xQueueSemaphoreTake+0x30>
100042b4:	f7fe ffe2 	bl	1000327c <vPortExitCritical>
100042b8:	4643      	mov	r3, r8
100042ba:	2b00      	cmp	r3, #0
100042bc:	d152      	bne.n	10004364 <xQueueSemaphoreTake+0x29c>
100042be:	4640      	mov	r0, r8
100042c0:	b004      	add	sp, #16
100042c2:	bc80      	pop	{r7}
100042c4:	46b8      	mov	r8, r7
100042c6:	bdf0      	pop	{r4, r5, r6, r7, pc}
100042c8:	f7fe ffd8 	bl	1000327c <vPortExitCritical>
100042cc:	f7fe ffca 	bl	10003264 <vPortEnterCritical>
100042d0:	2345      	movs	r3, #69	; 0x45
100042d2:	5ce5      	ldrb	r5, [r4, r3]
100042d4:	b26d      	sxtb	r5, r5
100042d6:	2d00      	cmp	r5, #0
100042d8:	dc05      	bgt.n	100042e6 <xQueueSemaphoreTake+0x21e>
100042da:	e013      	b.n	10004304 <xQueueSemaphoreTake+0x23c>
100042dc:	3d01      	subs	r5, #1
100042de:	b2ea      	uxtb	r2, r5
100042e0:	b26d      	sxtb	r5, r5
100042e2:	2a00      	cmp	r2, #0
100042e4:	d00e      	beq.n	10004304 <xQueueSemaphoreTake+0x23c>
100042e6:	6a63      	ldr	r3, [r4, #36]	; 0x24
100042e8:	2b00      	cmp	r3, #0
100042ea:	d00b      	beq.n	10004304 <xQueueSemaphoreTake+0x23c>
100042ec:	0030      	movs	r0, r6
100042ee:	f000 ff51 	bl	10005194 <xTaskRemoveFromEventList>
100042f2:	2800      	cmp	r0, #0
100042f4:	d0f2      	beq.n	100042dc <xQueueSemaphoreTake+0x214>
100042f6:	3d01      	subs	r5, #1
100042f8:	f001 f84a 	bl	10005390 <vTaskMissedYield>
100042fc:	b2ea      	uxtb	r2, r5
100042fe:	b26d      	sxtb	r5, r5
10004300:	2a00      	cmp	r2, #0
10004302:	d1f0      	bne.n	100042e6 <xQueueSemaphoreTake+0x21e>
10004304:	2345      	movs	r3, #69	; 0x45
10004306:	22ff      	movs	r2, #255	; 0xff
10004308:	54e2      	strb	r2, [r4, r3]
1000430a:	f7fe ffb7 	bl	1000327c <vPortExitCritical>
1000430e:	f7fe ffa9 	bl	10003264 <vPortEnterCritical>
10004312:	2344      	movs	r3, #68	; 0x44
10004314:	5ce5      	ldrb	r5, [r4, r3]
10004316:	b26d      	sxtb	r5, r5
10004318:	2d00      	cmp	r5, #0
1000431a:	dd16      	ble.n	1000434a <xQueueSemaphoreTake+0x282>
1000431c:	0027      	movs	r7, r4
1000431e:	3710      	adds	r7, #16
10004320:	e004      	b.n	1000432c <xQueueSemaphoreTake+0x264>
10004322:	3d01      	subs	r5, #1
10004324:	b2ea      	uxtb	r2, r5
10004326:	b26d      	sxtb	r5, r5
10004328:	2a00      	cmp	r2, #0
1000432a:	d00e      	beq.n	1000434a <xQueueSemaphoreTake+0x282>
1000432c:	6923      	ldr	r3, [r4, #16]
1000432e:	2b00      	cmp	r3, #0
10004330:	d00b      	beq.n	1000434a <xQueueSemaphoreTake+0x282>
10004332:	0038      	movs	r0, r7
10004334:	f000 ff2e 	bl	10005194 <xTaskRemoveFromEventList>
10004338:	2800      	cmp	r0, #0
1000433a:	d0f2      	beq.n	10004322 <xQueueSemaphoreTake+0x25a>
1000433c:	3d01      	subs	r5, #1
1000433e:	f001 f827 	bl	10005390 <vTaskMissedYield>
10004342:	b2ea      	uxtb	r2, r5
10004344:	b26d      	sxtb	r5, r5
10004346:	2a00      	cmp	r2, #0
10004348:	d1f0      	bne.n	1000432c <xQueueSemaphoreTake+0x264>
1000434a:	2344      	movs	r3, #68	; 0x44
1000434c:	22ff      	movs	r2, #255	; 0xff
1000434e:	54e2      	strb	r2, [r4, r3]
10004350:	f7fe ff94 	bl	1000327c <vPortExitCritical>
10004354:	2501      	movs	r5, #1
10004356:	f000 fca5 	bl	10004ca4 <xTaskResumeAll>
1000435a:	e743      	b.n	100041e4 <xQueueSemaphoreTake+0x11c>
1000435c:	f7fe ff76 	bl	1000324c <vPortYield>
10004360:	2501      	movs	r5, #1
10004362:	e73f      	b.n	100041e4 <xQueueSemaphoreTake+0x11c>
10004364:	f7fe ff7e 	bl	10003264 <vPortEnterCritical>
10004368:	6a61      	ldr	r1, [r4, #36]	; 0x24
1000436a:	2900      	cmp	r1, #0
1000436c:	d107      	bne.n	1000437e <xQueueSemaphoreTake+0x2b6>
1000436e:	68a0      	ldr	r0, [r4, #8]
10004370:	f001 f8aa 	bl	100054c8 <vTaskPriorityDisinheritAfterTimeout>
10004374:	f7fe ff82 	bl	1000327c <vPortExitCritical>
10004378:	2300      	movs	r3, #0
1000437a:	4698      	mov	r8, r3
1000437c:	e79f      	b.n	100042be <xQueueSemaphoreTake+0x1f6>
1000437e:	2104      	movs	r1, #4
10004380:	6b23      	ldr	r3, [r4, #48]	; 0x30
10004382:	68a0      	ldr	r0, [r4, #8]
10004384:	681b      	ldr	r3, [r3, #0]
10004386:	1ac9      	subs	r1, r1, r3
10004388:	f001 f89e 	bl	100054c8 <vTaskPriorityDisinheritAfterTimeout>
1000438c:	e7f2      	b.n	10004374 <xQueueSemaphoreTake+0x2ac>
1000438e:	f7fe ff69 	bl	10003264 <vPortEnterCritical>
10004392:	68a0      	ldr	r0, [r4, #8]
10004394:	f001 f81c 	bl	100053d0 <xTaskPriorityInherit>
10004398:	4680      	mov	r8, r0
1000439a:	f7fe ff6f 	bl	1000327c <vPortExitCritical>
1000439e:	e6d3      	b.n	10004148 <xQueueSemaphoreTake+0x80>
100043a0:	0020      	movs	r0, r4
100043a2:	3010      	adds	r0, #16
100043a4:	f000 fef6 	bl	10005194 <xTaskRemoveFromEventList>
100043a8:	2800      	cmp	r0, #0
100043aa:	d100      	bne.n	100043ae <xQueueSemaphoreTake+0x2e6>
100043ac:	e72a      	b.n	10004204 <xQueueSemaphoreTake+0x13c>
100043ae:	f7fe ff4d 	bl	1000324c <vPortYield>
100043b2:	e727      	b.n	10004204 <xQueueSemaphoreTake+0x13c>
100043b4:	f001 f8d4 	bl	10005560 <pvTaskIncrementMutexHeldCount>
100043b8:	60a0      	str	r0, [r4, #8]
100043ba:	e71f      	b.n	100041fc <xQueueSemaphoreTake+0x134>

100043bc <vQueueAddToRegistry>:
100043bc:	b570      	push	{r4, r5, r6, lr}
100043be:	2900      	cmp	r1, #0
100043c0:	d00f      	beq.n	100043e2 <vQueueAddToRegistry+0x26>
100043c2:	2600      	movs	r6, #0
100043c4:	2300      	movs	r3, #0
100043c6:	4c42      	ldr	r4, [pc, #264]	; (100044d0 <vQueueAddToRegistry+0x114>)
100043c8:	00da      	lsls	r2, r3, #3
100043ca:	18a5      	adds	r5, r4, r2
100043cc:	686d      	ldr	r5, [r5, #4]
100043ce:	4285      	cmp	r5, r0
100043d0:	d100      	bne.n	100043d4 <vQueueAddToRegistry+0x18>
100043d2:	e06f      	b.n	100044b4 <vQueueAddToRegistry+0xf8>
100043d4:	2e00      	cmp	r6, #0
100043d6:	d005      	beq.n	100043e4 <vQueueAddToRegistry+0x28>
100043d8:	3301      	adds	r3, #1
100043da:	2b0a      	cmp	r3, #10
100043dc:	d1f4      	bne.n	100043c8 <vQueueAddToRegistry+0xc>
100043de:	6031      	str	r1, [r6, #0]
100043e0:	6070      	str	r0, [r6, #4]
100043e2:	bd70      	pop	{r4, r5, r6, pc}
100043e4:	58a5      	ldr	r5, [r4, r2]
100043e6:	2d00      	cmp	r5, #0
100043e8:	d061      	beq.n	100044ae <vQueueAddToRegistry+0xf2>
100043ea:	1c5d      	adds	r5, r3, #1
100043ec:	2b09      	cmp	r3, #9
100043ee:	d0f8      	beq.n	100043e2 <vQueueAddToRegistry+0x26>
100043f0:	00ea      	lsls	r2, r5, #3
100043f2:	18a6      	adds	r6, r4, r2
100043f4:	6876      	ldr	r6, [r6, #4]
100043f6:	42b0      	cmp	r0, r6
100043f8:	d05c      	beq.n	100044b4 <vQueueAddToRegistry+0xf8>
100043fa:	58a6      	ldr	r6, [r4, r2]
100043fc:	2e00      	cmp	r6, #0
100043fe:	d05d      	beq.n	100044bc <vQueueAddToRegistry+0x100>
10004400:	1c9d      	adds	r5, r3, #2
10004402:	2b08      	cmp	r3, #8
10004404:	d0ed      	beq.n	100043e2 <vQueueAddToRegistry+0x26>
10004406:	00ea      	lsls	r2, r5, #3
10004408:	18a6      	adds	r6, r4, r2
1000440a:	6876      	ldr	r6, [r6, #4]
1000440c:	42b0      	cmp	r0, r6
1000440e:	d051      	beq.n	100044b4 <vQueueAddToRegistry+0xf8>
10004410:	58a6      	ldr	r6, [r4, r2]
10004412:	2e00      	cmp	r6, #0
10004414:	d052      	beq.n	100044bc <vQueueAddToRegistry+0x100>
10004416:	1cdd      	adds	r5, r3, #3
10004418:	2b07      	cmp	r3, #7
1000441a:	d0e2      	beq.n	100043e2 <vQueueAddToRegistry+0x26>
1000441c:	00ea      	lsls	r2, r5, #3
1000441e:	18a6      	adds	r6, r4, r2
10004420:	6876      	ldr	r6, [r6, #4]
10004422:	4286      	cmp	r6, r0
10004424:	d046      	beq.n	100044b4 <vQueueAddToRegistry+0xf8>
10004426:	58a6      	ldr	r6, [r4, r2]
10004428:	2e00      	cmp	r6, #0
1000442a:	d047      	beq.n	100044bc <vQueueAddToRegistry+0x100>
1000442c:	1d1d      	adds	r5, r3, #4
1000442e:	2b06      	cmp	r3, #6
10004430:	d0d7      	beq.n	100043e2 <vQueueAddToRegistry+0x26>
10004432:	00ea      	lsls	r2, r5, #3
10004434:	18a6      	adds	r6, r4, r2
10004436:	6876      	ldr	r6, [r6, #4]
10004438:	42b0      	cmp	r0, r6
1000443a:	d03b      	beq.n	100044b4 <vQueueAddToRegistry+0xf8>
1000443c:	58a6      	ldr	r6, [r4, r2]
1000443e:	2e00      	cmp	r6, #0
10004440:	d03c      	beq.n	100044bc <vQueueAddToRegistry+0x100>
10004442:	1d5d      	adds	r5, r3, #5
10004444:	2b05      	cmp	r3, #5
10004446:	d0cc      	beq.n	100043e2 <vQueueAddToRegistry+0x26>
10004448:	00ea      	lsls	r2, r5, #3
1000444a:	18a6      	adds	r6, r4, r2
1000444c:	6876      	ldr	r6, [r6, #4]
1000444e:	42b0      	cmp	r0, r6
10004450:	d030      	beq.n	100044b4 <vQueueAddToRegistry+0xf8>
10004452:	58a6      	ldr	r6, [r4, r2]
10004454:	2e00      	cmp	r6, #0
10004456:	d031      	beq.n	100044bc <vQueueAddToRegistry+0x100>
10004458:	1d9a      	adds	r2, r3, #6
1000445a:	2b04      	cmp	r3, #4
1000445c:	d0c1      	beq.n	100043e2 <vQueueAddToRegistry+0x26>
1000445e:	00d5      	lsls	r5, r2, #3
10004460:	1966      	adds	r6, r4, r5
10004462:	6876      	ldr	r6, [r6, #4]
10004464:	42b0      	cmp	r0, r6
10004466:	d024      	beq.n	100044b2 <vQueueAddToRegistry+0xf6>
10004468:	5965      	ldr	r5, [r4, r5]
1000446a:	2d00      	cmp	r5, #0
1000446c:	d029      	beq.n	100044c2 <vQueueAddToRegistry+0x106>
1000446e:	1ddd      	adds	r5, r3, #7
10004470:	2b03      	cmp	r3, #3
10004472:	d0b6      	beq.n	100043e2 <vQueueAddToRegistry+0x26>
10004474:	00ea      	lsls	r2, r5, #3
10004476:	18a6      	adds	r6, r4, r2
10004478:	6876      	ldr	r6, [r6, #4]
1000447a:	42b0      	cmp	r0, r6
1000447c:	d01a      	beq.n	100044b4 <vQueueAddToRegistry+0xf8>
1000447e:	58a6      	ldr	r6, [r4, r2]
10004480:	2e00      	cmp	r6, #0
10004482:	d01b      	beq.n	100044bc <vQueueAddToRegistry+0x100>
10004484:	3501      	adds	r5, #1
10004486:	2b02      	cmp	r3, #2
10004488:	d0ab      	beq.n	100043e2 <vQueueAddToRegistry+0x26>
1000448a:	00ea      	lsls	r2, r5, #3
1000448c:	18a6      	adds	r6, r4, r2
1000448e:	6876      	ldr	r6, [r6, #4]
10004490:	42b0      	cmp	r0, r6
10004492:	d00f      	beq.n	100044b4 <vQueueAddToRegistry+0xf8>
10004494:	58a6      	ldr	r6, [r4, r2]
10004496:	2e00      	cmp	r6, #0
10004498:	d010      	beq.n	100044bc <vQueueAddToRegistry+0x100>
1000449a:	2b01      	cmp	r3, #1
1000449c:	d0a1      	beq.n	100043e2 <vQueueAddToRegistry+0x26>
1000449e:	6ce3      	ldr	r3, [r4, #76]	; 0x4c
100044a0:	4298      	cmp	r0, r3
100044a2:	d012      	beq.n	100044ca <vQueueAddToRegistry+0x10e>
100044a4:	6ca3      	ldr	r3, [r4, #72]	; 0x48
100044a6:	2b00      	cmp	r3, #0
100044a8:	d19b      	bne.n	100043e2 <vQueueAddToRegistry+0x26>
100044aa:	2309      	movs	r3, #9
100044ac:	2248      	movs	r2, #72	; 0x48
100044ae:	18a6      	adds	r6, r4, r2
100044b0:	e792      	b.n	100043d8 <vQueueAddToRegistry+0x1c>
100044b2:	00d2      	lsls	r2, r2, #3
100044b4:	18a6      	adds	r6, r4, r2
100044b6:	6031      	str	r1, [r6, #0]
100044b8:	6070      	str	r0, [r6, #4]
100044ba:	e792      	b.n	100043e2 <vQueueAddToRegistry+0x26>
100044bc:	002b      	movs	r3, r5
100044be:	18a6      	adds	r6, r4, r2
100044c0:	e78a      	b.n	100043d8 <vQueueAddToRegistry+0x1c>
100044c2:	0013      	movs	r3, r2
100044c4:	00d2      	lsls	r2, r2, #3
100044c6:	18a6      	adds	r6, r4, r2
100044c8:	e786      	b.n	100043d8 <vQueueAddToRegistry+0x1c>
100044ca:	2248      	movs	r2, #72	; 0x48
100044cc:	18a6      	adds	r6, r4, r2
100044ce:	e7f2      	b.n	100044b6 <vQueueAddToRegistry+0xfa>
100044d0:	20000bd8 	.word	0x20000bd8

100044d4 <vQueueWaitForMessageRestricted>:
100044d4:	b570      	push	{r4, r5, r6, lr}
100044d6:	0005      	movs	r5, r0
100044d8:	0016      	movs	r6, r2
100044da:	000c      	movs	r4, r1
100044dc:	f7fe fec2 	bl	10003264 <vPortEnterCritical>
100044e0:	2244      	movs	r2, #68	; 0x44
100044e2:	5cab      	ldrb	r3, [r5, r2]
100044e4:	b25b      	sxtb	r3, r3
100044e6:	3301      	adds	r3, #1
100044e8:	d101      	bne.n	100044ee <vQueueWaitForMessageRestricted+0x1a>
100044ea:	2300      	movs	r3, #0
100044ec:	54ab      	strb	r3, [r5, r2]
100044ee:	2245      	movs	r2, #69	; 0x45
100044f0:	5cab      	ldrb	r3, [r5, r2]
100044f2:	b25b      	sxtb	r3, r3
100044f4:	3301      	adds	r3, #1
100044f6:	d101      	bne.n	100044fc <vQueueWaitForMessageRestricted+0x28>
100044f8:	2300      	movs	r3, #0
100044fa:	54ab      	strb	r3, [r5, r2]
100044fc:	f7fe febe 	bl	1000327c <vPortExitCritical>
10004500:	6bab      	ldr	r3, [r5, #56]	; 0x38
10004502:	2b00      	cmp	r3, #0
10004504:	d046      	beq.n	10004594 <vQueueWaitForMessageRestricted+0xc0>
10004506:	f7fe fead 	bl	10003264 <vPortEnterCritical>
1000450a:	2345      	movs	r3, #69	; 0x45
1000450c:	5cec      	ldrb	r4, [r5, r3]
1000450e:	b264      	sxtb	r4, r4
10004510:	2c00      	cmp	r4, #0
10004512:	dd16      	ble.n	10004542 <vQueueWaitForMessageRestricted+0x6e>
10004514:	002e      	movs	r6, r5
10004516:	3624      	adds	r6, #36	; 0x24
10004518:	e004      	b.n	10004524 <vQueueWaitForMessageRestricted+0x50>
1000451a:	3c01      	subs	r4, #1
1000451c:	b2e2      	uxtb	r2, r4
1000451e:	b264      	sxtb	r4, r4
10004520:	2a00      	cmp	r2, #0
10004522:	d00e      	beq.n	10004542 <vQueueWaitForMessageRestricted+0x6e>
10004524:	6a6b      	ldr	r3, [r5, #36]	; 0x24
10004526:	2b00      	cmp	r3, #0
10004528:	d00b      	beq.n	10004542 <vQueueWaitForMessageRestricted+0x6e>
1000452a:	0030      	movs	r0, r6
1000452c:	f000 fe32 	bl	10005194 <xTaskRemoveFromEventList>
10004530:	2800      	cmp	r0, #0
10004532:	d0f2      	beq.n	1000451a <vQueueWaitForMessageRestricted+0x46>
10004534:	3c01      	subs	r4, #1
10004536:	f000 ff2b 	bl	10005390 <vTaskMissedYield>
1000453a:	b2e2      	uxtb	r2, r4
1000453c:	b264      	sxtb	r4, r4
1000453e:	2a00      	cmp	r2, #0
10004540:	d1f0      	bne.n	10004524 <vQueueWaitForMessageRestricted+0x50>
10004542:	2345      	movs	r3, #69	; 0x45
10004544:	22ff      	movs	r2, #255	; 0xff
10004546:	54ea      	strb	r2, [r5, r3]
10004548:	f7fe fe98 	bl	1000327c <vPortExitCritical>
1000454c:	f7fe fe8a 	bl	10003264 <vPortEnterCritical>
10004550:	2344      	movs	r3, #68	; 0x44
10004552:	5cec      	ldrb	r4, [r5, r3]
10004554:	b264      	sxtb	r4, r4
10004556:	2c00      	cmp	r4, #0
10004558:	dd16      	ble.n	10004588 <vQueueWaitForMessageRestricted+0xb4>
1000455a:	002e      	movs	r6, r5
1000455c:	3610      	adds	r6, #16
1000455e:	e004      	b.n	1000456a <vQueueWaitForMessageRestricted+0x96>
10004560:	3c01      	subs	r4, #1
10004562:	b2e2      	uxtb	r2, r4
10004564:	b264      	sxtb	r4, r4
10004566:	2a00      	cmp	r2, #0
10004568:	d00e      	beq.n	10004588 <vQueueWaitForMessageRestricted+0xb4>
1000456a:	692b      	ldr	r3, [r5, #16]
1000456c:	2b00      	cmp	r3, #0
1000456e:	d00b      	beq.n	10004588 <vQueueWaitForMessageRestricted+0xb4>
10004570:	0030      	movs	r0, r6
10004572:	f000 fe0f 	bl	10005194 <xTaskRemoveFromEventList>
10004576:	2800      	cmp	r0, #0
10004578:	d0f2      	beq.n	10004560 <vQueueWaitForMessageRestricted+0x8c>
1000457a:	3c01      	subs	r4, #1
1000457c:	f000 ff08 	bl	10005390 <vTaskMissedYield>
10004580:	b2e2      	uxtb	r2, r4
10004582:	b264      	sxtb	r4, r4
10004584:	2a00      	cmp	r2, #0
10004586:	d1f0      	bne.n	1000456a <vQueueWaitForMessageRestricted+0x96>
10004588:	2344      	movs	r3, #68	; 0x44
1000458a:	22ff      	movs	r2, #255	; 0xff
1000458c:	54ea      	strb	r2, [r5, r3]
1000458e:	f7fe fe75 	bl	1000327c <vPortExitCritical>
10004592:	bd70      	pop	{r4, r5, r6, pc}
10004594:	0028      	movs	r0, r5
10004596:	0032      	movs	r2, r6
10004598:	0021      	movs	r1, r4
1000459a:	3024      	adds	r0, #36	; 0x24
1000459c:	f000 fd98 	bl	100050d0 <vTaskPlaceOnEventListRestricted>
100045a0:	e7b1      	b.n	10004506 <vQueueWaitForMessageRestricted+0x32>
100045a2:	46c0      	nop			; (mov r8, r8)

100045a4 <prvIdleTask>:
100045a4:	b5f0      	push	{r4, r5, r6, r7, lr}
100045a6:	46c6      	mov	lr, r8
100045a8:	4b12      	ldr	r3, [pc, #72]	; (100045f4 <prvIdleTask+0x50>)
100045aa:	b500      	push	{lr}
100045ac:	4698      	mov	r8, r3
100045ae:	4d12      	ldr	r5, [pc, #72]	; (100045f8 <prvIdleTask+0x54>)
100045b0:	4f12      	ldr	r7, [pc, #72]	; (100045fc <prvIdleTask+0x58>)
100045b2:	4e13      	ldr	r6, [pc, #76]	; (10004600 <prvIdleTask+0x5c>)
100045b4:	e014      	b.n	100045e0 <prvIdleTask+0x3c>
100045b6:	f7fe fe55 	bl	10003264 <vPortEnterCritical>
100045ba:	68fb      	ldr	r3, [r7, #12]
100045bc:	68dc      	ldr	r4, [r3, #12]
100045be:	1d20      	adds	r0, r4, #4
100045c0:	f7ff f96c 	bl	1000389c <uxListRemove>
100045c4:	6833      	ldr	r3, [r6, #0]
100045c6:	3b01      	subs	r3, #1
100045c8:	6033      	str	r3, [r6, #0]
100045ca:	682b      	ldr	r3, [r5, #0]
100045cc:	3b01      	subs	r3, #1
100045ce:	602b      	str	r3, [r5, #0]
100045d0:	f7fe fe54 	bl	1000327c <vPortExitCritical>
100045d4:	6b20      	ldr	r0, [r4, #48]	; 0x30
100045d6:	f001 fa37 	bl	10005a48 <vPortFree>
100045da:	0020      	movs	r0, r4
100045dc:	f001 fa34 	bl	10005a48 <vPortFree>
100045e0:	682b      	ldr	r3, [r5, #0]
100045e2:	2b00      	cmp	r3, #0
100045e4:	d1e7      	bne.n	100045b6 <prvIdleTask+0x12>
100045e6:	4643      	mov	r3, r8
100045e8:	681b      	ldr	r3, [r3, #0]
100045ea:	2b01      	cmp	r3, #1
100045ec:	d9f8      	bls.n	100045e0 <prvIdleTask+0x3c>
100045ee:	f7fe fe2d 	bl	1000324c <vPortYield>
100045f2:	e7f5      	b.n	100045e0 <prvIdleTask+0x3c>
100045f4:	2000af44 	.word	0x2000af44
100045f8:	20012ce8 	.word	0x20012ce8
100045fc:	20012d90 	.word	0x20012d90
10004600:	20012ce4 	.word	0x20012ce4

10004604 <xTaskIncrementTick.part.0>:
10004604:	b5f0      	push	{r4, r5, r6, r7, lr}
10004606:	4657      	mov	r7, sl
10004608:	46de      	mov	lr, fp
1000460a:	464e      	mov	r6, r9
1000460c:	4645      	mov	r5, r8
1000460e:	4b4f      	ldr	r3, [pc, #316]	; (1000474c <xTaskIncrementTick.part.0+0x148>)
10004610:	b5e0      	push	{r5, r6, r7, lr}
10004612:	681f      	ldr	r7, [r3, #0]
10004614:	b083      	sub	sp, #12
10004616:	3701      	adds	r7, #1
10004618:	601f      	str	r7, [r3, #0]
1000461a:	2f00      	cmp	r7, #0
1000461c:	d100      	bne.n	10004620 <xTaskIncrementTick.part.0+0x1c>
1000461e:	e074      	b.n	1000470a <xTaskIncrementTick.part.0+0x106>
10004620:	4b4b      	ldr	r3, [pc, #300]	; (10004750 <xTaskIncrementTick.part.0+0x14c>)
10004622:	469b      	mov	fp, r3
10004624:	465b      	mov	r3, fp
10004626:	2200      	movs	r2, #0
10004628:	681b      	ldr	r3, [r3, #0]
1000462a:	9201      	str	r2, [sp, #4]
1000462c:	429f      	cmp	r7, r3
1000462e:	d35e      	bcc.n	100046ee <xTaskIncrementTick.part.0+0xea>
10004630:	4b48      	ldr	r3, [pc, #288]	; (10004754 <xTaskIncrementTick.part.0+0x150>)
10004632:	469c      	mov	ip, r3
10004634:	681b      	ldr	r3, [r3, #0]
10004636:	681b      	ldr	r3, [r3, #0]
10004638:	2b00      	cmp	r3, #0
1000463a:	d054      	beq.n	100046e6 <xTaskIncrementTick.part.0+0xe2>
1000463c:	2300      	movs	r3, #0
1000463e:	4698      	mov	r8, r3
10004640:	4b45      	ldr	r3, [pc, #276]	; (10004758 <xTaskIncrementTick.part.0+0x154>)
10004642:	4d46      	ldr	r5, [pc, #280]	; (1000475c <xTaskIncrementTick.part.0+0x158>)
10004644:	4699      	mov	r9, r3
10004646:	4b46      	ldr	r3, [pc, #280]	; (10004760 <xTaskIncrementTick.part.0+0x15c>)
10004648:	9700      	str	r7, [sp, #0]
1000464a:	469a      	mov	sl, r3
1000464c:	e038      	b.n	100046c0 <xTaskIncrementTick.part.0+0xbc>
1000464e:	4641      	mov	r1, r8
10004650:	6159      	str	r1, [r3, #20]
10004652:	6811      	ldr	r1, [r2, #0]
10004654:	3901      	subs	r1, #1
10004656:	6011      	str	r1, [r2, #0]
10004658:	6a9a      	ldr	r2, [r3, #40]	; 0x28
1000465a:	2a00      	cmp	r2, #0
1000465c:	d00e      	beq.n	1000467c <xTaskIncrementTick.part.0+0x78>
1000465e:	69d9      	ldr	r1, [r3, #28]
10004660:	6a18      	ldr	r0, [r3, #32]
10004662:	6856      	ldr	r6, [r2, #4]
10004664:	6088      	str	r0, [r1, #8]
10004666:	6a18      	ldr	r0, [r3, #32]
10004668:	6041      	str	r1, [r0, #4]
1000466a:	0019      	movs	r1, r3
1000466c:	3118      	adds	r1, #24
1000466e:	428e      	cmp	r6, r1
10004670:	d067      	beq.n	10004742 <xTaskIncrementTick.part.0+0x13e>
10004672:	4641      	mov	r1, r8
10004674:	6299      	str	r1, [r3, #40]	; 0x28
10004676:	6811      	ldr	r1, [r2, #0]
10004678:	3901      	subs	r1, #1
1000467a:	6011      	str	r1, [r2, #0]
1000467c:	464a      	mov	r2, r9
1000467e:	6ad9      	ldr	r1, [r3, #44]	; 0x2c
10004680:	6812      	ldr	r2, [r2, #0]
10004682:	4291      	cmp	r1, r2
10004684:	d901      	bls.n	1000468a <xTaskIncrementTick.part.0+0x86>
10004686:	464a      	mov	r2, r9
10004688:	6011      	str	r1, [r2, #0]
1000468a:	008a      	lsls	r2, r1, #2
1000468c:	1852      	adds	r2, r2, r1
1000468e:	0092      	lsls	r2, r2, #2
10004690:	18ae      	adds	r6, r5, r2
10004692:	6870      	ldr	r0, [r6, #4]
10004694:	6887      	ldr	r7, [r0, #8]
10004696:	6098      	str	r0, [r3, #8]
10004698:	60df      	str	r7, [r3, #12]
1000469a:	6887      	ldr	r7, [r0, #8]
1000469c:	607c      	str	r4, [r7, #4]
1000469e:	6084      	str	r4, [r0, #8]
100046a0:	615e      	str	r6, [r3, #20]
100046a2:	58ab      	ldr	r3, [r5, r2]
100046a4:	3301      	adds	r3, #1
100046a6:	50ab      	str	r3, [r5, r2]
100046a8:	4653      	mov	r3, sl
100046aa:	681b      	ldr	r3, [r3, #0]
100046ac:	6adb      	ldr	r3, [r3, #44]	; 0x2c
100046ae:	4299      	cmp	r1, r3
100046b0:	d301      	bcc.n	100046b6 <xTaskIncrementTick.part.0+0xb2>
100046b2:	2301      	movs	r3, #1
100046b4:	9301      	str	r3, [sp, #4]
100046b6:	4663      	mov	r3, ip
100046b8:	681b      	ldr	r3, [r3, #0]
100046ba:	681b      	ldr	r3, [r3, #0]
100046bc:	2b00      	cmp	r3, #0
100046be:	d012      	beq.n	100046e6 <xTaskIncrementTick.part.0+0xe2>
100046c0:	4663      	mov	r3, ip
100046c2:	681b      	ldr	r3, [r3, #0]
100046c4:	9900      	ldr	r1, [sp, #0]
100046c6:	68db      	ldr	r3, [r3, #12]
100046c8:	68db      	ldr	r3, [r3, #12]
100046ca:	685a      	ldr	r2, [r3, #4]
100046cc:	4291      	cmp	r1, r2
100046ce:	d33a      	bcc.n	10004746 <xTaskIncrementTick.part.0+0x142>
100046d0:	695a      	ldr	r2, [r3, #20]
100046d2:	6898      	ldr	r0, [r3, #8]
100046d4:	68d9      	ldr	r1, [r3, #12]
100046d6:	1d1c      	adds	r4, r3, #4
100046d8:	6081      	str	r1, [r0, #8]
100046da:	6048      	str	r0, [r1, #4]
100046dc:	6850      	ldr	r0, [r2, #4]
100046de:	42a0      	cmp	r0, r4
100046e0:	d1b5      	bne.n	1000464e <xTaskIncrementTick.part.0+0x4a>
100046e2:	6051      	str	r1, [r2, #4]
100046e4:	e7b3      	b.n	1000464e <xTaskIncrementTick.part.0+0x4a>
100046e6:	2301      	movs	r3, #1
100046e8:	465a      	mov	r2, fp
100046ea:	425b      	negs	r3, r3
100046ec:	6013      	str	r3, [r2, #0]
100046ee:	4b1d      	ldr	r3, [pc, #116]	; (10004764 <xTaskIncrementTick.part.0+0x160>)
100046f0:	681b      	ldr	r3, [r3, #0]
100046f2:	2b00      	cmp	r3, #0
100046f4:	d001      	beq.n	100046fa <xTaskIncrementTick.part.0+0xf6>
100046f6:	2301      	movs	r3, #1
100046f8:	9301      	str	r3, [sp, #4]
100046fa:	9801      	ldr	r0, [sp, #4]
100046fc:	b003      	add	sp, #12
100046fe:	bcf0      	pop	{r4, r5, r6, r7}
10004700:	46bb      	mov	fp, r7
10004702:	46b2      	mov	sl, r6
10004704:	46a9      	mov	r9, r5
10004706:	46a0      	mov	r8, r4
10004708:	bdf0      	pop	{r4, r5, r6, r7, pc}
1000470a:	4b12      	ldr	r3, [pc, #72]	; (10004754 <xTaskIncrementTick.part.0+0x150>)
1000470c:	4a16      	ldr	r2, [pc, #88]	; (10004768 <xTaskIncrementTick.part.0+0x164>)
1000470e:	6819      	ldr	r1, [r3, #0]
10004710:	6810      	ldr	r0, [r2, #0]
10004712:	6018      	str	r0, [r3, #0]
10004714:	6011      	str	r1, [r2, #0]
10004716:	4915      	ldr	r1, [pc, #84]	; (1000476c <xTaskIncrementTick.part.0+0x168>)
10004718:	680a      	ldr	r2, [r1, #0]
1000471a:	3201      	adds	r2, #1
1000471c:	600a      	str	r2, [r1, #0]
1000471e:	681a      	ldr	r2, [r3, #0]
10004720:	6812      	ldr	r2, [r2, #0]
10004722:	2a00      	cmp	r2, #0
10004724:	d106      	bne.n	10004734 <xTaskIncrementTick.part.0+0x130>
10004726:	4b0a      	ldr	r3, [pc, #40]	; (10004750 <xTaskIncrementTick.part.0+0x14c>)
10004728:	469b      	mov	fp, r3
1000472a:	2301      	movs	r3, #1
1000472c:	465a      	mov	r2, fp
1000472e:	425b      	negs	r3, r3
10004730:	6013      	str	r3, [r2, #0]
10004732:	e777      	b.n	10004624 <xTaskIncrementTick.part.0+0x20>
10004734:	681b      	ldr	r3, [r3, #0]
10004736:	4a06      	ldr	r2, [pc, #24]	; (10004750 <xTaskIncrementTick.part.0+0x14c>)
10004738:	68db      	ldr	r3, [r3, #12]
1000473a:	4693      	mov	fp, r2
1000473c:	681b      	ldr	r3, [r3, #0]
1000473e:	6013      	str	r3, [r2, #0]
10004740:	e770      	b.n	10004624 <xTaskIncrementTick.part.0+0x20>
10004742:	6050      	str	r0, [r2, #4]
10004744:	e795      	b.n	10004672 <xTaskIncrementTick.part.0+0x6e>
10004746:	465b      	mov	r3, fp
10004748:	601a      	str	r2, [r3, #0]
1000474a:	e7d0      	b.n	100046ee <xTaskIncrementTick.part.0+0xea>
1000474c:	20012da4 	.word	0x20012da4
10004750:	20012d58 	.word	0x20012d58
10004754:	2000af38 	.word	0x2000af38
10004758:	20012cf4 	.word	0x20012cf4
1000475c:	2000af44 	.word	0x2000af44
10004760:	2000af30 	.word	0x2000af30
10004764:	20012db0 	.word	0x20012db0
10004768:	2000af3c 	.word	0x2000af3c
1000476c:	20012d5c 	.word	0x20012d5c

10004770 <xTaskCreate>:
10004770:	b5f8      	push	{r3, r4, r5, r6, r7, lr}
10004772:	46ce      	mov	lr, r9
10004774:	4647      	mov	r7, r8
10004776:	0096      	lsls	r6, r2, #2
10004778:	b580      	push	{r7, lr}
1000477a:	4680      	mov	r8, r0
1000477c:	0030      	movs	r0, r6
1000477e:	000d      	movs	r5, r1
10004780:	4699      	mov	r9, r3
10004782:	f001 f927 	bl	100059d4 <pvPortMalloc>
10004786:	1e07      	subs	r7, r0, #0
10004788:	d100      	bne.n	1000478c <xTaskCreate+0x1c>
1000478a:	e0cb      	b.n	10004924 <xTaskCreate+0x1b4>
1000478c:	2070      	movs	r0, #112	; 0x70
1000478e:	f001 f921 	bl	100059d4 <pvPortMalloc>
10004792:	1e04      	subs	r4, r0, #0
10004794:	d100      	bne.n	10004798 <xTaskCreate+0x28>
10004796:	e0cc      	b.n	10004932 <xTaskCreate+0x1c2>
10004798:	2270      	movs	r2, #112	; 0x70
1000479a:	2100      	movs	r1, #0
1000479c:	f003 fdf6 	bl	1000838c <__wrap_memset>
100047a0:	0032      	movs	r2, r6
100047a2:	21a5      	movs	r1, #165	; 0xa5
100047a4:	0038      	movs	r0, r7
100047a6:	6327      	str	r7, [r4, #48]	; 0x30
100047a8:	f003 fdf0 	bl	1000838c <__wrap_memset>
100047ac:	6b23      	ldr	r3, [r4, #48]	; 0x30
100047ae:	3e04      	subs	r6, #4
100047b0:	469c      	mov	ip, r3
100047b2:	2307      	movs	r3, #7
100047b4:	4466      	add	r6, ip
100047b6:	439e      	bics	r6, r3
100047b8:	2d00      	cmp	r5, #0
100047ba:	d05f      	beq.n	1000487c <xTaskCreate+0x10c>
100047bc:	2334      	movs	r3, #52	; 0x34
100047be:	782a      	ldrb	r2, [r5, #0]
100047c0:	54e2      	strb	r2, [r4, r3]
100047c2:	782b      	ldrb	r3, [r5, #0]
100047c4:	2b00      	cmp	r3, #0
100047c6:	d056      	beq.n	10004876 <xTaskCreate+0x106>
100047c8:	2335      	movs	r3, #53	; 0x35
100047ca:	786a      	ldrb	r2, [r5, #1]
100047cc:	54e2      	strb	r2, [r4, r3]
100047ce:	786b      	ldrb	r3, [r5, #1]
100047d0:	2b00      	cmp	r3, #0
100047d2:	d050      	beq.n	10004876 <xTaskCreate+0x106>
100047d4:	2336      	movs	r3, #54	; 0x36
100047d6:	78aa      	ldrb	r2, [r5, #2]
100047d8:	54e2      	strb	r2, [r4, r3]
100047da:	78ab      	ldrb	r3, [r5, #2]
100047dc:	2b00      	cmp	r3, #0
100047de:	d04a      	beq.n	10004876 <xTaskCreate+0x106>
100047e0:	2337      	movs	r3, #55	; 0x37
100047e2:	78ea      	ldrb	r2, [r5, #3]
100047e4:	54e2      	strb	r2, [r4, r3]
100047e6:	78eb      	ldrb	r3, [r5, #3]
100047e8:	2b00      	cmp	r3, #0
100047ea:	d044      	beq.n	10004876 <xTaskCreate+0x106>
100047ec:	2338      	movs	r3, #56	; 0x38
100047ee:	792a      	ldrb	r2, [r5, #4]
100047f0:	54e2      	strb	r2, [r4, r3]
100047f2:	792b      	ldrb	r3, [r5, #4]
100047f4:	2b00      	cmp	r3, #0
100047f6:	d03e      	beq.n	10004876 <xTaskCreate+0x106>
100047f8:	2339      	movs	r3, #57	; 0x39
100047fa:	796a      	ldrb	r2, [r5, #5]
100047fc:	54e2      	strb	r2, [r4, r3]
100047fe:	796b      	ldrb	r3, [r5, #5]
10004800:	2b00      	cmp	r3, #0
10004802:	d038      	beq.n	10004876 <xTaskCreate+0x106>
10004804:	233a      	movs	r3, #58	; 0x3a
10004806:	79aa      	ldrb	r2, [r5, #6]
10004808:	54e2      	strb	r2, [r4, r3]
1000480a:	79ab      	ldrb	r3, [r5, #6]
1000480c:	2b00      	cmp	r3, #0
1000480e:	d032      	beq.n	10004876 <xTaskCreate+0x106>
10004810:	233b      	movs	r3, #59	; 0x3b
10004812:	79ea      	ldrb	r2, [r5, #7]
10004814:	54e2      	strb	r2, [r4, r3]
10004816:	79eb      	ldrb	r3, [r5, #7]
10004818:	2b00      	cmp	r3, #0
1000481a:	d02c      	beq.n	10004876 <xTaskCreate+0x106>
1000481c:	233c      	movs	r3, #60	; 0x3c
1000481e:	7a2a      	ldrb	r2, [r5, #8]
10004820:	54e2      	strb	r2, [r4, r3]
10004822:	7a2b      	ldrb	r3, [r5, #8]
10004824:	2b00      	cmp	r3, #0
10004826:	d026      	beq.n	10004876 <xTaskCreate+0x106>
10004828:	233d      	movs	r3, #61	; 0x3d
1000482a:	7a6a      	ldrb	r2, [r5, #9]
1000482c:	54e2      	strb	r2, [r4, r3]
1000482e:	7a6b      	ldrb	r3, [r5, #9]
10004830:	2b00      	cmp	r3, #0
10004832:	d020      	beq.n	10004876 <xTaskCreate+0x106>
10004834:	233e      	movs	r3, #62	; 0x3e
10004836:	7aaa      	ldrb	r2, [r5, #10]
10004838:	54e2      	strb	r2, [r4, r3]
1000483a:	7aab      	ldrb	r3, [r5, #10]
1000483c:	2b00      	cmp	r3, #0
1000483e:	d01a      	beq.n	10004876 <xTaskCreate+0x106>
10004840:	233f      	movs	r3, #63	; 0x3f
10004842:	7aea      	ldrb	r2, [r5, #11]
10004844:	54e2      	strb	r2, [r4, r3]
10004846:	7aeb      	ldrb	r3, [r5, #11]
10004848:	2b00      	cmp	r3, #0
1000484a:	d014      	beq.n	10004876 <xTaskCreate+0x106>
1000484c:	2340      	movs	r3, #64	; 0x40
1000484e:	7b2a      	ldrb	r2, [r5, #12]
10004850:	54e2      	strb	r2, [r4, r3]
10004852:	7b2b      	ldrb	r3, [r5, #12]
10004854:	2b00      	cmp	r3, #0
10004856:	d00e      	beq.n	10004876 <xTaskCreate+0x106>
10004858:	2341      	movs	r3, #65	; 0x41
1000485a:	7b6a      	ldrb	r2, [r5, #13]
1000485c:	54e2      	strb	r2, [r4, r3]
1000485e:	7b6b      	ldrb	r3, [r5, #13]
10004860:	2b00      	cmp	r3, #0
10004862:	d008      	beq.n	10004876 <xTaskCreate+0x106>
10004864:	2342      	movs	r3, #66	; 0x42
10004866:	7baa      	ldrb	r2, [r5, #14]
10004868:	54e2      	strb	r2, [r4, r3]
1000486a:	7bab      	ldrb	r3, [r5, #14]
1000486c:	2b00      	cmp	r3, #0
1000486e:	d002      	beq.n	10004876 <xTaskCreate+0x106>
10004870:	2343      	movs	r3, #67	; 0x43
10004872:	7bea      	ldrb	r2, [r5, #15]
10004874:	54e2      	strb	r2, [r4, r3]
10004876:	2343      	movs	r3, #67	; 0x43
10004878:	2200      	movs	r2, #0
1000487a:	54e2      	strb	r2, [r4, r3]
1000487c:	9d08      	ldr	r5, [sp, #32]
1000487e:	2d03      	cmp	r5, #3
10004880:	d85d      	bhi.n	1000493e <xTaskCreate+0x1ce>
10004882:	1d27      	adds	r7, r4, #4
10004884:	0038      	movs	r0, r7
10004886:	62e5      	str	r5, [r4, #44]	; 0x2c
10004888:	6465      	str	r5, [r4, #68]	; 0x44
1000488a:	f7fe ffdf 	bl	1000384c <vListInitialiseItem>
1000488e:	0020      	movs	r0, r4
10004890:	3018      	adds	r0, #24
10004892:	f7fe ffdb 	bl	1000384c <vListInitialiseItem>
10004896:	2304      	movs	r3, #4
10004898:	1b5d      	subs	r5, r3, r5
1000489a:	464a      	mov	r2, r9
1000489c:	4641      	mov	r1, r8
1000489e:	0030      	movs	r0, r6
100048a0:	6124      	str	r4, [r4, #16]
100048a2:	61a5      	str	r5, [r4, #24]
100048a4:	6264      	str	r4, [r4, #36]	; 0x24
100048a6:	f7fe fcc1 	bl	1000322c <pxPortInitialiseStack>
100048aa:	9b09      	ldr	r3, [sp, #36]	; 0x24
100048ac:	6020      	str	r0, [r4, #0]
100048ae:	2b00      	cmp	r3, #0
100048b0:	d000      	beq.n	100048b4 <xTaskCreate+0x144>
100048b2:	601c      	str	r4, [r3, #0]
100048b4:	f7fe fcd6 	bl	10003264 <vPortEnterCritical>
100048b8:	4a41      	ldr	r2, [pc, #260]	; (100049c0 <xTaskCreate+0x250>)
100048ba:	4e42      	ldr	r6, [pc, #264]	; (100049c4 <xTaskCreate+0x254>)
100048bc:	6813      	ldr	r3, [r2, #0]
100048be:	3301      	adds	r3, #1
100048c0:	6013      	str	r3, [r2, #0]
100048c2:	6833      	ldr	r3, [r6, #0]
100048c4:	2b00      	cmp	r3, #0
100048c6:	d044      	beq.n	10004952 <xTaskCreate+0x1e2>
100048c8:	4b3f      	ldr	r3, [pc, #252]	; (100049c8 <xTaskCreate+0x258>)
100048ca:	4698      	mov	r8, r3
100048cc:	681b      	ldr	r3, [r3, #0]
100048ce:	2b00      	cmp	r3, #0
100048d0:	d037      	beq.n	10004942 <xTaskCreate+0x1d2>
100048d2:	6ae2      	ldr	r2, [r4, #44]	; 0x2c
100048d4:	4d3d      	ldr	r5, [pc, #244]	; (100049cc <xTaskCreate+0x25c>)
100048d6:	493e      	ldr	r1, [pc, #248]	; (100049d0 <xTaskCreate+0x260>)
100048d8:	680b      	ldr	r3, [r1, #0]
100048da:	3301      	adds	r3, #1
100048dc:	600b      	str	r3, [r1, #0]
100048de:	4b3d      	ldr	r3, [pc, #244]	; (100049d4 <xTaskCreate+0x264>)
100048e0:	6819      	ldr	r1, [r3, #0]
100048e2:	4291      	cmp	r1, r2
100048e4:	d200      	bcs.n	100048e8 <xTaskCreate+0x178>
100048e6:	601a      	str	r2, [r3, #0]
100048e8:	0093      	lsls	r3, r2, #2
100048ea:	189b      	adds	r3, r3, r2
100048ec:	009b      	lsls	r3, r3, #2
100048ee:	18e9      	adds	r1, r5, r3
100048f0:	684a      	ldr	r2, [r1, #4]
100048f2:	6890      	ldr	r0, [r2, #8]
100048f4:	60a2      	str	r2, [r4, #8]
100048f6:	60e0      	str	r0, [r4, #12]
100048f8:	6890      	ldr	r0, [r2, #8]
100048fa:	6047      	str	r7, [r0, #4]
100048fc:	6097      	str	r7, [r2, #8]
100048fe:	58ea      	ldr	r2, [r5, r3]
10004900:	6161      	str	r1, [r4, #20]
10004902:	3201      	adds	r2, #1
10004904:	50ea      	str	r2, [r5, r3]
10004906:	f7fe fcb9 	bl	1000327c <vPortExitCritical>
1000490a:	4643      	mov	r3, r8
1000490c:	681b      	ldr	r3, [r3, #0]
1000490e:	2501      	movs	r5, #1
10004910:	2b00      	cmp	r3, #0
10004912:	d009      	beq.n	10004928 <xTaskCreate+0x1b8>
10004914:	6833      	ldr	r3, [r6, #0]
10004916:	6ada      	ldr	r2, [r3, #44]	; 0x2c
10004918:	6ae3      	ldr	r3, [r4, #44]	; 0x2c
1000491a:	429a      	cmp	r2, r3
1000491c:	d204      	bcs.n	10004928 <xTaskCreate+0x1b8>
1000491e:	f7fe fc95 	bl	1000324c <vPortYield>
10004922:	e001      	b.n	10004928 <xTaskCreate+0x1b8>
10004924:	2501      	movs	r5, #1
10004926:	426d      	negs	r5, r5
10004928:	0028      	movs	r0, r5
1000492a:	bcc0      	pop	{r6, r7}
1000492c:	46b9      	mov	r9, r7
1000492e:	46b0      	mov	r8, r6
10004930:	bdf8      	pop	{r3, r4, r5, r6, r7, pc}
10004932:	2501      	movs	r5, #1
10004934:	0038      	movs	r0, r7
10004936:	f001 f887 	bl	10005a48 <vPortFree>
1000493a:	426d      	negs	r5, r5
1000493c:	e7f4      	b.n	10004928 <xTaskCreate+0x1b8>
1000493e:	2503      	movs	r5, #3
10004940:	e79f      	b.n	10004882 <xTaskCreate+0x112>
10004942:	6833      	ldr	r3, [r6, #0]
10004944:	6ae2      	ldr	r2, [r4, #44]	; 0x2c
10004946:	6adb      	ldr	r3, [r3, #44]	; 0x2c
10004948:	4293      	cmp	r3, r2
1000494a:	d800      	bhi.n	1000494e <xTaskCreate+0x1de>
1000494c:	6034      	str	r4, [r6, #0]
1000494e:	4d1f      	ldr	r5, [pc, #124]	; (100049cc <xTaskCreate+0x25c>)
10004950:	e7c1      	b.n	100048d6 <xTaskCreate+0x166>
10004952:	6034      	str	r4, [r6, #0]
10004954:	6813      	ldr	r3, [r2, #0]
10004956:	2b01      	cmp	r3, #1
10004958:	d004      	beq.n	10004964 <xTaskCreate+0x1f4>
1000495a:	4b1b      	ldr	r3, [pc, #108]	; (100049c8 <xTaskCreate+0x258>)
1000495c:	6ae2      	ldr	r2, [r4, #44]	; 0x2c
1000495e:	4698      	mov	r8, r3
10004960:	4d1a      	ldr	r5, [pc, #104]	; (100049cc <xTaskCreate+0x25c>)
10004962:	e7b8      	b.n	100048d6 <xTaskCreate+0x166>
10004964:	4d19      	ldr	r5, [pc, #100]	; (100049cc <xTaskCreate+0x25c>)
10004966:	0028      	movs	r0, r5
10004968:	f7fe ff64 	bl	10003834 <vListInitialise>
1000496c:	0028      	movs	r0, r5
1000496e:	3014      	adds	r0, #20
10004970:	f7fe ff60 	bl	10003834 <vListInitialise>
10004974:	0028      	movs	r0, r5
10004976:	3028      	adds	r0, #40	; 0x28
10004978:	f7fe ff5c 	bl	10003834 <vListInitialise>
1000497c:	0028      	movs	r0, r5
1000497e:	303c      	adds	r0, #60	; 0x3c
10004980:	f7fe ff58 	bl	10003834 <vListInitialise>
10004984:	4b14      	ldr	r3, [pc, #80]	; (100049d8 <xTaskCreate+0x268>)
10004986:	4699      	mov	r9, r3
10004988:	0018      	movs	r0, r3
1000498a:	f7fe ff53 	bl	10003834 <vListInitialise>
1000498e:	4b13      	ldr	r3, [pc, #76]	; (100049dc <xTaskCreate+0x26c>)
10004990:	0018      	movs	r0, r3
10004992:	4698      	mov	r8, r3
10004994:	f7fe ff4e 	bl	10003834 <vListInitialise>
10004998:	4811      	ldr	r0, [pc, #68]	; (100049e0 <xTaskCreate+0x270>)
1000499a:	f7fe ff4b 	bl	10003834 <vListInitialise>
1000499e:	4811      	ldr	r0, [pc, #68]	; (100049e4 <xTaskCreate+0x274>)
100049a0:	f7fe ff48 	bl	10003834 <vListInitialise>
100049a4:	4810      	ldr	r0, [pc, #64]	; (100049e8 <xTaskCreate+0x278>)
100049a6:	f7fe ff45 	bl	10003834 <vListInitialise>
100049aa:	464a      	mov	r2, r9
100049ac:	4b0f      	ldr	r3, [pc, #60]	; (100049ec <xTaskCreate+0x27c>)
100049ae:	601a      	str	r2, [r3, #0]
100049b0:	4642      	mov	r2, r8
100049b2:	4b0f      	ldr	r3, [pc, #60]	; (100049f0 <xTaskCreate+0x280>)
100049b4:	601a      	str	r2, [r3, #0]
100049b6:	4b04      	ldr	r3, [pc, #16]	; (100049c8 <xTaskCreate+0x258>)
100049b8:	6ae2      	ldr	r2, [r4, #44]	; 0x2c
100049ba:	4698      	mov	r8, r3
100049bc:	e78b      	b.n	100048d6 <xTaskCreate+0x166>
100049be:	46c0      	nop			; (mov r8, r8)
100049c0:	20012ce4 	.word	0x20012ce4
100049c4:	2000af30 	.word	0x2000af30
100049c8:	20012d78 	.word	0x20012d78
100049cc:	2000af44 	.word	0x2000af44
100049d0:	20012cf0 	.word	0x20012cf0
100049d4:	20012cf4 	.word	0x20012cf4
100049d8:	20012d20 	.word	0x20012d20
100049dc:	20012d34 	.word	0x20012d34
100049e0:	20012d64 	.word	0x20012d64
100049e4:	20012d90 	.word	0x20012d90
100049e8:	20012d7c 	.word	0x20012d7c
100049ec:	2000af38 	.word	0x2000af38
100049f0:	2000af3c 	.word	0x2000af3c

100049f4 <vTaskDelete>:
100049f4:	b570      	push	{r4, r5, r6, lr}
100049f6:	0004      	movs	r4, r0
100049f8:	f7fe fc34 	bl	10003264 <vPortEnterCritical>
100049fc:	4d23      	ldr	r5, [pc, #140]	; (10004a8c <vTaskDelete+0x98>)
100049fe:	2c00      	cmp	r4, #0
10004a00:	d036      	beq.n	10004a70 <vTaskDelete+0x7c>
10004a02:	1d26      	adds	r6, r4, #4
10004a04:	0030      	movs	r0, r6
10004a06:	f7fe ff49 	bl	1000389c <uxListRemove>
10004a0a:	6aa3      	ldr	r3, [r4, #40]	; 0x28
10004a0c:	2b00      	cmp	r3, #0
10004a0e:	d003      	beq.n	10004a18 <vTaskDelete+0x24>
10004a10:	0020      	movs	r0, r4
10004a12:	3018      	adds	r0, #24
10004a14:	f7fe ff42 	bl	1000389c <uxListRemove>
10004a18:	4a1d      	ldr	r2, [pc, #116]	; (10004a90 <vTaskDelete+0x9c>)
10004a1a:	6813      	ldr	r3, [r2, #0]
10004a1c:	3301      	adds	r3, #1
10004a1e:	6013      	str	r3, [r2, #0]
10004a20:	682b      	ldr	r3, [r5, #0]
10004a22:	42a3      	cmp	r3, r4
10004a24:	d026      	beq.n	10004a74 <vTaskDelete+0x80>
10004a26:	4a1b      	ldr	r2, [pc, #108]	; (10004a94 <vTaskDelete+0xa0>)
10004a28:	6813      	ldr	r3, [r2, #0]
10004a2a:	3b01      	subs	r3, #1
10004a2c:	6013      	str	r3, [r2, #0]
10004a2e:	4b1a      	ldr	r3, [pc, #104]	; (10004a98 <vTaskDelete+0xa4>)
10004a30:	681a      	ldr	r2, [r3, #0]
10004a32:	6812      	ldr	r2, [r2, #0]
10004a34:	2a00      	cmp	r2, #0
10004a36:	d017      	beq.n	10004a68 <vTaskDelete+0x74>
10004a38:	681b      	ldr	r3, [r3, #0]
10004a3a:	68db      	ldr	r3, [r3, #12]
10004a3c:	681a      	ldr	r2, [r3, #0]
10004a3e:	4b17      	ldr	r3, [pc, #92]	; (10004a9c <vTaskDelete+0xa8>)
10004a40:	601a      	str	r2, [r3, #0]
10004a42:	f7fe fc1b 	bl	1000327c <vPortExitCritical>
10004a46:	682b      	ldr	r3, [r5, #0]
10004a48:	42a3      	cmp	r3, r4
10004a4a:	d005      	beq.n	10004a58 <vTaskDelete+0x64>
10004a4c:	6b20      	ldr	r0, [r4, #48]	; 0x30
10004a4e:	f000 fffb 	bl	10005a48 <vPortFree>
10004a52:	0020      	movs	r0, r4
10004a54:	f000 fff8 	bl	10005a48 <vPortFree>
10004a58:	4b11      	ldr	r3, [pc, #68]	; (10004aa0 <vTaskDelete+0xac>)
10004a5a:	681b      	ldr	r3, [r3, #0]
10004a5c:	2b00      	cmp	r3, #0
10004a5e:	d002      	beq.n	10004a66 <vTaskDelete+0x72>
10004a60:	682b      	ldr	r3, [r5, #0]
10004a62:	42a3      	cmp	r3, r4
10004a64:	d00f      	beq.n	10004a86 <vTaskDelete+0x92>
10004a66:	bd70      	pop	{r4, r5, r6, pc}
10004a68:	4b0c      	ldr	r3, [pc, #48]	; (10004a9c <vTaskDelete+0xa8>)
10004a6a:	3a01      	subs	r2, #1
10004a6c:	601a      	str	r2, [r3, #0]
10004a6e:	e7e8      	b.n	10004a42 <vTaskDelete+0x4e>
10004a70:	682c      	ldr	r4, [r5, #0]
10004a72:	e7c6      	b.n	10004a02 <vTaskDelete+0xe>
10004a74:	0031      	movs	r1, r6
10004a76:	480b      	ldr	r0, [pc, #44]	; (10004aa4 <vTaskDelete+0xb0>)
10004a78:	f7fe feec 	bl	10003854 <vListInsertEnd>
10004a7c:	4a0a      	ldr	r2, [pc, #40]	; (10004aa8 <vTaskDelete+0xb4>)
10004a7e:	6813      	ldr	r3, [r2, #0]
10004a80:	3301      	adds	r3, #1
10004a82:	6013      	str	r3, [r2, #0]
10004a84:	e7dd      	b.n	10004a42 <vTaskDelete+0x4e>
10004a86:	f7fe fbe1 	bl	1000324c <vPortYield>
10004a8a:	e7ec      	b.n	10004a66 <vTaskDelete+0x72>
10004a8c:	2000af30 	.word	0x2000af30
10004a90:	20012cf0 	.word	0x20012cf0
10004a94:	20012ce4 	.word	0x20012ce4
10004a98:	2000af38 	.word	0x2000af38
10004a9c:	20012d58 	.word	0x20012d58
10004aa0:	20012d78 	.word	0x20012d78
10004aa4:	20012d90 	.word	0x20012d90
10004aa8:	20012ce8 	.word	0x20012ce8

10004aac <vTaskStartScheduler>:
10004aac:	b5f8      	push	{r3, r4, r5, r6, r7, lr}
10004aae:	2080      	movs	r0, #128	; 0x80
10004ab0:	46ce      	mov	lr, r9
10004ab2:	4647      	mov	r7, r8
10004ab4:	00c0      	lsls	r0, r0, #3
10004ab6:	b580      	push	{r7, lr}
10004ab8:	f000 ff8c 	bl	100059d4 <pvPortMalloc>
10004abc:	1e05      	subs	r5, r0, #0
10004abe:	d078      	beq.n	10004bb2 <vTaskStartScheduler+0x106>
10004ac0:	2070      	movs	r0, #112	; 0x70
10004ac2:	f000 ff87 	bl	100059d4 <pvPortMalloc>
10004ac6:	1e04      	subs	r4, r0, #0
10004ac8:	d100      	bne.n	10004acc <vTaskStartScheduler+0x20>
10004aca:	e078      	b.n	10004bbe <vTaskStartScheduler+0x112>
10004acc:	2270      	movs	r2, #112	; 0x70
10004ace:	2100      	movs	r1, #0
10004ad0:	f003 fc5c 	bl	1000838c <__wrap_memset>
10004ad4:	2280      	movs	r2, #128	; 0x80
10004ad6:	21a5      	movs	r1, #165	; 0xa5
10004ad8:	0028      	movs	r0, r5
10004ada:	6325      	str	r5, [r4, #48]	; 0x30
10004adc:	00d2      	lsls	r2, r2, #3
10004ade:	f003 fc55 	bl	1000838c <__wrap_memset>
10004ae2:	23ff      	movs	r3, #255	; 0xff
10004ae4:	009b      	lsls	r3, r3, #2
10004ae6:	469c      	mov	ip, r3
10004ae8:	2307      	movs	r3, #7
10004aea:	6b25      	ldr	r5, [r4, #48]	; 0x30
10004aec:	2238      	movs	r2, #56	; 0x38
10004aee:	4465      	add	r5, ip
10004af0:	439d      	bics	r5, r3
10004af2:	4b55      	ldr	r3, [pc, #340]	; (10004c48 <vTaskStartScheduler+0x19c>)
10004af4:	1d26      	adds	r6, r4, #4
10004af6:	6363      	str	r3, [r4, #52]	; 0x34
10004af8:	2300      	movs	r3, #0
10004afa:	54a3      	strb	r3, [r4, r2]
10004afc:	320b      	adds	r2, #11
10004afe:	54a3      	strb	r3, [r4, r2]
10004b00:	0030      	movs	r0, r6
10004b02:	62e3      	str	r3, [r4, #44]	; 0x2c
10004b04:	6463      	str	r3, [r4, #68]	; 0x44
10004b06:	f7fe fea1 	bl	1000384c <vListInitialiseItem>
10004b0a:	0020      	movs	r0, r4
10004b0c:	3018      	adds	r0, #24
10004b0e:	f7fe fe9d 	bl	1000384c <vListInitialiseItem>
10004b12:	2304      	movs	r3, #4
10004b14:	2200      	movs	r2, #0
10004b16:	494d      	ldr	r1, [pc, #308]	; (10004c4c <vTaskStartScheduler+0x1a0>)
10004b18:	61a3      	str	r3, [r4, #24]
10004b1a:	0028      	movs	r0, r5
10004b1c:	6124      	str	r4, [r4, #16]
10004b1e:	6264      	str	r4, [r4, #36]	; 0x24
10004b20:	f7fe fb84 	bl	1000322c <pxPortInitialiseStack>
10004b24:	4b4a      	ldr	r3, [pc, #296]	; (10004c50 <vTaskStartScheduler+0x1a4>)
10004b26:	6020      	str	r0, [r4, #0]
10004b28:	601c      	str	r4, [r3, #0]
10004b2a:	f7fe fb9b 	bl	10003264 <vPortEnterCritical>
10004b2e:	4a49      	ldr	r2, [pc, #292]	; (10004c54 <vTaskStartScheduler+0x1a8>)
10004b30:	4f49      	ldr	r7, [pc, #292]	; (10004c58 <vTaskStartScheduler+0x1ac>)
10004b32:	6813      	ldr	r3, [r2, #0]
10004b34:	3301      	adds	r3, #1
10004b36:	6013      	str	r3, [r2, #0]
10004b38:	683b      	ldr	r3, [r7, #0]
10004b3a:	2b00      	cmp	r3, #0
10004b3c:	d04b      	beq.n	10004bd6 <vTaskStartScheduler+0x12a>
10004b3e:	4b47      	ldr	r3, [pc, #284]	; (10004c5c <vTaskStartScheduler+0x1b0>)
10004b40:	4698      	mov	r8, r3
10004b42:	681b      	ldr	r3, [r3, #0]
10004b44:	2b00      	cmp	r3, #0
10004b46:	d03e      	beq.n	10004bc6 <vTaskStartScheduler+0x11a>
10004b48:	6ae2      	ldr	r2, [r4, #44]	; 0x2c
10004b4a:	4d45      	ldr	r5, [pc, #276]	; (10004c60 <vTaskStartScheduler+0x1b4>)
10004b4c:	4945      	ldr	r1, [pc, #276]	; (10004c64 <vTaskStartScheduler+0x1b8>)
10004b4e:	680b      	ldr	r3, [r1, #0]
10004b50:	3301      	adds	r3, #1
10004b52:	600b      	str	r3, [r1, #0]
10004b54:	4b44      	ldr	r3, [pc, #272]	; (10004c68 <vTaskStartScheduler+0x1bc>)
10004b56:	6819      	ldr	r1, [r3, #0]
10004b58:	4291      	cmp	r1, r2
10004b5a:	d200      	bcs.n	10004b5e <vTaskStartScheduler+0xb2>
10004b5c:	601a      	str	r2, [r3, #0]
10004b5e:	0093      	lsls	r3, r2, #2
10004b60:	189b      	adds	r3, r3, r2
10004b62:	009b      	lsls	r3, r3, #2
10004b64:	18e9      	adds	r1, r5, r3
10004b66:	684a      	ldr	r2, [r1, #4]
10004b68:	6890      	ldr	r0, [r2, #8]
10004b6a:	60a2      	str	r2, [r4, #8]
10004b6c:	60e0      	str	r0, [r4, #12]
10004b6e:	6890      	ldr	r0, [r2, #8]
10004b70:	6046      	str	r6, [r0, #4]
10004b72:	6096      	str	r6, [r2, #8]
10004b74:	58ea      	ldr	r2, [r5, r3]
10004b76:	6161      	str	r1, [r4, #20]
10004b78:	3201      	adds	r2, #1
10004b7a:	50ea      	str	r2, [r5, r3]
10004b7c:	f7fe fb7e 	bl	1000327c <vPortExitCritical>
10004b80:	4643      	mov	r3, r8
10004b82:	681b      	ldr	r3, [r3, #0]
10004b84:	2b00      	cmp	r3, #0
10004b86:	d004      	beq.n	10004b92 <vTaskStartScheduler+0xe6>
10004b88:	683b      	ldr	r3, [r7, #0]
10004b8a:	6ada      	ldr	r2, [r3, #44]	; 0x2c
10004b8c:	6ae3      	ldr	r3, [r4, #44]	; 0x2c
10004b8e:	429a      	cmp	r2, r3
10004b90:	d32a      	bcc.n	10004be8 <vTaskStartScheduler+0x13c>
10004b92:	f000 fea1 	bl	100058d8 <xTimerCreateTimerTask>
10004b96:	2801      	cmp	r0, #1
10004b98:	d10b      	bne.n	10004bb2 <vTaskStartScheduler+0x106>
10004b9a:	b672      	cpsid	i
10004b9c:	2201      	movs	r2, #1
10004b9e:	4b33      	ldr	r3, [pc, #204]	; (10004c6c <vTaskStartScheduler+0x1c0>)
10004ba0:	4252      	negs	r2, r2
10004ba2:	601a      	str	r2, [r3, #0]
10004ba4:	4643      	mov	r3, r8
10004ba6:	2200      	movs	r2, #0
10004ba8:	6018      	str	r0, [r3, #0]
10004baa:	4b31      	ldr	r3, [pc, #196]	; (10004c70 <vTaskStartScheduler+0x1c4>)
10004bac:	601a      	str	r2, [r3, #0]
10004bae:	f7fe fbb1 	bl	10003314 <xPortStartScheduler>
10004bb2:	4b30      	ldr	r3, [pc, #192]	; (10004c74 <vTaskStartScheduler+0x1c8>)
10004bb4:	681b      	ldr	r3, [r3, #0]
10004bb6:	bcc0      	pop	{r6, r7}
10004bb8:	46b9      	mov	r9, r7
10004bba:	46b0      	mov	r8, r6
10004bbc:	bdf8      	pop	{r3, r4, r5, r6, r7, pc}
10004bbe:	0028      	movs	r0, r5
10004bc0:	f000 ff42 	bl	10005a48 <vPortFree>
10004bc4:	e7f5      	b.n	10004bb2 <vTaskStartScheduler+0x106>
10004bc6:	683b      	ldr	r3, [r7, #0]
10004bc8:	6ae2      	ldr	r2, [r4, #44]	; 0x2c
10004bca:	6adb      	ldr	r3, [r3, #44]	; 0x2c
10004bcc:	4293      	cmp	r3, r2
10004bce:	d800      	bhi.n	10004bd2 <vTaskStartScheduler+0x126>
10004bd0:	603c      	str	r4, [r7, #0]
10004bd2:	4d23      	ldr	r5, [pc, #140]	; (10004c60 <vTaskStartScheduler+0x1b4>)
10004bd4:	e7ba      	b.n	10004b4c <vTaskStartScheduler+0xa0>
10004bd6:	603c      	str	r4, [r7, #0]
10004bd8:	6813      	ldr	r3, [r2, #0]
10004bda:	2b01      	cmp	r3, #1
10004bdc:	d007      	beq.n	10004bee <vTaskStartScheduler+0x142>
10004bde:	4b1f      	ldr	r3, [pc, #124]	; (10004c5c <vTaskStartScheduler+0x1b0>)
10004be0:	6ae2      	ldr	r2, [r4, #44]	; 0x2c
10004be2:	4698      	mov	r8, r3
10004be4:	4d1e      	ldr	r5, [pc, #120]	; (10004c60 <vTaskStartScheduler+0x1b4>)
10004be6:	e7b1      	b.n	10004b4c <vTaskStartScheduler+0xa0>
10004be8:	f7fe fb30 	bl	1000324c <vPortYield>
10004bec:	e7d1      	b.n	10004b92 <vTaskStartScheduler+0xe6>
10004bee:	4d1c      	ldr	r5, [pc, #112]	; (10004c60 <vTaskStartScheduler+0x1b4>)
10004bf0:	0028      	movs	r0, r5
10004bf2:	f7fe fe1f 	bl	10003834 <vListInitialise>
10004bf6:	0028      	movs	r0, r5
10004bf8:	3014      	adds	r0, #20
10004bfa:	f7fe fe1b 	bl	10003834 <vListInitialise>
10004bfe:	0028      	movs	r0, r5
10004c00:	3028      	adds	r0, #40	; 0x28
10004c02:	f7fe fe17 	bl	10003834 <vListInitialise>
10004c06:	0028      	movs	r0, r5
10004c08:	303c      	adds	r0, #60	; 0x3c
10004c0a:	f7fe fe13 	bl	10003834 <vListInitialise>
10004c0e:	4b1a      	ldr	r3, [pc, #104]	; (10004c78 <vTaskStartScheduler+0x1cc>)
10004c10:	4699      	mov	r9, r3
10004c12:	0018      	movs	r0, r3
10004c14:	f7fe fe0e 	bl	10003834 <vListInitialise>
10004c18:	4b18      	ldr	r3, [pc, #96]	; (10004c7c <vTaskStartScheduler+0x1d0>)
10004c1a:	0018      	movs	r0, r3
10004c1c:	4698      	mov	r8, r3
10004c1e:	f7fe fe09 	bl	10003834 <vListInitialise>
10004c22:	4817      	ldr	r0, [pc, #92]	; (10004c80 <vTaskStartScheduler+0x1d4>)
10004c24:	f7fe fe06 	bl	10003834 <vListInitialise>
10004c28:	4816      	ldr	r0, [pc, #88]	; (10004c84 <vTaskStartScheduler+0x1d8>)
10004c2a:	f7fe fe03 	bl	10003834 <vListInitialise>
10004c2e:	4816      	ldr	r0, [pc, #88]	; (10004c88 <vTaskStartScheduler+0x1dc>)
10004c30:	f7fe fe00 	bl	10003834 <vListInitialise>
10004c34:	464a      	mov	r2, r9
10004c36:	4b15      	ldr	r3, [pc, #84]	; (10004c8c <vTaskStartScheduler+0x1e0>)
10004c38:	601a      	str	r2, [r3, #0]
10004c3a:	4642      	mov	r2, r8
10004c3c:	4b14      	ldr	r3, [pc, #80]	; (10004c90 <vTaskStartScheduler+0x1e4>)
10004c3e:	601a      	str	r2, [r3, #0]
10004c40:	4b06      	ldr	r3, [pc, #24]	; (10004c5c <vTaskStartScheduler+0x1b0>)
10004c42:	6ae2      	ldr	r2, [r4, #44]	; 0x2c
10004c44:	4698      	mov	r8, r3
10004c46:	e781      	b.n	10004b4c <vTaskStartScheduler+0xa0>
10004c48:	454c4449 	.word	0x454c4449
10004c4c:	100045a5 	.word	0x100045a5
10004c50:	20012d4c 	.word	0x20012d4c
10004c54:	20012ce4 	.word	0x20012ce4
10004c58:	2000af30 	.word	0x2000af30
10004c5c:	20012d78 	.word	0x20012d78
10004c60:	2000af44 	.word	0x2000af44
10004c64:	20012cf0 	.word	0x20012cf0
10004c68:	20012cf4 	.word	0x20012cf4
10004c6c:	20012d58 	.word	0x20012d58
10004c70:	20012da4 	.word	0x20012da4
10004c74:	20000408 	.word	0x20000408
10004c78:	20012d20 	.word	0x20012d20
10004c7c:	20012d34 	.word	0x20012d34
10004c80:	20012d64 	.word	0x20012d64
10004c84:	20012d90 	.word	0x20012d90
10004c88:	20012d7c 	.word	0x20012d7c
10004c8c:	2000af38 	.word	0x2000af38
10004c90:	2000af3c 	.word	0x2000af3c

10004c94 <vTaskSuspendAll>:
10004c94:	4a02      	ldr	r2, [pc, #8]	; (10004ca0 <vTaskSuspendAll+0xc>)
10004c96:	6813      	ldr	r3, [r2, #0]
10004c98:	3301      	adds	r3, #1
10004c9a:	6013      	str	r3, [r2, #0]
10004c9c:	4770      	bx	lr
10004c9e:	46c0      	nop			; (mov r8, r8)
10004ca0:	20012cec 	.word	0x20012cec

10004ca4 <xTaskResumeAll>:
10004ca4:	b5f0      	push	{r4, r5, r6, r7, lr}
10004ca6:	46de      	mov	lr, fp
10004ca8:	4645      	mov	r5, r8
10004caa:	4657      	mov	r7, sl
10004cac:	464e      	mov	r6, r9
10004cae:	b5e0      	push	{r5, r6, r7, lr}
10004cb0:	b083      	sub	sp, #12
10004cb2:	f7fe fad7 	bl	10003264 <vPortEnterCritical>
10004cb6:	4d54      	ldr	r5, [pc, #336]	; (10004e08 <xTaskResumeAll+0x164>)
10004cb8:	682b      	ldr	r3, [r5, #0]
10004cba:	3b01      	subs	r3, #1
10004cbc:	602b      	str	r3, [r5, #0]
10004cbe:	682b      	ldr	r3, [r5, #0]
10004cc0:	2b00      	cmp	r3, #0
10004cc2:	d162      	bne.n	10004d8a <xTaskResumeAll+0xe6>
10004cc4:	4b51      	ldr	r3, [pc, #324]	; (10004e0c <xTaskResumeAll+0x168>)
10004cc6:	681b      	ldr	r3, [r3, #0]
10004cc8:	2b00      	cmp	r3, #0
10004cca:	d05e      	beq.n	10004d8a <xTaskResumeAll+0xe6>
10004ccc:	4b50      	ldr	r3, [pc, #320]	; (10004e10 <xTaskResumeAll+0x16c>)
10004cce:	4698      	mov	r8, r3
10004cd0:	681b      	ldr	r3, [r3, #0]
10004cd2:	2b00      	cmp	r3, #0
10004cd4:	d100      	bne.n	10004cd8 <xTaskResumeAll+0x34>
10004cd6:	e095      	b.n	10004e04 <xTaskResumeAll+0x160>
10004cd8:	4b4e      	ldr	r3, [pc, #312]	; (10004e14 <xTaskResumeAll+0x170>)
10004cda:	4e4f      	ldr	r6, [pc, #316]	; (10004e18 <xTaskResumeAll+0x174>)
10004cdc:	4699      	mov	r9, r3
10004cde:	4b4f      	ldr	r3, [pc, #316]	; (10004e1c <xTaskResumeAll+0x178>)
10004ce0:	4f4f      	ldr	r7, [pc, #316]	; (10004e20 <xTaskResumeAll+0x17c>)
10004ce2:	469a      	mov	sl, r3
10004ce4:	2300      	movs	r3, #0
10004ce6:	469b      	mov	fp, r3
10004ce8:	9601      	str	r6, [sp, #4]
10004cea:	4643      	mov	r3, r8
10004cec:	68db      	ldr	r3, [r3, #12]
10004cee:	68db      	ldr	r3, [r3, #12]
10004cf0:	69d8      	ldr	r0, [r3, #28]
10004cf2:	6a19      	ldr	r1, [r3, #32]
10004cf4:	6a9a      	ldr	r2, [r3, #40]	; 0x28
10004cf6:	6081      	str	r1, [r0, #8]
10004cf8:	6048      	str	r0, [r1, #4]
10004cfa:	0018      	movs	r0, r3
10004cfc:	6854      	ldr	r4, [r2, #4]
10004cfe:	3018      	adds	r0, #24
10004d00:	4284      	cmp	r4, r0
10004d02:	d100      	bne.n	10004d06 <xTaskResumeAll+0x62>
10004d04:	e07c      	b.n	10004e00 <xTaskResumeAll+0x15c>
10004d06:	4659      	mov	r1, fp
10004d08:	6299      	str	r1, [r3, #40]	; 0x28
10004d0a:	6811      	ldr	r1, [r2, #0]
10004d0c:	3901      	subs	r1, #1
10004d0e:	6011      	str	r1, [r2, #0]
10004d10:	695a      	ldr	r2, [r3, #20]
10004d12:	6898      	ldr	r0, [r3, #8]
10004d14:	68d9      	ldr	r1, [r3, #12]
10004d16:	6854      	ldr	r4, [r2, #4]
10004d18:	6081      	str	r1, [r0, #8]
10004d1a:	6048      	str	r0, [r1, #4]
10004d1c:	1d18      	adds	r0, r3, #4
10004d1e:	4284      	cmp	r4, r0
10004d20:	d06c      	beq.n	10004dfc <xTaskResumeAll+0x158>
10004d22:	6811      	ldr	r1, [r2, #0]
10004d24:	3901      	subs	r1, #1
10004d26:	6011      	str	r1, [r2, #0]
10004d28:	4649      	mov	r1, r9
10004d2a:	6ada      	ldr	r2, [r3, #44]	; 0x2c
10004d2c:	6809      	ldr	r1, [r1, #0]
10004d2e:	428a      	cmp	r2, r1
10004d30:	d901      	bls.n	10004d36 <xTaskResumeAll+0x92>
10004d32:	4649      	mov	r1, r9
10004d34:	600a      	str	r2, [r1, #0]
10004d36:	0091      	lsls	r1, r2, #2
10004d38:	1889      	adds	r1, r1, r2
10004d3a:	0089      	lsls	r1, r1, #2
10004d3c:	468c      	mov	ip, r1
10004d3e:	187c      	adds	r4, r7, r1
10004d40:	6861      	ldr	r1, [r4, #4]
10004d42:	688e      	ldr	r6, [r1, #8]
10004d44:	6099      	str	r1, [r3, #8]
10004d46:	60de      	str	r6, [r3, #12]
10004d48:	688e      	ldr	r6, [r1, #8]
10004d4a:	6070      	str	r0, [r6, #4]
10004d4c:	6088      	str	r0, [r1, #8]
10004d4e:	615c      	str	r4, [r3, #20]
10004d50:	4663      	mov	r3, ip
10004d52:	4661      	mov	r1, ip
10004d54:	58fb      	ldr	r3, [r7, r3]
10004d56:	3301      	adds	r3, #1
10004d58:	507b      	str	r3, [r7, r1]
10004d5a:	4653      	mov	r3, sl
10004d5c:	681b      	ldr	r3, [r3, #0]
10004d5e:	6adb      	ldr	r3, [r3, #44]	; 0x2c
10004d60:	429a      	cmp	r2, r3
10004d62:	d31d      	bcc.n	10004da0 <xTaskResumeAll+0xfc>
10004d64:	2301      	movs	r3, #1
10004d66:	9a01      	ldr	r2, [sp, #4]
10004d68:	6013      	str	r3, [r2, #0]
10004d6a:	4643      	mov	r3, r8
10004d6c:	681b      	ldr	r3, [r3, #0]
10004d6e:	2b00      	cmp	r3, #0
10004d70:	d1bb      	bne.n	10004cea <xTaskResumeAll+0x46>
10004d72:	4b2c      	ldr	r3, [pc, #176]	; (10004e24 <xTaskResumeAll+0x180>)
10004d74:	0016      	movs	r6, r2
10004d76:	681a      	ldr	r2, [r3, #0]
10004d78:	6812      	ldr	r2, [r2, #0]
10004d7a:	2a00      	cmp	r2, #0
10004d7c:	d01a      	beq.n	10004db4 <xTaskResumeAll+0x110>
10004d7e:	681b      	ldr	r3, [r3, #0]
10004d80:	68db      	ldr	r3, [r3, #12]
10004d82:	681a      	ldr	r2, [r3, #0]
10004d84:	4b28      	ldr	r3, [pc, #160]	; (10004e28 <xTaskResumeAll+0x184>)
10004d86:	601a      	str	r2, [r3, #0]
10004d88:	e017      	b.n	10004dba <xTaskResumeAll+0x116>
10004d8a:	2400      	movs	r4, #0
10004d8c:	f7fe fa76 	bl	1000327c <vPortExitCritical>
10004d90:	0020      	movs	r0, r4
10004d92:	b003      	add	sp, #12
10004d94:	bcf0      	pop	{r4, r5, r6, r7}
10004d96:	46bb      	mov	fp, r7
10004d98:	46b2      	mov	sl, r6
10004d9a:	46a9      	mov	r9, r5
10004d9c:	46a0      	mov	r8, r4
10004d9e:	bdf0      	pop	{r4, r5, r6, r7, pc}
10004da0:	4643      	mov	r3, r8
10004da2:	681b      	ldr	r3, [r3, #0]
10004da4:	2b00      	cmp	r3, #0
10004da6:	d1a0      	bne.n	10004cea <xTaskResumeAll+0x46>
10004da8:	4b1e      	ldr	r3, [pc, #120]	; (10004e24 <xTaskResumeAll+0x180>)
10004daa:	9e01      	ldr	r6, [sp, #4]
10004dac:	681a      	ldr	r2, [r3, #0]
10004dae:	6812      	ldr	r2, [r2, #0]
10004db0:	2a00      	cmp	r2, #0
10004db2:	d1e4      	bne.n	10004d7e <xTaskResumeAll+0xda>
10004db4:	4b1c      	ldr	r3, [pc, #112]	; (10004e28 <xTaskResumeAll+0x184>)
10004db6:	3a01      	subs	r2, #1
10004db8:	601a      	str	r2, [r3, #0]
10004dba:	4f1c      	ldr	r7, [pc, #112]	; (10004e2c <xTaskResumeAll+0x188>)
10004dbc:	683c      	ldr	r4, [r7, #0]
10004dbe:	2c00      	cmp	r4, #0
10004dc0:	d015      	beq.n	10004dee <xTaskResumeAll+0x14a>
10004dc2:	2301      	movs	r3, #1
10004dc4:	4698      	mov	r8, r3
10004dc6:	e008      	b.n	10004dda <xTaskResumeAll+0x136>
10004dc8:	f7ff fc1c 	bl	10004604 <xTaskIncrementTick.part.0>
10004dcc:	2800      	cmp	r0, #0
10004dce:	d001      	beq.n	10004dd4 <xTaskResumeAll+0x130>
10004dd0:	4643      	mov	r3, r8
10004dd2:	6033      	str	r3, [r6, #0]
10004dd4:	3c01      	subs	r4, #1
10004dd6:	2c00      	cmp	r4, #0
10004dd8:	d008      	beq.n	10004dec <xTaskResumeAll+0x148>
10004dda:	682b      	ldr	r3, [r5, #0]
10004ddc:	2b00      	cmp	r3, #0
10004dde:	d0f3      	beq.n	10004dc8 <xTaskResumeAll+0x124>
10004de0:	683b      	ldr	r3, [r7, #0]
10004de2:	3c01      	subs	r4, #1
10004de4:	3301      	adds	r3, #1
10004de6:	603b      	str	r3, [r7, #0]
10004de8:	2c00      	cmp	r4, #0
10004dea:	d1f6      	bne.n	10004dda <xTaskResumeAll+0x136>
10004dec:	603c      	str	r4, [r7, #0]
10004dee:	6833      	ldr	r3, [r6, #0]
10004df0:	2b00      	cmp	r3, #0
10004df2:	d0ca      	beq.n	10004d8a <xTaskResumeAll+0xe6>
10004df4:	f7fe fa2a 	bl	1000324c <vPortYield>
10004df8:	2401      	movs	r4, #1
10004dfa:	e7c7      	b.n	10004d8c <xTaskResumeAll+0xe8>
10004dfc:	6051      	str	r1, [r2, #4]
10004dfe:	e790      	b.n	10004d22 <xTaskResumeAll+0x7e>
10004e00:	6051      	str	r1, [r2, #4]
10004e02:	e780      	b.n	10004d06 <xTaskResumeAll+0x62>
10004e04:	4e04      	ldr	r6, [pc, #16]	; (10004e18 <xTaskResumeAll+0x174>)
10004e06:	e7d8      	b.n	10004dba <xTaskResumeAll+0x116>
10004e08:	20012cec 	.word	0x20012cec
10004e0c:	20012ce4 	.word	0x20012ce4
10004e10:	20012d64 	.word	0x20012d64
10004e14:	20012cf4 	.word	0x20012cf4
10004e18:	20012db0 	.word	0x20012db0
10004e1c:	2000af30 	.word	0x2000af30
10004e20:	2000af44 	.word	0x2000af44
10004e24:	2000af38 	.word	0x2000af38
10004e28:	20012d58 	.word	0x20012d58
10004e2c:	20012d60 	.word	0x20012d60

10004e30 <vTaskDelay>:
10004e30:	b570      	push	{r4, r5, r6, lr}
10004e32:	1e04      	subs	r4, r0, #0
10004e34:	d01d      	beq.n	10004e72 <vTaskDelay+0x42>
10004e36:	4a16      	ldr	r2, [pc, #88]	; (10004e90 <vTaskDelay+0x60>)
10004e38:	6813      	ldr	r3, [r2, #0]
10004e3a:	3301      	adds	r3, #1
10004e3c:	6013      	str	r3, [r2, #0]
10004e3e:	4b15      	ldr	r3, [pc, #84]	; (10004e94 <vTaskDelay+0x64>)
10004e40:	2100      	movs	r1, #0
10004e42:	681e      	ldr	r6, [r3, #0]
10004e44:	236f      	movs	r3, #111	; 0x6f
10004e46:	4d14      	ldr	r5, [pc, #80]	; (10004e98 <vTaskDelay+0x68>)
10004e48:	19a4      	adds	r4, r4, r6
10004e4a:	682a      	ldr	r2, [r5, #0]
10004e4c:	6828      	ldr	r0, [r5, #0]
10004e4e:	54d1      	strb	r1, [r2, r3]
10004e50:	3004      	adds	r0, #4
10004e52:	f7fe fd23 	bl	1000389c <uxListRemove>
10004e56:	682b      	ldr	r3, [r5, #0]
10004e58:	605c      	str	r4, [r3, #4]
10004e5a:	42a6      	cmp	r6, r4
10004e5c:	d90c      	bls.n	10004e78 <vTaskDelay+0x48>
10004e5e:	4b0f      	ldr	r3, [pc, #60]	; (10004e9c <vTaskDelay+0x6c>)
10004e60:	6818      	ldr	r0, [r3, #0]
10004e62:	6829      	ldr	r1, [r5, #0]
10004e64:	3104      	adds	r1, #4
10004e66:	f7fe fd01 	bl	1000386c <vListInsert>
10004e6a:	f7ff ff1b 	bl	10004ca4 <xTaskResumeAll>
10004e6e:	2800      	cmp	r0, #0
10004e70:	d101      	bne.n	10004e76 <vTaskDelay+0x46>
10004e72:	f7fe f9eb 	bl	1000324c <vPortYield>
10004e76:	bd70      	pop	{r4, r5, r6, pc}
10004e78:	4b09      	ldr	r3, [pc, #36]	; (10004ea0 <vTaskDelay+0x70>)
10004e7a:	6818      	ldr	r0, [r3, #0]
10004e7c:	6829      	ldr	r1, [r5, #0]
10004e7e:	3104      	adds	r1, #4
10004e80:	f7fe fcf4 	bl	1000386c <vListInsert>
10004e84:	4b07      	ldr	r3, [pc, #28]	; (10004ea4 <vTaskDelay+0x74>)
10004e86:	681a      	ldr	r2, [r3, #0]
10004e88:	4294      	cmp	r4, r2
10004e8a:	d2ee      	bcs.n	10004e6a <vTaskDelay+0x3a>
10004e8c:	601c      	str	r4, [r3, #0]
10004e8e:	e7ec      	b.n	10004e6a <vTaskDelay+0x3a>
10004e90:	20012cec 	.word	0x20012cec
10004e94:	20012da4 	.word	0x20012da4
10004e98:	2000af30 	.word	0x2000af30
10004e9c:	2000af3c 	.word	0x2000af3c
10004ea0:	2000af38 	.word	0x2000af38
10004ea4:	20012d58 	.word	0x20012d58

10004ea8 <xTaskGetTickCount>:
10004ea8:	4b01      	ldr	r3, [pc, #4]	; (10004eb0 <xTaskGetTickCount+0x8>)
10004eaa:	6818      	ldr	r0, [r3, #0]
10004eac:	4770      	bx	lr
10004eae:	46c0      	nop			; (mov r8, r8)
10004eb0:	20012da4 	.word	0x20012da4

10004eb4 <uxTaskGetNumberOfTasks>:
10004eb4:	4b01      	ldr	r3, [pc, #4]	; (10004ebc <uxTaskGetNumberOfTasks+0x8>)
10004eb6:	6818      	ldr	r0, [r3, #0]
10004eb8:	4770      	bx	lr
10004eba:	46c0      	nop			; (mov r8, r8)
10004ebc:	20012ce4 	.word	0x20012ce4

10004ec0 <xTaskIncrementTick>:
10004ec0:	4b06      	ldr	r3, [pc, #24]	; (10004edc <xTaskIncrementTick+0x1c>)
10004ec2:	b510      	push	{r4, lr}
10004ec4:	681b      	ldr	r3, [r3, #0]
10004ec6:	2b00      	cmp	r3, #0
10004ec8:	d102      	bne.n	10004ed0 <xTaskIncrementTick+0x10>
10004eca:	f7ff fb9b 	bl	10004604 <xTaskIncrementTick.part.0>
10004ece:	bd10      	pop	{r4, pc}
10004ed0:	4a03      	ldr	r2, [pc, #12]	; (10004ee0 <xTaskIncrementTick+0x20>)
10004ed2:	2000      	movs	r0, #0
10004ed4:	6813      	ldr	r3, [r2, #0]
10004ed6:	3301      	adds	r3, #1
10004ed8:	6013      	str	r3, [r2, #0]
10004eda:	e7f8      	b.n	10004ece <xTaskIncrementTick+0xe>
10004edc:	20012cec 	.word	0x20012cec
10004ee0:	20012d60 	.word	0x20012d60

10004ee4 <vTaskSwitchContext>:
10004ee4:	4b20      	ldr	r3, [pc, #128]	; (10004f68 <vTaskSwitchContext+0x84>)
10004ee6:	b530      	push	{r4, r5, lr}
10004ee8:	681b      	ldr	r3, [r3, #0]
10004eea:	2b00      	cmp	r3, #0
10004eec:	d003      	beq.n	10004ef6 <vTaskSwitchContext+0x12>
10004eee:	2201      	movs	r2, #1
10004ef0:	4b1e      	ldr	r3, [pc, #120]	; (10004f6c <vTaskSwitchContext+0x88>)
10004ef2:	601a      	str	r2, [r3, #0]
10004ef4:	bd30      	pop	{r4, r5, pc}
10004ef6:	4a1d      	ldr	r2, [pc, #116]	; (10004f6c <vTaskSwitchContext+0x88>)
10004ef8:	4c1d      	ldr	r4, [pc, #116]	; (10004f70 <vTaskSwitchContext+0x8c>)
10004efa:	6013      	str	r3, [r2, #0]
10004efc:	6822      	ldr	r2, [r4, #0]
10004efe:	491d      	ldr	r1, [pc, #116]	; (10004f74 <vTaskSwitchContext+0x90>)
10004f00:	0093      	lsls	r3, r2, #2
10004f02:	1898      	adds	r0, r3, r2
10004f04:	0080      	lsls	r0, r0, #2
10004f06:	5808      	ldr	r0, [r1, r0]
10004f08:	2800      	cmp	r0, #0
10004f0a:	d11b      	bne.n	10004f44 <vTaskSwitchContext+0x60>
10004f0c:	1e55      	subs	r5, r2, #1
10004f0e:	00ab      	lsls	r3, r5, #2
10004f10:	1958      	adds	r0, r3, r5
10004f12:	0080      	lsls	r0, r0, #2
10004f14:	5808      	ldr	r0, [r1, r0]
10004f16:	2800      	cmp	r0, #0
10004f18:	d113      	bne.n	10004f42 <vTaskSwitchContext+0x5e>
10004f1a:	1e95      	subs	r5, r2, #2
10004f1c:	00ab      	lsls	r3, r5, #2
10004f1e:	1958      	adds	r0, r3, r5
10004f20:	0080      	lsls	r0, r0, #2
10004f22:	5808      	ldr	r0, [r1, r0]
10004f24:	2800      	cmp	r0, #0
10004f26:	d10c      	bne.n	10004f42 <vTaskSwitchContext+0x5e>
10004f28:	1ed5      	subs	r5, r2, #3
10004f2a:	00ab      	lsls	r3, r5, #2
10004f2c:	1958      	adds	r0, r3, r5
10004f2e:	0080      	lsls	r0, r0, #2
10004f30:	5808      	ldr	r0, [r1, r0]
10004f32:	2800      	cmp	r0, #0
10004f34:	d105      	bne.n	10004f42 <vTaskSwitchContext+0x5e>
10004f36:	3a04      	subs	r2, #4
10004f38:	0093      	lsls	r3, r2, #2
10004f3a:	1898      	adds	r0, r3, r2
10004f3c:	0080      	lsls	r0, r0, #2
10004f3e:	5808      	ldr	r0, [r1, r0]
10004f40:	e000      	b.n	10004f44 <vTaskSwitchContext+0x60>
10004f42:	002a      	movs	r2, r5
10004f44:	189b      	adds	r3, r3, r2
10004f46:	009b      	lsls	r3, r3, #2
10004f48:	18cd      	adds	r5, r1, r3
10004f4a:	6868      	ldr	r0, [r5, #4]
10004f4c:	3308      	adds	r3, #8
10004f4e:	6840      	ldr	r0, [r0, #4]
10004f50:	18cb      	adds	r3, r1, r3
10004f52:	6068      	str	r0, [r5, #4]
10004f54:	4298      	cmp	r0, r3
10004f56:	d004      	beq.n	10004f62 <vTaskSwitchContext+0x7e>
10004f58:	68c1      	ldr	r1, [r0, #12]
10004f5a:	4b07      	ldr	r3, [pc, #28]	; (10004f78 <vTaskSwitchContext+0x94>)
10004f5c:	6019      	str	r1, [r3, #0]
10004f5e:	6022      	str	r2, [r4, #0]
10004f60:	e7c8      	b.n	10004ef4 <vTaskSwitchContext+0x10>
10004f62:	6840      	ldr	r0, [r0, #4]
10004f64:	6068      	str	r0, [r5, #4]
10004f66:	e7f7      	b.n	10004f58 <vTaskSwitchContext+0x74>
10004f68:	20012cec 	.word	0x20012cec
10004f6c:	20012db0 	.word	0x20012db0
10004f70:	20012cf4 	.word	0x20012cf4
10004f74:	2000af44 	.word	0x2000af44
10004f78:	2000af30 	.word	0x2000af30

10004f7c <vTaskPlaceOnEventList>:
10004f7c:	b570      	push	{r4, r5, r6, lr}
10004f7e:	4d1f      	ldr	r5, [pc, #124]	; (10004ffc <vTaskPlaceOnEventList+0x80>)
10004f80:	000c      	movs	r4, r1
10004f82:	6829      	ldr	r1, [r5, #0]
10004f84:	3118      	adds	r1, #24
10004f86:	f7fe fc71 	bl	1000386c <vListInsert>
10004f8a:	4b1d      	ldr	r3, [pc, #116]	; (10005000 <vTaskPlaceOnEventList+0x84>)
10004f8c:	2100      	movs	r1, #0
10004f8e:	681e      	ldr	r6, [r3, #0]
10004f90:	236f      	movs	r3, #111	; 0x6f
10004f92:	682a      	ldr	r2, [r5, #0]
10004f94:	6828      	ldr	r0, [r5, #0]
10004f96:	54d1      	strb	r1, [r2, r3]
10004f98:	3004      	adds	r0, #4
10004f9a:	f7fe fc7f 	bl	1000389c <uxListRemove>
10004f9e:	1c63      	adds	r3, r4, #1
10004fa0:	d017      	beq.n	10004fd2 <vTaskPlaceOnEventList+0x56>
10004fa2:	682b      	ldr	r3, [r5, #0]
10004fa4:	19a4      	adds	r4, r4, r6
10004fa6:	605c      	str	r4, [r3, #4]
10004fa8:	42a6      	cmp	r6, r4
10004faa:	d906      	bls.n	10004fba <vTaskPlaceOnEventList+0x3e>
10004fac:	4b15      	ldr	r3, [pc, #84]	; (10005004 <vTaskPlaceOnEventList+0x88>)
10004fae:	6818      	ldr	r0, [r3, #0]
10004fb0:	6829      	ldr	r1, [r5, #0]
10004fb2:	3104      	adds	r1, #4
10004fb4:	f7fe fc5a 	bl	1000386c <vListInsert>
10004fb8:	bd70      	pop	{r4, r5, r6, pc}
10004fba:	4b13      	ldr	r3, [pc, #76]	; (10005008 <vTaskPlaceOnEventList+0x8c>)
10004fbc:	6818      	ldr	r0, [r3, #0]
10004fbe:	6829      	ldr	r1, [r5, #0]
10004fc0:	3104      	adds	r1, #4
10004fc2:	f7fe fc53 	bl	1000386c <vListInsert>
10004fc6:	4b11      	ldr	r3, [pc, #68]	; (1000500c <vTaskPlaceOnEventList+0x90>)
10004fc8:	681a      	ldr	r2, [r3, #0]
10004fca:	4294      	cmp	r4, r2
10004fcc:	d2f4      	bcs.n	10004fb8 <vTaskPlaceOnEventList+0x3c>
10004fce:	601c      	str	r4, [r3, #0]
10004fd0:	e7f2      	b.n	10004fb8 <vTaskPlaceOnEventList+0x3c>
10004fd2:	4b0f      	ldr	r3, [pc, #60]	; (10005010 <vTaskPlaceOnEventList+0x94>)
10004fd4:	6829      	ldr	r1, [r5, #0]
10004fd6:	685a      	ldr	r2, [r3, #4]
10004fd8:	6890      	ldr	r0, [r2, #8]
10004fda:	608a      	str	r2, [r1, #8]
10004fdc:	6829      	ldr	r1, [r5, #0]
10004fde:	60c8      	str	r0, [r1, #12]
10004fe0:	6829      	ldr	r1, [r5, #0]
10004fe2:	6890      	ldr	r0, [r2, #8]
10004fe4:	3104      	adds	r1, #4
10004fe6:	6041      	str	r1, [r0, #4]
10004fe8:	6829      	ldr	r1, [r5, #0]
10004fea:	3104      	adds	r1, #4
10004fec:	6091      	str	r1, [r2, #8]
10004fee:	682a      	ldr	r2, [r5, #0]
10004ff0:	6153      	str	r3, [r2, #20]
10004ff2:	681a      	ldr	r2, [r3, #0]
10004ff4:	3201      	adds	r2, #1
10004ff6:	601a      	str	r2, [r3, #0]
10004ff8:	e7de      	b.n	10004fb8 <vTaskPlaceOnEventList+0x3c>
10004ffa:	46c0      	nop			; (mov r8, r8)
10004ffc:	2000af30 	.word	0x2000af30
10005000:	20012da4 	.word	0x20012da4
10005004:	2000af3c 	.word	0x2000af3c
10005008:	2000af38 	.word	0x2000af38
1000500c:	20012d58 	.word	0x20012d58
10005010:	20012d7c 	.word	0x20012d7c

10005014 <vTaskPlaceOnUnorderedEventList>:
10005014:	2380      	movs	r3, #128	; 0x80
10005016:	b570      	push	{r4, r5, r6, lr}
10005018:	4c27      	ldr	r4, [pc, #156]	; (100050b8 <vTaskPlaceOnUnorderedEventList+0xa4>)
1000501a:	0015      	movs	r5, r2
1000501c:	061b      	lsls	r3, r3, #24
1000501e:	6822      	ldr	r2, [r4, #0]
10005020:	430b      	orrs	r3, r1
10005022:	6193      	str	r3, [r2, #24]
10005024:	6843      	ldr	r3, [r0, #4]
10005026:	6822      	ldr	r2, [r4, #0]
10005028:	6899      	ldr	r1, [r3, #8]
1000502a:	61d3      	str	r3, [r2, #28]
1000502c:	6822      	ldr	r2, [r4, #0]
1000502e:	6211      	str	r1, [r2, #32]
10005030:	6822      	ldr	r2, [r4, #0]
10005032:	6899      	ldr	r1, [r3, #8]
10005034:	3218      	adds	r2, #24
10005036:	604a      	str	r2, [r1, #4]
10005038:	6822      	ldr	r2, [r4, #0]
1000503a:	2100      	movs	r1, #0
1000503c:	3218      	adds	r2, #24
1000503e:	609a      	str	r2, [r3, #8]
10005040:	6823      	ldr	r3, [r4, #0]
10005042:	6298      	str	r0, [r3, #40]	; 0x28
10005044:	6803      	ldr	r3, [r0, #0]
10005046:	3301      	adds	r3, #1
10005048:	6003      	str	r3, [r0, #0]
1000504a:	4b1c      	ldr	r3, [pc, #112]	; (100050bc <vTaskPlaceOnUnorderedEventList+0xa8>)
1000504c:	681e      	ldr	r6, [r3, #0]
1000504e:	236f      	movs	r3, #111	; 0x6f
10005050:	6822      	ldr	r2, [r4, #0]
10005052:	6820      	ldr	r0, [r4, #0]
10005054:	54d1      	strb	r1, [r2, r3]
10005056:	3004      	adds	r0, #4
10005058:	f7fe fc20 	bl	1000389c <uxListRemove>
1000505c:	1c6b      	adds	r3, r5, #1
1000505e:	d017      	beq.n	10005090 <vTaskPlaceOnUnorderedEventList+0x7c>
10005060:	6823      	ldr	r3, [r4, #0]
10005062:	19ad      	adds	r5, r5, r6
10005064:	605d      	str	r5, [r3, #4]
10005066:	42ae      	cmp	r6, r5
10005068:	d906      	bls.n	10005078 <vTaskPlaceOnUnorderedEventList+0x64>
1000506a:	4b15      	ldr	r3, [pc, #84]	; (100050c0 <vTaskPlaceOnUnorderedEventList+0xac>)
1000506c:	6818      	ldr	r0, [r3, #0]
1000506e:	6821      	ldr	r1, [r4, #0]
10005070:	3104      	adds	r1, #4
10005072:	f7fe fbfb 	bl	1000386c <vListInsert>
10005076:	bd70      	pop	{r4, r5, r6, pc}
10005078:	4b12      	ldr	r3, [pc, #72]	; (100050c4 <vTaskPlaceOnUnorderedEventList+0xb0>)
1000507a:	6818      	ldr	r0, [r3, #0]
1000507c:	6821      	ldr	r1, [r4, #0]
1000507e:	3104      	adds	r1, #4
10005080:	f7fe fbf4 	bl	1000386c <vListInsert>
10005084:	4b10      	ldr	r3, [pc, #64]	; (100050c8 <vTaskPlaceOnUnorderedEventList+0xb4>)
10005086:	681a      	ldr	r2, [r3, #0]
10005088:	4295      	cmp	r5, r2
1000508a:	d2f4      	bcs.n	10005076 <vTaskPlaceOnUnorderedEventList+0x62>
1000508c:	601d      	str	r5, [r3, #0]
1000508e:	e7f2      	b.n	10005076 <vTaskPlaceOnUnorderedEventList+0x62>
10005090:	4b0e      	ldr	r3, [pc, #56]	; (100050cc <vTaskPlaceOnUnorderedEventList+0xb8>)
10005092:	6821      	ldr	r1, [r4, #0]
10005094:	685a      	ldr	r2, [r3, #4]
10005096:	6890      	ldr	r0, [r2, #8]
10005098:	608a      	str	r2, [r1, #8]
1000509a:	6821      	ldr	r1, [r4, #0]
1000509c:	60c8      	str	r0, [r1, #12]
1000509e:	6821      	ldr	r1, [r4, #0]
100050a0:	6890      	ldr	r0, [r2, #8]
100050a2:	3104      	adds	r1, #4
100050a4:	6041      	str	r1, [r0, #4]
100050a6:	6821      	ldr	r1, [r4, #0]
100050a8:	3104      	adds	r1, #4
100050aa:	6091      	str	r1, [r2, #8]
100050ac:	6822      	ldr	r2, [r4, #0]
100050ae:	6153      	str	r3, [r2, #20]
100050b0:	681a      	ldr	r2, [r3, #0]
100050b2:	3201      	adds	r2, #1
100050b4:	601a      	str	r2, [r3, #0]
100050b6:	e7de      	b.n	10005076 <vTaskPlaceOnUnorderedEventList+0x62>
100050b8:	2000af30 	.word	0x2000af30
100050bc:	20012da4 	.word	0x20012da4
100050c0:	2000af3c 	.word	0x2000af3c
100050c4:	2000af38 	.word	0x2000af38
100050c8:	20012d58 	.word	0x20012d58
100050cc:	20012d7c 	.word	0x20012d7c

100050d0 <vTaskPlaceOnEventListRestricted>:
100050d0:	b570      	push	{r4, r5, r6, lr}
100050d2:	4c2a      	ldr	r4, [pc, #168]	; (1000517c <vTaskPlaceOnEventListRestricted+0xac>)
100050d4:	6843      	ldr	r3, [r0, #4]
100050d6:	000d      	movs	r5, r1
100050d8:	6821      	ldr	r1, [r4, #0]
100050da:	689e      	ldr	r6, [r3, #8]
100050dc:	61cb      	str	r3, [r1, #28]
100050de:	6821      	ldr	r1, [r4, #0]
100050e0:	620e      	str	r6, [r1, #32]
100050e2:	6821      	ldr	r1, [r4, #0]
100050e4:	689e      	ldr	r6, [r3, #8]
100050e6:	3118      	adds	r1, #24
100050e8:	6071      	str	r1, [r6, #4]
100050ea:	6821      	ldr	r1, [r4, #0]
100050ec:	3118      	adds	r1, #24
100050ee:	6099      	str	r1, [r3, #8]
100050f0:	6823      	ldr	r3, [r4, #0]
100050f2:	6298      	str	r0, [r3, #40]	; 0x28
100050f4:	6803      	ldr	r3, [r0, #0]
100050f6:	3301      	adds	r3, #1
100050f8:	6003      	str	r3, [r0, #0]
100050fa:	4b21      	ldr	r3, [pc, #132]	; (10005180 <vTaskPlaceOnEventListRestricted+0xb0>)
100050fc:	2a00      	cmp	r2, #0
100050fe:	d01c      	beq.n	1000513a <vTaskPlaceOnEventListRestricted+0x6a>
10005100:	681b      	ldr	r3, [r3, #0]
10005102:	2100      	movs	r1, #0
10005104:	236f      	movs	r3, #111	; 0x6f
10005106:	6822      	ldr	r2, [r4, #0]
10005108:	6820      	ldr	r0, [r4, #0]
1000510a:	54d1      	strb	r1, [r2, r3]
1000510c:	3004      	adds	r0, #4
1000510e:	f7fe fbc5 	bl	1000389c <uxListRemove>
10005112:	4b1c      	ldr	r3, [pc, #112]	; (10005184 <vTaskPlaceOnEventListRestricted+0xb4>)
10005114:	6821      	ldr	r1, [r4, #0]
10005116:	685a      	ldr	r2, [r3, #4]
10005118:	6890      	ldr	r0, [r2, #8]
1000511a:	608a      	str	r2, [r1, #8]
1000511c:	6821      	ldr	r1, [r4, #0]
1000511e:	60c8      	str	r0, [r1, #12]
10005120:	6821      	ldr	r1, [r4, #0]
10005122:	6890      	ldr	r0, [r2, #8]
10005124:	3104      	adds	r1, #4
10005126:	6041      	str	r1, [r0, #4]
10005128:	6821      	ldr	r1, [r4, #0]
1000512a:	3104      	adds	r1, #4
1000512c:	6091      	str	r1, [r2, #8]
1000512e:	6822      	ldr	r2, [r4, #0]
10005130:	6153      	str	r3, [r2, #20]
10005132:	681a      	ldr	r2, [r3, #0]
10005134:	3201      	adds	r2, #1
10005136:	601a      	str	r2, [r3, #0]
10005138:	bd70      	pop	{r4, r5, r6, pc}
1000513a:	681e      	ldr	r6, [r3, #0]
1000513c:	236f      	movs	r3, #111	; 0x6f
1000513e:	6821      	ldr	r1, [r4, #0]
10005140:	6820      	ldr	r0, [r4, #0]
10005142:	54ca      	strb	r2, [r1, r3]
10005144:	3004      	adds	r0, #4
10005146:	f7fe fba9 	bl	1000389c <uxListRemove>
1000514a:	6823      	ldr	r3, [r4, #0]
1000514c:	19ad      	adds	r5, r5, r6
1000514e:	605d      	str	r5, [r3, #4]
10005150:	42ae      	cmp	r6, r5
10005152:	d80b      	bhi.n	1000516c <vTaskPlaceOnEventListRestricted+0x9c>
10005154:	4b0c      	ldr	r3, [pc, #48]	; (10005188 <vTaskPlaceOnEventListRestricted+0xb8>)
10005156:	6818      	ldr	r0, [r3, #0]
10005158:	6821      	ldr	r1, [r4, #0]
1000515a:	3104      	adds	r1, #4
1000515c:	f7fe fb86 	bl	1000386c <vListInsert>
10005160:	4b0a      	ldr	r3, [pc, #40]	; (1000518c <vTaskPlaceOnEventListRestricted+0xbc>)
10005162:	681a      	ldr	r2, [r3, #0]
10005164:	4295      	cmp	r5, r2
10005166:	d2e7      	bcs.n	10005138 <vTaskPlaceOnEventListRestricted+0x68>
10005168:	601d      	str	r5, [r3, #0]
1000516a:	e7e5      	b.n	10005138 <vTaskPlaceOnEventListRestricted+0x68>
1000516c:	4b08      	ldr	r3, [pc, #32]	; (10005190 <vTaskPlaceOnEventListRestricted+0xc0>)
1000516e:	6818      	ldr	r0, [r3, #0]
10005170:	6821      	ldr	r1, [r4, #0]
10005172:	3104      	adds	r1, #4
10005174:	f7fe fb7a 	bl	1000386c <vListInsert>
10005178:	e7de      	b.n	10005138 <vTaskPlaceOnEventListRestricted+0x68>
1000517a:	46c0      	nop			; (mov r8, r8)
1000517c:	2000af30 	.word	0x2000af30
10005180:	20012da4 	.word	0x20012da4
10005184:	20012d7c 	.word	0x20012d7c
10005188:	2000af38 	.word	0x2000af38
1000518c:	20012d58 	.word	0x20012d58
10005190:	2000af3c 	.word	0x2000af3c

10005194 <xTaskRemoveFromEventList>:
10005194:	68c3      	ldr	r3, [r0, #12]
10005196:	b5f0      	push	{r4, r5, r6, r7, lr}
10005198:	68db      	ldr	r3, [r3, #12]
1000519a:	69d8      	ldr	r0, [r3, #28]
1000519c:	6a19      	ldr	r1, [r3, #32]
1000519e:	6a9a      	ldr	r2, [r3, #40]	; 0x28
100051a0:	6081      	str	r1, [r0, #8]
100051a2:	6048      	str	r0, [r1, #4]
100051a4:	0018      	movs	r0, r3
100051a6:	6854      	ldr	r4, [r2, #4]
100051a8:	3018      	adds	r0, #24
100051aa:	4284      	cmp	r4, r0
100051ac:	d045      	beq.n	1000523a <xTaskRemoveFromEventList+0xa6>
100051ae:	2100      	movs	r1, #0
100051b0:	6299      	str	r1, [r3, #40]	; 0x28
100051b2:	6811      	ldr	r1, [r2, #0]
100051b4:	3901      	subs	r1, #1
100051b6:	6011      	str	r1, [r2, #0]
100051b8:	4a26      	ldr	r2, [pc, #152]	; (10005254 <xTaskRemoveFromEventList+0xc0>)
100051ba:	6812      	ldr	r2, [r2, #0]
100051bc:	2a00      	cmp	r2, #0
100051be:	d12c      	bne.n	1000521a <xTaskRemoveFromEventList+0x86>
100051c0:	6899      	ldr	r1, [r3, #8]
100051c2:	68d8      	ldr	r0, [r3, #12]
100051c4:	695a      	ldr	r2, [r3, #20]
100051c6:	6088      	str	r0, [r1, #8]
100051c8:	68d8      	ldr	r0, [r3, #12]
100051ca:	1d1d      	adds	r5, r3, #4
100051cc:	6041      	str	r1, [r0, #4]
100051ce:	6851      	ldr	r1, [r2, #4]
100051d0:	42a9      	cmp	r1, r5
100051d2:	d034      	beq.n	1000523e <xTaskRemoveFromEventList+0xaa>
100051d4:	6811      	ldr	r1, [r2, #0]
100051d6:	3901      	subs	r1, #1
100051d8:	6011      	str	r1, [r2, #0]
100051da:	4a1f      	ldr	r2, [pc, #124]	; (10005258 <xTaskRemoveFromEventList+0xc4>)
100051dc:	6ad9      	ldr	r1, [r3, #44]	; 0x2c
100051de:	6810      	ldr	r0, [r2, #0]
100051e0:	4281      	cmp	r1, r0
100051e2:	d828      	bhi.n	10005236 <xTaskRemoveFromEventList+0xa2>
100051e4:	008a      	lsls	r2, r1, #2
100051e6:	4c1d      	ldr	r4, [pc, #116]	; (1000525c <xTaskRemoveFromEventList+0xc8>)
100051e8:	1852      	adds	r2, r2, r1
100051ea:	0092      	lsls	r2, r2, #2
100051ec:	18a6      	adds	r6, r4, r2
100051ee:	6870      	ldr	r0, [r6, #4]
100051f0:	6887      	ldr	r7, [r0, #8]
100051f2:	6098      	str	r0, [r3, #8]
100051f4:	60df      	str	r7, [r3, #12]
100051f6:	6887      	ldr	r7, [r0, #8]
100051f8:	607d      	str	r5, [r7, #4]
100051fa:	6085      	str	r5, [r0, #8]
100051fc:	615e      	str	r6, [r3, #20]
100051fe:	58a3      	ldr	r3, [r4, r2]
10005200:	3301      	adds	r3, #1
10005202:	50a3      	str	r3, [r4, r2]
10005204:	4b16      	ldr	r3, [pc, #88]	; (10005260 <xTaskRemoveFromEventList+0xcc>)
10005206:	2000      	movs	r0, #0
10005208:	681b      	ldr	r3, [r3, #0]
1000520a:	6adb      	ldr	r3, [r3, #44]	; 0x2c
1000520c:	428b      	cmp	r3, r1
1000520e:	d203      	bcs.n	10005218 <xTaskRemoveFromEventList+0x84>
10005210:	2201      	movs	r2, #1
10005212:	4b14      	ldr	r3, [pc, #80]	; (10005264 <xTaskRemoveFromEventList+0xd0>)
10005214:	3001      	adds	r0, #1
10005216:	601a      	str	r2, [r3, #0]
10005218:	bdf0      	pop	{r4, r5, r6, r7, pc}
1000521a:	4a13      	ldr	r2, [pc, #76]	; (10005268 <xTaskRemoveFromEventList+0xd4>)
1000521c:	6851      	ldr	r1, [r2, #4]
1000521e:	688c      	ldr	r4, [r1, #8]
10005220:	61d9      	str	r1, [r3, #28]
10005222:	621c      	str	r4, [r3, #32]
10005224:	688c      	ldr	r4, [r1, #8]
10005226:	6060      	str	r0, [r4, #4]
10005228:	6088      	str	r0, [r1, #8]
1000522a:	6811      	ldr	r1, [r2, #0]
1000522c:	629a      	str	r2, [r3, #40]	; 0x28
1000522e:	3101      	adds	r1, #1
10005230:	6011      	str	r1, [r2, #0]
10005232:	6ad9      	ldr	r1, [r3, #44]	; 0x2c
10005234:	e7e6      	b.n	10005204 <xTaskRemoveFromEventList+0x70>
10005236:	6011      	str	r1, [r2, #0]
10005238:	e7d4      	b.n	100051e4 <xTaskRemoveFromEventList+0x50>
1000523a:	6051      	str	r1, [r2, #4]
1000523c:	e7b7      	b.n	100051ae <xTaskRemoveFromEventList+0x1a>
1000523e:	6811      	ldr	r1, [r2, #0]
10005240:	6050      	str	r0, [r2, #4]
10005242:	3901      	subs	r1, #1
10005244:	6011      	str	r1, [r2, #0]
10005246:	4a04      	ldr	r2, [pc, #16]	; (10005258 <xTaskRemoveFromEventList+0xc4>)
10005248:	6ad9      	ldr	r1, [r3, #44]	; 0x2c
1000524a:	6810      	ldr	r0, [r2, #0]
1000524c:	4281      	cmp	r1, r0
1000524e:	d9c9      	bls.n	100051e4 <xTaskRemoveFromEventList+0x50>
10005250:	e7f1      	b.n	10005236 <xTaskRemoveFromEventList+0xa2>
10005252:	46c0      	nop			; (mov r8, r8)
10005254:	20012cec 	.word	0x20012cec
10005258:	20012cf4 	.word	0x20012cf4
1000525c:	2000af44 	.word	0x2000af44
10005260:	2000af30 	.word	0x2000af30
10005264:	20012db0 	.word	0x20012db0
10005268:	20012d64 	.word	0x20012d64

1000526c <vTaskRemoveFromUnorderedEventList>:
1000526c:	2380      	movs	r3, #128	; 0x80
1000526e:	061b      	lsls	r3, r3, #24
10005270:	b5f0      	push	{r4, r5, r6, r7, lr}
10005272:	430b      	orrs	r3, r1
10005274:	6884      	ldr	r4, [r0, #8]
10005276:	6841      	ldr	r1, [r0, #4]
10005278:	6902      	ldr	r2, [r0, #16]
1000527a:	6003      	str	r3, [r0, #0]
1000527c:	68c3      	ldr	r3, [r0, #12]
1000527e:	608c      	str	r4, [r1, #8]
10005280:	6884      	ldr	r4, [r0, #8]
10005282:	6061      	str	r1, [r4, #4]
10005284:	6851      	ldr	r1, [r2, #4]
10005286:	4281      	cmp	r1, r0
10005288:	d030      	beq.n	100052ec <vTaskRemoveFromUnorderedEventList+0x80>
1000528a:	2100      	movs	r1, #0
1000528c:	6101      	str	r1, [r0, #16]
1000528e:	6811      	ldr	r1, [r2, #0]
10005290:	68d8      	ldr	r0, [r3, #12]
10005292:	3901      	subs	r1, #1
10005294:	6011      	str	r1, [r2, #0]
10005296:	6899      	ldr	r1, [r3, #8]
10005298:	695a      	ldr	r2, [r3, #20]
1000529a:	6088      	str	r0, [r1, #8]
1000529c:	68d8      	ldr	r0, [r3, #12]
1000529e:	1d1d      	adds	r5, r3, #4
100052a0:	6041      	str	r1, [r0, #4]
100052a2:	6851      	ldr	r1, [r2, #4]
100052a4:	42a9      	cmp	r1, r5
100052a6:	d023      	beq.n	100052f0 <vTaskRemoveFromUnorderedEventList+0x84>
100052a8:	6811      	ldr	r1, [r2, #0]
100052aa:	3901      	subs	r1, #1
100052ac:	6011      	str	r1, [r2, #0]
100052ae:	4a11      	ldr	r2, [pc, #68]	; (100052f4 <vTaskRemoveFromUnorderedEventList+0x88>)
100052b0:	6ad9      	ldr	r1, [r3, #44]	; 0x2c
100052b2:	6810      	ldr	r0, [r2, #0]
100052b4:	4281      	cmp	r1, r0
100052b6:	d900      	bls.n	100052ba <vTaskRemoveFromUnorderedEventList+0x4e>
100052b8:	6011      	str	r1, [r2, #0]
100052ba:	008a      	lsls	r2, r1, #2
100052bc:	4c0e      	ldr	r4, [pc, #56]	; (100052f8 <vTaskRemoveFromUnorderedEventList+0x8c>)
100052be:	1852      	adds	r2, r2, r1
100052c0:	0092      	lsls	r2, r2, #2
100052c2:	18a6      	adds	r6, r4, r2
100052c4:	6870      	ldr	r0, [r6, #4]
100052c6:	6887      	ldr	r7, [r0, #8]
100052c8:	6098      	str	r0, [r3, #8]
100052ca:	60df      	str	r7, [r3, #12]
100052cc:	6887      	ldr	r7, [r0, #8]
100052ce:	607d      	str	r5, [r7, #4]
100052d0:	6085      	str	r5, [r0, #8]
100052d2:	615e      	str	r6, [r3, #20]
100052d4:	58a3      	ldr	r3, [r4, r2]
100052d6:	3301      	adds	r3, #1
100052d8:	50a3      	str	r3, [r4, r2]
100052da:	4b08      	ldr	r3, [pc, #32]	; (100052fc <vTaskRemoveFromUnorderedEventList+0x90>)
100052dc:	681b      	ldr	r3, [r3, #0]
100052de:	6adb      	ldr	r3, [r3, #44]	; 0x2c
100052e0:	4299      	cmp	r1, r3
100052e2:	d902      	bls.n	100052ea <vTaskRemoveFromUnorderedEventList+0x7e>
100052e4:	2201      	movs	r2, #1
100052e6:	4b06      	ldr	r3, [pc, #24]	; (10005300 <vTaskRemoveFromUnorderedEventList+0x94>)
100052e8:	601a      	str	r2, [r3, #0]
100052ea:	bdf0      	pop	{r4, r5, r6, r7, pc}
100052ec:	6054      	str	r4, [r2, #4]
100052ee:	e7cc      	b.n	1000528a <vTaskRemoveFromUnorderedEventList+0x1e>
100052f0:	6050      	str	r0, [r2, #4]
100052f2:	e7d9      	b.n	100052a8 <vTaskRemoveFromUnorderedEventList+0x3c>
100052f4:	20012cf4 	.word	0x20012cf4
100052f8:	2000af44 	.word	0x2000af44
100052fc:	2000af30 	.word	0x2000af30
10005300:	20012db0 	.word	0x20012db0

10005304 <vTaskInternalSetTimeOutState>:
10005304:	4b03      	ldr	r3, [pc, #12]	; (10005314 <vTaskInternalSetTimeOutState+0x10>)
10005306:	681b      	ldr	r3, [r3, #0]
10005308:	6003      	str	r3, [r0, #0]
1000530a:	4b03      	ldr	r3, [pc, #12]	; (10005318 <vTaskInternalSetTimeOutState+0x14>)
1000530c:	681b      	ldr	r3, [r3, #0]
1000530e:	6043      	str	r3, [r0, #4]
10005310:	4770      	bx	lr
10005312:	46c0      	nop			; (mov r8, r8)
10005314:	20012d5c 	.word	0x20012d5c
10005318:	20012da4 	.word	0x20012da4

1000531c <xTaskCheckForTimeOut>:
1000531c:	b5f8      	push	{r3, r4, r5, r6, r7, lr}
1000531e:	000e      	movs	r6, r1
10005320:	0007      	movs	r7, r0
10005322:	f7fd ff9f 	bl	10003264 <vPortEnterCritical>
10005326:	236f      	movs	r3, #111	; 0x6f
10005328:	4c16      	ldr	r4, [pc, #88]	; (10005384 <xTaskCheckForTimeOut+0x68>)
1000532a:	4a17      	ldr	r2, [pc, #92]	; (10005388 <xTaskCheckForTimeOut+0x6c>)
1000532c:	6821      	ldr	r1, [r4, #0]
1000532e:	6815      	ldr	r5, [r2, #0]
10005330:	5ced      	ldrb	r5, [r5, r3]
10005332:	2d00      	cmp	r5, #0
10005334:	d007      	beq.n	10005346 <xTaskCheckForTimeOut+0x2a>
10005336:	2100      	movs	r1, #0
10005338:	2401      	movs	r4, #1
1000533a:	6812      	ldr	r2, [r2, #0]
1000533c:	54d1      	strb	r1, [r2, r3]
1000533e:	f7fd ff9d 	bl	1000327c <vPortExitCritical>
10005342:	0020      	movs	r0, r4
10005344:	bdf8      	pop	{r3, r4, r5, r6, r7, pc}
10005346:	6833      	ldr	r3, [r6, #0]
10005348:	1c5a      	adds	r2, r3, #1
1000534a:	d019      	beq.n	10005380 <xTaskCheckForTimeOut+0x64>
1000534c:	480f      	ldr	r0, [pc, #60]	; (1000538c <xTaskCheckForTimeOut+0x70>)
1000534e:	687a      	ldr	r2, [r7, #4]
10005350:	4684      	mov	ip, r0
10005352:	6805      	ldr	r5, [r0, #0]
10005354:	6838      	ldr	r0, [r7, #0]
10005356:	42a8      	cmp	r0, r5
10005358:	d005      	beq.n	10005366 <xTaskCheckForTimeOut+0x4a>
1000535a:	428a      	cmp	r2, r1
1000535c:	d803      	bhi.n	10005366 <xTaskCheckForTimeOut+0x4a>
1000535e:	2300      	movs	r3, #0
10005360:	2401      	movs	r4, #1
10005362:	6033      	str	r3, [r6, #0]
10005364:	e7eb      	b.n	1000533e <xTaskCheckForTimeOut+0x22>
10005366:	1a8d      	subs	r5, r1, r2
10005368:	42ab      	cmp	r3, r5
1000536a:	d9f8      	bls.n	1000535e <xTaskCheckForTimeOut+0x42>
1000536c:	1a5b      	subs	r3, r3, r1
1000536e:	189b      	adds	r3, r3, r2
10005370:	6033      	str	r3, [r6, #0]
10005372:	4663      	mov	r3, ip
10005374:	681b      	ldr	r3, [r3, #0]
10005376:	603b      	str	r3, [r7, #0]
10005378:	6823      	ldr	r3, [r4, #0]
1000537a:	2400      	movs	r4, #0
1000537c:	607b      	str	r3, [r7, #4]
1000537e:	e7de      	b.n	1000533e <xTaskCheckForTimeOut+0x22>
10005380:	2400      	movs	r4, #0
10005382:	e7dc      	b.n	1000533e <xTaskCheckForTimeOut+0x22>
10005384:	20012da4 	.word	0x20012da4
10005388:	2000af30 	.word	0x2000af30
1000538c:	20012d5c 	.word	0x20012d5c

10005390 <vTaskMissedYield>:
10005390:	2201      	movs	r2, #1
10005392:	4b01      	ldr	r3, [pc, #4]	; (10005398 <vTaskMissedYield+0x8>)
10005394:	601a      	str	r2, [r3, #0]
10005396:	4770      	bx	lr
10005398:	20012db0 	.word	0x20012db0

1000539c <uxTaskGetStackHighWaterMark>:
1000539c:	2800      	cmp	r0, #0
1000539e:	d00b      	beq.n	100053b8 <uxTaskGetStackHighWaterMark+0x1c>
100053a0:	6b02      	ldr	r2, [r0, #48]	; 0x30
100053a2:	2000      	movs	r0, #0
100053a4:	7813      	ldrb	r3, [r2, #0]
100053a6:	2ba5      	cmp	r3, #165	; 0xa5
100053a8:	d105      	bne.n	100053b6 <uxTaskGetStackHighWaterMark+0x1a>
100053aa:	3001      	adds	r0, #1
100053ac:	5c13      	ldrb	r3, [r2, r0]
100053ae:	2ba5      	cmp	r3, #165	; 0xa5
100053b0:	d0fb      	beq.n	100053aa <uxTaskGetStackHighWaterMark+0xe>
100053b2:	0380      	lsls	r0, r0, #14
100053b4:	0c00      	lsrs	r0, r0, #16
100053b6:	4770      	bx	lr
100053b8:	4b01      	ldr	r3, [pc, #4]	; (100053c0 <uxTaskGetStackHighWaterMark+0x24>)
100053ba:	6818      	ldr	r0, [r3, #0]
100053bc:	e7f0      	b.n	100053a0 <uxTaskGetStackHighWaterMark+0x4>
100053be:	46c0      	nop			; (mov r8, r8)
100053c0:	2000af30 	.word	0x2000af30

100053c4 <xTaskGetCurrentTaskHandle>:
100053c4:	4b01      	ldr	r3, [pc, #4]	; (100053cc <xTaskGetCurrentTaskHandle+0x8>)
100053c6:	6818      	ldr	r0, [r3, #0]
100053c8:	4770      	bx	lr
100053ca:	46c0      	nop			; (mov r8, r8)
100053cc:	2000af30 	.word	0x2000af30

100053d0 <xTaskPriorityInherit>:
100053d0:	b5f8      	push	{r3, r4, r5, r6, r7, lr}
100053d2:	1e04      	subs	r4, r0, #0
100053d4:	d021      	beq.n	1000541a <xTaskPriorityInherit+0x4a>
100053d6:	4d20      	ldr	r5, [pc, #128]	; (10005458 <xTaskPriorityInherit+0x88>)
100053d8:	6ac2      	ldr	r2, [r0, #44]	; 0x2c
100053da:	682b      	ldr	r3, [r5, #0]
100053dc:	6adb      	ldr	r3, [r3, #44]	; 0x2c
100053de:	429a      	cmp	r2, r3
100053e0:	d214      	bcs.n	1000540c <xTaskPriorityInherit+0x3c>
100053e2:	6983      	ldr	r3, [r0, #24]
100053e4:	2b00      	cmp	r3, #0
100053e6:	db04      	blt.n	100053f2 <xTaskPriorityInherit+0x22>
100053e8:	682b      	ldr	r3, [r5, #0]
100053ea:	6ad9      	ldr	r1, [r3, #44]	; 0x2c
100053ec:	2304      	movs	r3, #4
100053ee:	1a5b      	subs	r3, r3, r1
100053f0:	6183      	str	r3, [r0, #24]
100053f2:	0093      	lsls	r3, r2, #2
100053f4:	189b      	adds	r3, r3, r2
100053f6:	4e19      	ldr	r6, [pc, #100]	; (1000545c <xTaskPriorityInherit+0x8c>)
100053f8:	009b      	lsls	r3, r3, #2
100053fa:	6962      	ldr	r2, [r4, #20]
100053fc:	18f3      	adds	r3, r6, r3
100053fe:	429a      	cmp	r2, r3
10005400:	d00d      	beq.n	1000541e <xTaskPriorityInherit+0x4e>
10005402:	682b      	ldr	r3, [r5, #0]
10005404:	2001      	movs	r0, #1
10005406:	6adb      	ldr	r3, [r3, #44]	; 0x2c
10005408:	62e3      	str	r3, [r4, #44]	; 0x2c
1000540a:	e005      	b.n	10005418 <xTaskPriorityInherit+0x48>
1000540c:	682b      	ldr	r3, [r5, #0]
1000540e:	6c40      	ldr	r0, [r0, #68]	; 0x44
10005410:	6adb      	ldr	r3, [r3, #44]	; 0x2c
10005412:	4298      	cmp	r0, r3
10005414:	4180      	sbcs	r0, r0
10005416:	4240      	negs	r0, r0
10005418:	bdf8      	pop	{r3, r4, r5, r6, r7, pc}
1000541a:	2000      	movs	r0, #0
1000541c:	e7fc      	b.n	10005418 <xTaskPriorityInherit+0x48>
1000541e:	1d27      	adds	r7, r4, #4
10005420:	0038      	movs	r0, r7
10005422:	f7fe fa3b 	bl	1000389c <uxListRemove>
10005426:	682b      	ldr	r3, [r5, #0]
10005428:	6ada      	ldr	r2, [r3, #44]	; 0x2c
1000542a:	4b0d      	ldr	r3, [pc, #52]	; (10005460 <xTaskPriorityInherit+0x90>)
1000542c:	62e2      	str	r2, [r4, #44]	; 0x2c
1000542e:	6819      	ldr	r1, [r3, #0]
10005430:	428a      	cmp	r2, r1
10005432:	d900      	bls.n	10005436 <xTaskPriorityInherit+0x66>
10005434:	601a      	str	r2, [r3, #0]
10005436:	0093      	lsls	r3, r2, #2
10005438:	189b      	adds	r3, r3, r2
1000543a:	009b      	lsls	r3, r3, #2
1000543c:	18f1      	adds	r1, r6, r3
1000543e:	684a      	ldr	r2, [r1, #4]
10005440:	6890      	ldr	r0, [r2, #8]
10005442:	60a2      	str	r2, [r4, #8]
10005444:	60e0      	str	r0, [r4, #12]
10005446:	6890      	ldr	r0, [r2, #8]
10005448:	6047      	str	r7, [r0, #4]
1000544a:	6097      	str	r7, [r2, #8]
1000544c:	58f2      	ldr	r2, [r6, r3]
1000544e:	6161      	str	r1, [r4, #20]
10005450:	3201      	adds	r2, #1
10005452:	2001      	movs	r0, #1
10005454:	50f2      	str	r2, [r6, r3]
10005456:	e7df      	b.n	10005418 <xTaskPriorityInherit+0x48>
10005458:	2000af30 	.word	0x2000af30
1000545c:	2000af44 	.word	0x2000af44
10005460:	20012cf4 	.word	0x20012cf4

10005464 <xTaskPriorityDisinherit>:
10005464:	b570      	push	{r4, r5, r6, lr}
10005466:	1e04      	subs	r4, r0, #0
10005468:	d008      	beq.n	1000547c <xTaskPriorityDisinherit+0x18>
1000546a:	6c83      	ldr	r3, [r0, #72]	; 0x48
1000546c:	6ac2      	ldr	r2, [r0, #44]	; 0x2c
1000546e:	6c41      	ldr	r1, [r0, #68]	; 0x44
10005470:	3b01      	subs	r3, #1
10005472:	6483      	str	r3, [r0, #72]	; 0x48
10005474:	428a      	cmp	r2, r1
10005476:	d001      	beq.n	1000547c <xTaskPriorityDisinherit+0x18>
10005478:	2b00      	cmp	r3, #0
1000547a:	d001      	beq.n	10005480 <xTaskPriorityDisinherit+0x1c>
1000547c:	2000      	movs	r0, #0
1000547e:	bd70      	pop	{r4, r5, r6, pc}
10005480:	1d05      	adds	r5, r0, #4
10005482:	0028      	movs	r0, r5
10005484:	f7fe fa0a 	bl	1000389c <uxListRemove>
10005488:	2304      	movs	r3, #4
1000548a:	6c62      	ldr	r2, [r4, #68]	; 0x44
1000548c:	1a9b      	subs	r3, r3, r2
1000548e:	61a3      	str	r3, [r4, #24]
10005490:	4b0b      	ldr	r3, [pc, #44]	; (100054c0 <xTaskPriorityDisinherit+0x5c>)
10005492:	62e2      	str	r2, [r4, #44]	; 0x2c
10005494:	6819      	ldr	r1, [r3, #0]
10005496:	428a      	cmp	r2, r1
10005498:	d900      	bls.n	1000549c <xTaskPriorityDisinherit+0x38>
1000549a:	601a      	str	r2, [r3, #0]
1000549c:	0093      	lsls	r3, r2, #2
1000549e:	4909      	ldr	r1, [pc, #36]	; (100054c4 <xTaskPriorityDisinherit+0x60>)
100054a0:	189b      	adds	r3, r3, r2
100054a2:	009b      	lsls	r3, r3, #2
100054a4:	18c8      	adds	r0, r1, r3
100054a6:	6842      	ldr	r2, [r0, #4]
100054a8:	6896      	ldr	r6, [r2, #8]
100054aa:	60a2      	str	r2, [r4, #8]
100054ac:	60e6      	str	r6, [r4, #12]
100054ae:	6896      	ldr	r6, [r2, #8]
100054b0:	6075      	str	r5, [r6, #4]
100054b2:	6095      	str	r5, [r2, #8]
100054b4:	58ca      	ldr	r2, [r1, r3]
100054b6:	6160      	str	r0, [r4, #20]
100054b8:	3201      	adds	r2, #1
100054ba:	2001      	movs	r0, #1
100054bc:	50ca      	str	r2, [r1, r3]
100054be:	e7de      	b.n	1000547e <xTaskPriorityDisinherit+0x1a>
100054c0:	20012cf4 	.word	0x20012cf4
100054c4:	2000af44 	.word	0x2000af44

100054c8 <vTaskPriorityDisinheritAfterTimeout>:
100054c8:	b570      	push	{r4, r5, r6, lr}
100054ca:	1e04      	subs	r4, r0, #0
100054cc:	d008      	beq.n	100054e0 <vTaskPriorityDisinheritAfterTimeout+0x18>
100054ce:	6c43      	ldr	r3, [r0, #68]	; 0x44
100054d0:	428b      	cmp	r3, r1
100054d2:	d306      	bcc.n	100054e2 <vTaskPriorityDisinheritAfterTimeout+0x1a>
100054d4:	6ae2      	ldr	r2, [r4, #44]	; 0x2c
100054d6:	429a      	cmp	r2, r3
100054d8:	d002      	beq.n	100054e0 <vTaskPriorityDisinheritAfterTimeout+0x18>
100054da:	6ca1      	ldr	r1, [r4, #72]	; 0x48
100054dc:	2901      	cmp	r1, #1
100054de:	d005      	beq.n	100054ec <vTaskPriorityDisinheritAfterTimeout+0x24>
100054e0:	bd70      	pop	{r4, r5, r6, pc}
100054e2:	6ae2      	ldr	r2, [r4, #44]	; 0x2c
100054e4:	000b      	movs	r3, r1
100054e6:	429a      	cmp	r2, r3
100054e8:	d1f7      	bne.n	100054da <vTaskPriorityDisinheritAfterTimeout+0x12>
100054ea:	e7f9      	b.n	100054e0 <vTaskPriorityDisinheritAfterTimeout+0x18>
100054ec:	69a1      	ldr	r1, [r4, #24]
100054ee:	62e3      	str	r3, [r4, #44]	; 0x2c
100054f0:	2900      	cmp	r1, #0
100054f2:	db02      	blt.n	100054fa <vTaskPriorityDisinheritAfterTimeout+0x32>
100054f4:	2104      	movs	r1, #4
100054f6:	1acb      	subs	r3, r1, r3
100054f8:	61a3      	str	r3, [r4, #24]
100054fa:	0093      	lsls	r3, r2, #2
100054fc:	189a      	adds	r2, r3, r2
100054fe:	4d10      	ldr	r5, [pc, #64]	; (10005540 <vTaskPriorityDisinheritAfterTimeout+0x78>)
10005500:	0092      	lsls	r2, r2, #2
10005502:	6963      	ldr	r3, [r4, #20]
10005504:	18aa      	adds	r2, r5, r2
10005506:	4293      	cmp	r3, r2
10005508:	d1ea      	bne.n	100054e0 <vTaskPriorityDisinheritAfterTimeout+0x18>
1000550a:	1d26      	adds	r6, r4, #4
1000550c:	0030      	movs	r0, r6
1000550e:	f7fe f9c5 	bl	1000389c <uxListRemove>
10005512:	4b0c      	ldr	r3, [pc, #48]	; (10005544 <vTaskPriorityDisinheritAfterTimeout+0x7c>)
10005514:	6ae2      	ldr	r2, [r4, #44]	; 0x2c
10005516:	6819      	ldr	r1, [r3, #0]
10005518:	428a      	cmp	r2, r1
1000551a:	d900      	bls.n	1000551e <vTaskPriorityDisinheritAfterTimeout+0x56>
1000551c:	601a      	str	r2, [r3, #0]
1000551e:	0093      	lsls	r3, r2, #2
10005520:	189b      	adds	r3, r3, r2
10005522:	009b      	lsls	r3, r3, #2
10005524:	18e9      	adds	r1, r5, r3
10005526:	684a      	ldr	r2, [r1, #4]
10005528:	6890      	ldr	r0, [r2, #8]
1000552a:	60a2      	str	r2, [r4, #8]
1000552c:	60e0      	str	r0, [r4, #12]
1000552e:	6890      	ldr	r0, [r2, #8]
10005530:	6046      	str	r6, [r0, #4]
10005532:	6096      	str	r6, [r2, #8]
10005534:	58ea      	ldr	r2, [r5, r3]
10005536:	6161      	str	r1, [r4, #20]
10005538:	3201      	adds	r2, #1
1000553a:	50ea      	str	r2, [r5, r3]
1000553c:	e7d0      	b.n	100054e0 <vTaskPriorityDisinheritAfterTimeout+0x18>
1000553e:	46c0      	nop			; (mov r8, r8)
10005540:	2000af44 	.word	0x2000af44
10005544:	20012cf4 	.word	0x20012cf4

10005548 <uxTaskResetEventItemValue>:
10005548:	4b04      	ldr	r3, [pc, #16]	; (1000555c <uxTaskResetEventItemValue+0x14>)
1000554a:	681a      	ldr	r2, [r3, #0]
1000554c:	6819      	ldr	r1, [r3, #0]
1000554e:	6990      	ldr	r0, [r2, #24]
10005550:	681a      	ldr	r2, [r3, #0]
10005552:	2304      	movs	r3, #4
10005554:	6ac9      	ldr	r1, [r1, #44]	; 0x2c
10005556:	1a5b      	subs	r3, r3, r1
10005558:	6193      	str	r3, [r2, #24]
1000555a:	4770      	bx	lr
1000555c:	2000af30 	.word	0x2000af30

10005560 <pvTaskIncrementMutexHeldCount>:
10005560:	4b04      	ldr	r3, [pc, #16]	; (10005574 <pvTaskIncrementMutexHeldCount+0x14>)
10005562:	681a      	ldr	r2, [r3, #0]
10005564:	2a00      	cmp	r2, #0
10005566:	d003      	beq.n	10005570 <pvTaskIncrementMutexHeldCount+0x10>
10005568:	6819      	ldr	r1, [r3, #0]
1000556a:	6c8a      	ldr	r2, [r1, #72]	; 0x48
1000556c:	3201      	adds	r2, #1
1000556e:	648a      	str	r2, [r1, #72]	; 0x48
10005570:	6818      	ldr	r0, [r3, #0]
10005572:	4770      	bx	lr
10005574:	2000af30 	.word	0x2000af30

10005578 <prvTimerTask>:
10005578:	4bd2      	ldr	r3, [pc, #840]	; (100058c4 <prvTimerTask+0x34c>)
1000557a:	b5f0      	push	{r4, r5, r6, r7, lr}
1000557c:	46de      	mov	lr, fp
1000557e:	4657      	mov	r7, sl
10005580:	464e      	mov	r6, r9
10005582:	4645      	mov	r5, r8
10005584:	4698      	mov	r8, r3
10005586:	4bd0      	ldr	r3, [pc, #832]	; (100058c8 <prvTimerTask+0x350>)
10005588:	b5e0      	push	{r5, r6, r7, lr}
1000558a:	4699      	mov	r9, r3
1000558c:	4bcf      	ldr	r3, [pc, #828]	; (100058cc <prvTimerTask+0x354>)
1000558e:	b089      	sub	sp, #36	; 0x24
10005590:	469a      	mov	sl, r3
10005592:	4bcf      	ldr	r3, [pc, #828]	; (100058d0 <prvTimerTask+0x358>)
10005594:	469b      	mov	fp, r3
10005596:	4643      	mov	r3, r8
10005598:	681b      	ldr	r3, [r3, #0]
1000559a:	681c      	ldr	r4, [r3, #0]
1000559c:	2c00      	cmp	r4, #0
1000559e:	d100      	bne.n	100055a2 <prvTimerTask+0x2a>
100055a0:	e0c4      	b.n	1000572c <prvTimerTask+0x1b4>
100055a2:	68db      	ldr	r3, [r3, #12]
100055a4:	681c      	ldr	r4, [r3, #0]
100055a6:	f7ff fb75 	bl	10004c94 <vTaskSuspendAll>
100055aa:	f7ff fc7d 	bl	10004ea8 <xTaskGetTickCount>
100055ae:	464b      	mov	r3, r9
100055b0:	681b      	ldr	r3, [r3, #0]
100055b2:	9001      	str	r0, [sp, #4]
100055b4:	4283      	cmp	r3, r0
100055b6:	d83d      	bhi.n	10005634 <prvTimerTask+0xbc>
100055b8:	464a      	mov	r2, r9
100055ba:	6010      	str	r0, [r2, #0]
100055bc:	4284      	cmp	r4, r0
100055be:	d800      	bhi.n	100055c2 <prvTimerTask+0x4a>
100055c0:	e127      	b.n	10005812 <prvTimerTask+0x29a>
100055c2:	2200      	movs	r2, #0
100055c4:	9b01      	ldr	r3, [sp, #4]
100055c6:	1ae1      	subs	r1, r4, r3
100055c8:	465b      	mov	r3, fp
100055ca:	6818      	ldr	r0, [r3, #0]
100055cc:	f7fe ff82 	bl	100044d4 <vQueueWaitForMessageRestricted>
100055d0:	f7ff fb68 	bl	10004ca4 <xTaskResumeAll>
100055d4:	2800      	cmp	r0, #0
100055d6:	d100      	bne.n	100055da <prvTimerTask+0x62>
100055d8:	e10d      	b.n	100057f6 <prvTimerTask+0x27e>
100055da:	465b      	mov	r3, fp
100055dc:	2200      	movs	r2, #0
100055de:	6818      	ldr	r0, [r3, #0]
100055e0:	a904      	add	r1, sp, #16
100055e2:	f7fe fc21 	bl	10003e28 <xQueueReceive>
100055e6:	2800      	cmp	r0, #0
100055e8:	d0d5      	beq.n	10005596 <prvTimerTask+0x1e>
100055ea:	9b04      	ldr	r3, [sp, #16]
100055ec:	9301      	str	r3, [sp, #4]
100055ee:	2b00      	cmp	r3, #0
100055f0:	da00      	bge.n	100055f4 <prvTimerTask+0x7c>
100055f2:	e08c      	b.n	1000570e <prvTimerTask+0x196>
100055f4:	9f06      	ldr	r7, [sp, #24]
100055f6:	697b      	ldr	r3, [r7, #20]
100055f8:	2b00      	cmp	r3, #0
100055fa:	d002      	beq.n	10005602 <prvTimerTask+0x8a>
100055fc:	1d38      	adds	r0, r7, #4
100055fe:	f7fe f94d 	bl	1000389c <uxListRemove>
10005602:	f7ff fc51 	bl	10004ea8 <xTaskGetTickCount>
10005606:	464b      	mov	r3, r9
10005608:	681b      	ldr	r3, [r3, #0]
1000560a:	9001      	str	r0, [sp, #4]
1000560c:	4298      	cmp	r0, r3
1000560e:	d200      	bcs.n	10005612 <prvTimerTask+0x9a>
10005610:	e0ab      	b.n	1000576a <prvTimerTask+0x1f2>
10005612:	464b      	mov	r3, r9
10005614:	9a01      	ldr	r2, [sp, #4]
10005616:	601a      	str	r2, [r3, #0]
10005618:	9b04      	ldr	r3, [sp, #16]
1000561a:	2b09      	cmp	r3, #9
1000561c:	d8dd      	bhi.n	100055da <prvTimerTask+0x62>
1000561e:	4aad      	ldr	r2, [pc, #692]	; (100058d4 <prvTimerTask+0x35c>)
10005620:	009b      	lsls	r3, r3, #2
10005622:	58d3      	ldr	r3, [r2, r3]
10005624:	469f      	mov	pc, r3
10005626:	2201      	movs	r2, #1
10005628:	4393      	bics	r3, r2
1000562a:	3223      	adds	r2, #35	; 0x23
1000562c:	54a3      	strb	r3, [r4, r2]
1000562e:	0020      	movs	r0, r4
10005630:	6a23      	ldr	r3, [r4, #32]
10005632:	4798      	blx	r3
10005634:	4643      	mov	r3, r8
10005636:	681b      	ldr	r3, [r3, #0]
10005638:	681a      	ldr	r2, [r3, #0]
1000563a:	2a00      	cmp	r2, #0
1000563c:	d100      	bne.n	10005640 <prvTimerTask+0xc8>
1000563e:	e088      	b.n	10005752 <prvTimerTask+0x1da>
10005640:	68db      	ldr	r3, [r3, #12]
10005642:	68dc      	ldr	r4, [r3, #12]
10005644:	681e      	ldr	r6, [r3, #0]
10005646:	1d27      	adds	r7, r4, #4
10005648:	0038      	movs	r0, r7
1000564a:	f7fe f927 	bl	1000389c <uxListRemove>
1000564e:	2324      	movs	r3, #36	; 0x24
10005650:	2204      	movs	r2, #4
10005652:	5ce3      	ldrb	r3, [r4, r3]
10005654:	421a      	tst	r2, r3
10005656:	d0e6      	beq.n	10005626 <prvTimerTask+0xae>
10005658:	69a3      	ldr	r3, [r4, #24]
1000565a:	6124      	str	r4, [r4, #16]
1000565c:	18f5      	adds	r5, r6, r3
1000565e:	43f6      	mvns	r6, r6
10005660:	6065      	str	r5, [r4, #4]
10005662:	42b3      	cmp	r3, r6
10005664:	d80a      	bhi.n	1000567c <prvTimerTask+0x104>
10005666:	002e      	movs	r6, r5
10005668:	43f6      	mvns	r6, r6
1000566a:	6a23      	ldr	r3, [r4, #32]
1000566c:	0020      	movs	r0, r4
1000566e:	4798      	blx	r3
10005670:	69a3      	ldr	r3, [r4, #24]
10005672:	6124      	str	r4, [r4, #16]
10005674:	18ed      	adds	r5, r5, r3
10005676:	6065      	str	r5, [r4, #4]
10005678:	42b3      	cmp	r3, r6
1000567a:	d9f4      	bls.n	10005666 <prvTimerTask+0xee>
1000567c:	4653      	mov	r3, sl
1000567e:	0039      	movs	r1, r7
10005680:	6818      	ldr	r0, [r3, #0]
10005682:	f7fe f8f3 	bl	1000386c <vListInsert>
10005686:	e7d2      	b.n	1000562e <prvTimerTask+0xb6>
10005688:	2224      	movs	r2, #36	; 0x24
1000568a:	2301      	movs	r3, #1
1000568c:	5cb8      	ldrb	r0, [r7, r2]
1000568e:	9905      	ldr	r1, [sp, #20]
10005690:	4303      	orrs	r3, r0
10005692:	54bb      	strb	r3, [r7, r2]
10005694:	69ba      	ldr	r2, [r7, #24]
10005696:	9c01      	ldr	r4, [sp, #4]
10005698:	188b      	adds	r3, r1, r2
1000569a:	607b      	str	r3, [r7, #4]
1000569c:	613f      	str	r7, [r7, #16]
1000569e:	42a3      	cmp	r3, r4
100056a0:	d900      	bls.n	100056a4 <prvTimerTask+0x12c>
100056a2:	e0ab      	b.n	100057fc <prvTimerTask+0x284>
100056a4:	1a61      	subs	r1, r4, r1
100056a6:	428a      	cmp	r2, r1
100056a8:	d81b      	bhi.n	100056e2 <prvTimerTask+0x16a>
100056aa:	0741      	lsls	r1, r0, #29
100056ac:	d500      	bpl.n	100056b0 <prvTimerTask+0x138>
100056ae:	e0e9      	b.n	10005884 <prvTimerTask+0x30c>
100056b0:	2301      	movs	r3, #1
100056b2:	4398      	bics	r0, r3
100056b4:	3323      	adds	r3, #35	; 0x23
100056b6:	54f8      	strb	r0, [r7, r3]
100056b8:	0038      	movs	r0, r7
100056ba:	6a3b      	ldr	r3, [r7, #32]
100056bc:	4798      	blx	r3
100056be:	e78c      	b.n	100055da <prvTimerTask+0x62>
100056c0:	2124      	movs	r1, #36	; 0x24
100056c2:	2201      	movs	r2, #1
100056c4:	5c7b      	ldrb	r3, [r7, r1]
100056c6:	4313      	orrs	r3, r2
100056c8:	547b      	strb	r3, [r7, r1]
100056ca:	9b05      	ldr	r3, [sp, #20]
100056cc:	9901      	ldr	r1, [sp, #4]
100056ce:	61bb      	str	r3, [r7, #24]
100056d0:	185a      	adds	r2, r3, r1
100056d2:	607a      	str	r2, [r7, #4]
100056d4:	613f      	str	r7, [r7, #16]
100056d6:	428a      	cmp	r2, r1
100056d8:	d900      	bls.n	100056dc <prvTimerTask+0x164>
100056da:	e094      	b.n	10005806 <prvTimerTask+0x28e>
100056dc:	2b00      	cmp	r3, #0
100056de:	d100      	bne.n	100056e2 <prvTimerTask+0x16a>
100056e0:	e77b      	b.n	100055da <prvTimerTask+0x62>
100056e2:	4653      	mov	r3, sl
100056e4:	1d39      	adds	r1, r7, #4
100056e6:	6818      	ldr	r0, [r3, #0]
100056e8:	f7fe f8c0 	bl	1000386c <vListInsert>
100056ec:	e775      	b.n	100055da <prvTimerTask+0x62>
100056ee:	2224      	movs	r2, #36	; 0x24
100056f0:	2101      	movs	r1, #1
100056f2:	5cbb      	ldrb	r3, [r7, r2]
100056f4:	438b      	bics	r3, r1
100056f6:	54bb      	strb	r3, [r7, r2]
100056f8:	e76f      	b.n	100055da <prvTimerTask+0x62>
100056fa:	2324      	movs	r3, #36	; 0x24
100056fc:	5cfb      	ldrb	r3, [r7, r3]
100056fe:	079a      	lsls	r2, r3, #30
10005700:	d400      	bmi.n	10005704 <prvTimerTask+0x18c>
10005702:	e09b      	b.n	1000583c <prvTimerTask+0x2c4>
10005704:	2201      	movs	r2, #1
10005706:	4393      	bics	r3, r2
10005708:	3223      	adds	r2, #35	; 0x23
1000570a:	54bb      	strb	r3, [r7, r2]
1000570c:	e765      	b.n	100055da <prvTimerTask+0x62>
1000570e:	9b07      	ldr	r3, [sp, #28]
10005710:	9301      	str	r3, [sp, #4]
10005712:	9b06      	ldr	r3, [sp, #24]
10005714:	9901      	ldr	r1, [sp, #4]
10005716:	9302      	str	r3, [sp, #8]
10005718:	9b05      	ldr	r3, [sp, #20]
1000571a:	9802      	ldr	r0, [sp, #8]
1000571c:	9303      	str	r3, [sp, #12]
1000571e:	4798      	blx	r3
10005720:	9b04      	ldr	r3, [sp, #16]
10005722:	9301      	str	r3, [sp, #4]
10005724:	2b00      	cmp	r3, #0
10005726:	da00      	bge.n	1000572a <prvTimerTask+0x1b2>
10005728:	e757      	b.n	100055da <prvTimerTask+0x62>
1000572a:	e763      	b.n	100055f4 <prvTimerTask+0x7c>
1000572c:	f7ff fab2 	bl	10004c94 <vTaskSuspendAll>
10005730:	f7ff fbba 	bl	10004ea8 <xTaskGetTickCount>
10005734:	464b      	mov	r3, r9
10005736:	681b      	ldr	r3, [r3, #0]
10005738:	0002      	movs	r2, r0
1000573a:	9001      	str	r0, [sp, #4]
1000573c:	4298      	cmp	r0, r3
1000573e:	d200      	bcs.n	10005742 <prvTimerTask+0x1ca>
10005740:	e778      	b.n	10005634 <prvTimerTask+0xbc>
10005742:	464b      	mov	r3, r9
10005744:	601a      	str	r2, [r3, #0]
10005746:	4653      	mov	r3, sl
10005748:	681b      	ldr	r3, [r3, #0]
1000574a:	681a      	ldr	r2, [r3, #0]
1000574c:	4253      	negs	r3, r2
1000574e:	415a      	adcs	r2, r3
10005750:	e738      	b.n	100055c4 <prvTimerTask+0x4c>
10005752:	4651      	mov	r1, sl
10005754:	4642      	mov	r2, r8
10005756:	6809      	ldr	r1, [r1, #0]
10005758:	6011      	str	r1, [r2, #0]
1000575a:	4652      	mov	r2, sl
1000575c:	6013      	str	r3, [r2, #0]
1000575e:	464b      	mov	r3, r9
10005760:	9a01      	ldr	r2, [sp, #4]
10005762:	601a      	str	r2, [r3, #0]
10005764:	f7ff fa9e 	bl	10004ca4 <xTaskResumeAll>
10005768:	e737      	b.n	100055da <prvTimerTask+0x62>
1000576a:	4643      	mov	r3, r8
1000576c:	681b      	ldr	r3, [r3, #0]
1000576e:	681a      	ldr	r2, [r3, #0]
10005770:	2a00      	cmp	r2, #0
10005772:	d039      	beq.n	100057e8 <prvTimerTask+0x270>
10005774:	9702      	str	r7, [sp, #8]
10005776:	e00b      	b.n	10005790 <prvTimerTask+0x218>
10005778:	2201      	movs	r2, #1
1000577a:	4393      	bics	r3, r2
1000577c:	3223      	adds	r2, #35	; 0x23
1000577e:	54a3      	strb	r3, [r4, r2]
10005780:	6a23      	ldr	r3, [r4, #32]
10005782:	0020      	movs	r0, r4
10005784:	4798      	blx	r3
10005786:	4643      	mov	r3, r8
10005788:	681b      	ldr	r3, [r3, #0]
1000578a:	681a      	ldr	r2, [r3, #0]
1000578c:	2a00      	cmp	r2, #0
1000578e:	d02a      	beq.n	100057e6 <prvTimerTask+0x26e>
10005790:	68db      	ldr	r3, [r3, #12]
10005792:	68dc      	ldr	r4, [r3, #12]
10005794:	681e      	ldr	r6, [r3, #0]
10005796:	1d27      	adds	r7, r4, #4
10005798:	0038      	movs	r0, r7
1000579a:	f7fe f87f 	bl	1000389c <uxListRemove>
1000579e:	2324      	movs	r3, #36	; 0x24
100057a0:	2204      	movs	r2, #4
100057a2:	5ce3      	ldrb	r3, [r4, r3]
100057a4:	421a      	tst	r2, r3
100057a6:	d0e7      	beq.n	10005778 <prvTimerTask+0x200>
100057a8:	69a3      	ldr	r3, [r4, #24]
100057aa:	6124      	str	r4, [r4, #16]
100057ac:	18f5      	adds	r5, r6, r3
100057ae:	43f6      	mvns	r6, r6
100057b0:	6065      	str	r5, [r4, #4]
100057b2:	42b3      	cmp	r3, r6
100057b4:	d80a      	bhi.n	100057cc <prvTimerTask+0x254>
100057b6:	002e      	movs	r6, r5
100057b8:	43f6      	mvns	r6, r6
100057ba:	6a23      	ldr	r3, [r4, #32]
100057bc:	0020      	movs	r0, r4
100057be:	4798      	blx	r3
100057c0:	69a3      	ldr	r3, [r4, #24]
100057c2:	6124      	str	r4, [r4, #16]
100057c4:	18ed      	adds	r5, r5, r3
100057c6:	6065      	str	r5, [r4, #4]
100057c8:	42b3      	cmp	r3, r6
100057ca:	d9f4      	bls.n	100057b6 <prvTimerTask+0x23e>
100057cc:	4653      	mov	r3, sl
100057ce:	0039      	movs	r1, r7
100057d0:	6818      	ldr	r0, [r3, #0]
100057d2:	f7fe f84b 	bl	1000386c <vListInsert>
100057d6:	6a23      	ldr	r3, [r4, #32]
100057d8:	0020      	movs	r0, r4
100057da:	4798      	blx	r3
100057dc:	4643      	mov	r3, r8
100057de:	681b      	ldr	r3, [r3, #0]
100057e0:	681a      	ldr	r2, [r3, #0]
100057e2:	2a00      	cmp	r2, #0
100057e4:	d1d4      	bne.n	10005790 <prvTimerTask+0x218>
100057e6:	9f02      	ldr	r7, [sp, #8]
100057e8:	4651      	mov	r1, sl
100057ea:	4642      	mov	r2, r8
100057ec:	6809      	ldr	r1, [r1, #0]
100057ee:	6011      	str	r1, [r2, #0]
100057f0:	4652      	mov	r2, sl
100057f2:	6013      	str	r3, [r2, #0]
100057f4:	e70d      	b.n	10005612 <prvTimerTask+0x9a>
100057f6:	f7fd fd29 	bl	1000324c <vPortYield>
100057fa:	e6ee      	b.n	100055da <prvTimerTask+0x62>
100057fc:	42a1      	cmp	r1, r4
100057fe:	d902      	bls.n	10005806 <prvTimerTask+0x28e>
10005800:	4299      	cmp	r1, r3
10005802:	d800      	bhi.n	10005806 <prvTimerTask+0x28e>
10005804:	e751      	b.n	100056aa <prvTimerTask+0x132>
10005806:	4643      	mov	r3, r8
10005808:	1d39      	adds	r1, r7, #4
1000580a:	6818      	ldr	r0, [r3, #0]
1000580c:	f7fe f82e 	bl	1000386c <vListInsert>
10005810:	e6e3      	b.n	100055da <prvTimerTask+0x62>
10005812:	f7ff fa47 	bl	10004ca4 <xTaskResumeAll>
10005816:	4643      	mov	r3, r8
10005818:	681b      	ldr	r3, [r3, #0]
1000581a:	68db      	ldr	r3, [r3, #12]
1000581c:	68dd      	ldr	r5, [r3, #12]
1000581e:	1d2f      	adds	r7, r5, #4
10005820:	0038      	movs	r0, r7
10005822:	f7fe f83b 	bl	1000389c <uxListRemove>
10005826:	2224      	movs	r2, #36	; 0x24
10005828:	5cab      	ldrb	r3, [r5, r2]
1000582a:	0759      	lsls	r1, r3, #29
1000582c:	d40a      	bmi.n	10005844 <prvTimerTask+0x2cc>
1000582e:	2101      	movs	r1, #1
10005830:	438b      	bics	r3, r1
10005832:	54ab      	strb	r3, [r5, r2]
10005834:	0028      	movs	r0, r5
10005836:	6a2b      	ldr	r3, [r5, #32]
10005838:	4798      	blx	r3
1000583a:	e6ce      	b.n	100055da <prvTimerTask+0x62>
1000583c:	0038      	movs	r0, r7
1000583e:	f000 f903 	bl	10005a48 <vPortFree>
10005842:	e6ca      	b.n	100055da <prvTimerTask+0x62>
10005844:	0023      	movs	r3, r4
10005846:	9c01      	ldr	r4, [sp, #4]
10005848:	e006      	b.n	10005858 <prvTimerTask+0x2e0>
1000584a:	1ae3      	subs	r3, r4, r3
1000584c:	429a      	cmp	r2, r3
1000584e:	d813      	bhi.n	10005878 <prvTimerTask+0x300>
10005850:	6a2b      	ldr	r3, [r5, #32]
10005852:	0028      	movs	r0, r5
10005854:	4798      	blx	r3
10005856:	0033      	movs	r3, r6
10005858:	69aa      	ldr	r2, [r5, #24]
1000585a:	612d      	str	r5, [r5, #16]
1000585c:	189e      	adds	r6, r3, r2
1000585e:	606e      	str	r6, [r5, #4]
10005860:	42a6      	cmp	r6, r4
10005862:	d9f2      	bls.n	1000584a <prvTimerTask+0x2d2>
10005864:	42a3      	cmp	r3, r4
10005866:	d901      	bls.n	1000586c <prvTimerTask+0x2f4>
10005868:	42b3      	cmp	r3, r6
1000586a:	d9f1      	bls.n	10005850 <prvTimerTask+0x2d8>
1000586c:	4643      	mov	r3, r8
1000586e:	0039      	movs	r1, r7
10005870:	6818      	ldr	r0, [r3, #0]
10005872:	f7fd fffb 	bl	1000386c <vListInsert>
10005876:	e7dd      	b.n	10005834 <prvTimerTask+0x2bc>
10005878:	4653      	mov	r3, sl
1000587a:	0039      	movs	r1, r7
1000587c:	6818      	ldr	r0, [r3, #0]
1000587e:	f7fd fff5 	bl	1000386c <vListInsert>
10005882:	e7d7      	b.n	10005834 <prvTimerTask+0x2bc>
10005884:	9d01      	ldr	r5, [sp, #4]
10005886:	e007      	b.n	10005898 <prvTimerTask+0x320>
10005888:	1aeb      	subs	r3, r5, r3
1000588a:	429a      	cmp	r2, r3
1000588c:	d813      	bhi.n	100058b6 <prvTimerTask+0x33e>
1000588e:	6a3b      	ldr	r3, [r7, #32]
10005890:	0038      	movs	r0, r7
10005892:	4798      	blx	r3
10005894:	0023      	movs	r3, r4
10005896:	69ba      	ldr	r2, [r7, #24]
10005898:	18d4      	adds	r4, r2, r3
1000589a:	607c      	str	r4, [r7, #4]
1000589c:	613f      	str	r7, [r7, #16]
1000589e:	42a5      	cmp	r5, r4
100058a0:	d2f2      	bcs.n	10005888 <prvTimerTask+0x310>
100058a2:	429d      	cmp	r5, r3
100058a4:	d201      	bcs.n	100058aa <prvTimerTask+0x332>
100058a6:	42a3      	cmp	r3, r4
100058a8:	d9f1      	bls.n	1000588e <prvTimerTask+0x316>
100058aa:	4643      	mov	r3, r8
100058ac:	1d39      	adds	r1, r7, #4
100058ae:	6818      	ldr	r0, [r3, #0]
100058b0:	f7fd ffdc 	bl	1000386c <vListInsert>
100058b4:	e700      	b.n	100056b8 <prvTimerTask+0x140>
100058b6:	4653      	mov	r3, sl
100058b8:	1d39      	adds	r1, r7, #4
100058ba:	6818      	ldr	r0, [r3, #0]
100058bc:	f7fd ffd6 	bl	1000386c <vListInsert>
100058c0:	e6fa      	b.n	100056b8 <prvTimerTask+0x140>
100058c2:	46c0      	nop			; (mov r8, r8)
100058c4:	2000af34 	.word	0x2000af34
100058c8:	20012d50 	.word	0x20012d50
100058cc:	2000af40 	.word	0x2000af40
100058d0:	20012da8 	.word	0x20012da8
100058d4:	1000b438 	.word	0x1000b438

100058d8 <xTimerCreateTimerTask>:
100058d8:	b570      	push	{r4, r5, r6, lr}
100058da:	b082      	sub	sp, #8
100058dc:	f7fd fcc2 	bl	10003264 <vPortEnterCritical>
100058e0:	4c17      	ldr	r4, [pc, #92]	; (10005940 <xTimerCreateTimerTask+0x68>)
100058e2:	6823      	ldr	r3, [r4, #0]
100058e4:	2b00      	cmp	r3, #0
100058e6:	d012      	beq.n	1000590e <xTimerCreateTimerTask+0x36>
100058e8:	f7fd fcc8 	bl	1000327c <vPortExitCritical>
100058ec:	6823      	ldr	r3, [r4, #0]
100058ee:	2000      	movs	r0, #0
100058f0:	2b00      	cmp	r3, #0
100058f2:	d00a      	beq.n	1000590a <xTimerCreateTimerTask+0x32>
100058f4:	4b13      	ldr	r3, [pc, #76]	; (10005944 <xTimerCreateTimerTask+0x6c>)
100058f6:	2280      	movs	r2, #128	; 0x80
100058f8:	9301      	str	r3, [sp, #4]
100058fa:	2303      	movs	r3, #3
100058fc:	4912      	ldr	r1, [pc, #72]	; (10005948 <xTimerCreateTimerTask+0x70>)
100058fe:	9300      	str	r3, [sp, #0]
10005900:	4812      	ldr	r0, [pc, #72]	; (1000594c <xTimerCreateTimerTask+0x74>)
10005902:	2300      	movs	r3, #0
10005904:	0052      	lsls	r2, r2, #1
10005906:	f7fe ff33 	bl	10004770 <xTaskCreate>
1000590a:	b002      	add	sp, #8
1000590c:	bd70      	pop	{r4, r5, r6, pc}
1000590e:	4e10      	ldr	r6, [pc, #64]	; (10005950 <xTimerCreateTimerTask+0x78>)
10005910:	0030      	movs	r0, r6
10005912:	f7fd ff8f 	bl	10003834 <vListInitialise>
10005916:	4d0f      	ldr	r5, [pc, #60]	; (10005954 <xTimerCreateTimerTask+0x7c>)
10005918:	0028      	movs	r0, r5
1000591a:	f7fd ff8b 	bl	10003834 <vListInitialise>
1000591e:	4b0e      	ldr	r3, [pc, #56]	; (10005958 <xTimerCreateTimerTask+0x80>)
10005920:	2200      	movs	r2, #0
10005922:	601e      	str	r6, [r3, #0]
10005924:	4b0d      	ldr	r3, [pc, #52]	; (1000595c <xTimerCreateTimerTask+0x84>)
10005926:	2110      	movs	r1, #16
10005928:	200a      	movs	r0, #10
1000592a:	601d      	str	r5, [r3, #0]
1000592c:	f7fd ffc8 	bl	100038c0 <xQueueGenericCreate>
10005930:	6020      	str	r0, [r4, #0]
10005932:	2800      	cmp	r0, #0
10005934:	d0d8      	beq.n	100058e8 <xTimerCreateTimerTask+0x10>
10005936:	490a      	ldr	r1, [pc, #40]	; (10005960 <xTimerCreateTimerTask+0x88>)
10005938:	f7fe fd40 	bl	100043bc <vQueueAddToRegistry>
1000593c:	e7d4      	b.n	100058e8 <xTimerCreateTimerTask+0x10>
1000593e:	46c0      	nop			; (mov r8, r8)
10005940:	20012da8 	.word	0x20012da8
10005944:	20012dac 	.word	0x20012dac
10005948:	1000b468 	.word	0x1000b468
1000594c:	10005579 	.word	0x10005579
10005950:	20012cf8 	.word	0x20012cf8
10005954:	20012d0c 	.word	0x20012d0c
10005958:	2000af34 	.word	0x2000af34
1000595c:	2000af40 	.word	0x2000af40
10005960:	1000b460 	.word	0x1000b460

10005964 <xTimerPendFunctionCallFromISR>:
10005964:	b510      	push	{r4, lr}
10005966:	0014      	movs	r4, r2
10005968:	001a      	movs	r2, r3
1000596a:	2302      	movs	r3, #2
1000596c:	b084      	sub	sp, #16
1000596e:	425b      	negs	r3, r3
10005970:	9300      	str	r3, [sp, #0]
10005972:	4b05      	ldr	r3, [pc, #20]	; (10005988 <xTimerPendFunctionCallFromISR+0x24>)
10005974:	9001      	str	r0, [sp, #4]
10005976:	9102      	str	r1, [sp, #8]
10005978:	6818      	ldr	r0, [r3, #0]
1000597a:	4669      	mov	r1, sp
1000597c:	2300      	movs	r3, #0
1000597e:	9403      	str	r4, [sp, #12]
10005980:	f7fe f9c0 	bl	10003d04 <xQueueGenericSendFromISR>
10005984:	b004      	add	sp, #16
10005986:	bd10      	pop	{r4, pc}
10005988:	20012da8 	.word	0x20012da8

1000598c <exception_set_exclusive_handler>:
1000598c:	b5f8      	push	{r3, r4, r5, r6, r7, lr}
1000598e:	000d      	movs	r5, r1
10005990:	f3ef 8710 	mrs	r7, PRIMASK
10005994:	b672      	cpsid	i
10005996:	4b0c      	ldr	r3, [pc, #48]	; (100059c8 <exception_set_exclusive_handler+0x3c>)
10005998:	3010      	adds	r0, #16
1000599a:	689b      	ldr	r3, [r3, #8]
1000599c:	0084      	lsls	r4, r0, #2
1000599e:	591e      	ldr	r6, [r3, r4]
100059a0:	42b1      	cmp	r1, r6
100059a2:	d005      	beq.n	100059b0 <exception_set_exclusive_handler+0x24>
100059a4:	4b09      	ldr	r3, [pc, #36]	; (100059cc <exception_set_exclusive_handler+0x40>)
100059a6:	429e      	cmp	r6, r3
100059a8:	d30b      	bcc.n	100059c2 <exception_set_exclusive_handler+0x36>
100059aa:	4b09      	ldr	r3, [pc, #36]	; (100059d0 <exception_set_exclusive_handler+0x44>)
100059ac:	429e      	cmp	r6, r3
100059ae:	d208      	bcs.n	100059c2 <exception_set_exclusive_handler+0x36>
100059b0:	4b05      	ldr	r3, [pc, #20]	; (100059c8 <exception_set_exclusive_handler+0x3c>)
100059b2:	689b      	ldr	r3, [r3, #8]
100059b4:	511d      	str	r5, [r3, r4]
100059b6:	f3bf 8f5f 	dmb	sy
100059ba:	f387 8810 	msr	PRIMASK, r7
100059be:	0030      	movs	r0, r6
100059c0:	bdf8      	pop	{r3, r4, r5, r6, r7, pc}
100059c2:	f000 f8e5 	bl	10005b90 <hard_assertion_failure>
100059c6:	e7f3      	b.n	100059b0 <exception_set_exclusive_handler+0x24>
100059c8:	e000ed00 	.word	0xe000ed00
100059cc:	100001c0 	.word	0x100001c0
100059d0:	100001cc 	.word	0x100001cc

100059d4 <pvPortMalloc>:
100059d4:	b570      	push	{r4, r5, r6, lr}
100059d6:	2607      	movs	r6, #7
100059d8:	0004      	movs	r4, r0
100059da:	4206      	tst	r6, r0
100059dc:	d005      	beq.n	100059ea <pvPortMalloc+0x16>
100059de:	0003      	movs	r3, r0
100059e0:	43b3      	bics	r3, r6
100059e2:	3308      	adds	r3, #8
100059e4:	4283      	cmp	r3, r0
100059e6:	d913      	bls.n	10005a10 <pvPortMalloc+0x3c>
100059e8:	001c      	movs	r4, r3
100059ea:	f7ff f953 	bl	10004c94 <vTaskSuspendAll>
100059ee:	4b12      	ldr	r3, [pc, #72]	; (10005a38 <pvPortMalloc+0x64>)
100059f0:	681d      	ldr	r5, [r3, #0]
100059f2:	2d00      	cmp	r5, #0
100059f4:	d017      	beq.n	10005a26 <pvPortMalloc+0x52>
100059f6:	2c00      	cmp	r4, #0
100059f8:	d010      	beq.n	10005a1c <pvPortMalloc+0x48>
100059fa:	4a10      	ldr	r2, [pc, #64]	; (10005a3c <pvPortMalloc+0x68>)
100059fc:	4910      	ldr	r1, [pc, #64]	; (10005a40 <pvPortMalloc+0x6c>)
100059fe:	6813      	ldr	r3, [r2, #0]
10005a00:	191c      	adds	r4, r3, r4
10005a02:	428c      	cmp	r4, r1
10005a04:	d80a      	bhi.n	10005a1c <pvPortMalloc+0x48>
10005a06:	42a3      	cmp	r3, r4
10005a08:	d208      	bcs.n	10005a1c <pvPortMalloc+0x48>
10005a0a:	18ed      	adds	r5, r5, r3
10005a0c:	6014      	str	r4, [r2, #0]
10005a0e:	e006      	b.n	10005a1e <pvPortMalloc+0x4a>
10005a10:	f7ff f940 	bl	10004c94 <vTaskSuspendAll>
10005a14:	4b08      	ldr	r3, [pc, #32]	; (10005a38 <pvPortMalloc+0x64>)
10005a16:	681d      	ldr	r5, [r3, #0]
10005a18:	2d00      	cmp	r5, #0
10005a1a:	d009      	beq.n	10005a30 <pvPortMalloc+0x5c>
10005a1c:	2500      	movs	r5, #0
10005a1e:	f7ff f941 	bl	10004ca4 <xTaskResumeAll>
10005a22:	0028      	movs	r0, r5
10005a24:	bd70      	pop	{r4, r5, r6, pc}
10005a26:	2207      	movs	r2, #7
10005a28:	4d06      	ldr	r5, [pc, #24]	; (10005a44 <pvPortMalloc+0x70>)
10005a2a:	4395      	bics	r5, r2
10005a2c:	601d      	str	r5, [r3, #0]
10005a2e:	e7e2      	b.n	100059f6 <pvPortMalloc+0x22>
10005a30:	4a04      	ldr	r2, [pc, #16]	; (10005a44 <pvPortMalloc+0x70>)
10005a32:	43b2      	bics	r2, r6
10005a34:	601a      	str	r2, [r3, #0]
10005a36:	e7f2      	b.n	10005a1e <pvPortMalloc+0x4a>
10005a38:	2000af28 	.word	0x2000af28
10005a3c:	20012d54 	.word	0x20012d54
10005a40:	00007cf7 	.word	0x00007cf7
10005a44:	2000afc7 	.word	0x2000afc7

10005a48 <vPortFree>:
10005a48:	4770      	bx	lr
10005a4a:	46c0      	nop			; (mov r8, r8)

10005a4c <xPortGetFreeHeapSize>:
10005a4c:	4b02      	ldr	r3, [pc, #8]	; (10005a58 <xPortGetFreeHeapSize+0xc>)
10005a4e:	4803      	ldr	r0, [pc, #12]	; (10005a5c <xPortGetFreeHeapSize+0x10>)
10005a50:	681b      	ldr	r3, [r3, #0]
10005a52:	1ac0      	subs	r0, r0, r3
10005a54:	4770      	bx	lr
10005a56:	46c0      	nop			; (mov r8, r8)
10005a58:	20012d54 	.word	0x20012d54
10005a5c:	00007cf8 	.word	0x00007cf8

10005a60 <runtime_init>:
10005a60:	4b2c      	ldr	r3, [pc, #176]	; (10005b14 <runtime_init+0xb4>)
10005a62:	4a2d      	ldr	r2, [pc, #180]	; (10005b18 <runtime_init+0xb8>)
10005a64:	b570      	push	{r4, r5, r6, lr}
10005a66:	601a      	str	r2, [r3, #0]
10005a68:	4a2c      	ldr	r2, [pc, #176]	; (10005b1c <runtime_init+0xbc>)
10005a6a:	4b2d      	ldr	r3, [pc, #180]	; (10005b20 <runtime_init+0xc0>)
10005a6c:	492d      	ldr	r1, [pc, #180]	; (10005b24 <runtime_init+0xc4>)
10005a6e:	601a      	str	r2, [r3, #0]
10005a70:	0014      	movs	r4, r2
10005a72:	688b      	ldr	r3, [r1, #8]
10005a74:	439c      	bics	r4, r3
10005a76:	d1fb      	bne.n	10005a70 <runtime_init+0x10>
10005a78:	4d2b      	ldr	r5, [pc, #172]	; (10005b28 <runtime_init+0xc8>)
10005a7a:	4e2c      	ldr	r6, [pc, #176]	; (10005b2c <runtime_init+0xcc>)
10005a7c:	42b5      	cmp	r5, r6
10005a7e:	d208      	bcs.n	10005a92 <runtime_init+0x32>
10005a80:	3e01      	subs	r6, #1
10005a82:	1b76      	subs	r6, r6, r5
10005a84:	08b6      	lsrs	r6, r6, #2
10005a86:	cd08      	ldmia	r5!, {r3}
10005a88:	4798      	blx	r3
10005a8a:	0023      	movs	r3, r4
10005a8c:	3401      	adds	r4, #1
10005a8e:	42b3      	cmp	r3, r6
10005a90:	d1f9      	bne.n	10005a86 <runtime_init+0x26>
10005a92:	f000 f883 	bl	10005b9c <clocks_init>
10005a96:	4a26      	ldr	r2, [pc, #152]	; (10005b30 <runtime_init+0xd0>)
10005a98:	4b21      	ldr	r3, [pc, #132]	; (10005b20 <runtime_init+0xc0>)
10005a9a:	601a      	str	r2, [r3, #0]
10005a9c:	4a21      	ldr	r2, [pc, #132]	; (10005b24 <runtime_init+0xc4>)
10005a9e:	6893      	ldr	r3, [r2, #8]
10005aa0:	43db      	mvns	r3, r3
10005aa2:	01db      	lsls	r3, r3, #7
10005aa4:	09dd      	lsrs	r5, r3, #7
10005aa6:	2b00      	cmp	r3, #0
10005aa8:	d1f9      	bne.n	10005a9e <runtime_init+0x3e>
10005aaa:	2240      	movs	r2, #64	; 0x40
10005aac:	4b21      	ldr	r3, [pc, #132]	; (10005b34 <runtime_init+0xd4>)
10005aae:	4c22      	ldr	r4, [pc, #136]	; (10005b38 <runtime_init+0xd8>)
10005ab0:	4e22      	ldr	r6, [pc, #136]	; (10005b3c <runtime_init+0xdc>)
10005ab2:	679a      	str	r2, [r3, #120]	; 0x78
10005ab4:	675a      	str	r2, [r3, #116]	; 0x74
10005ab6:	671a      	str	r2, [r3, #112]	; 0x70
10005ab8:	66da      	str	r2, [r3, #108]	; 0x6c
10005aba:	42b4      	cmp	r4, r6
10005abc:	d208      	bcs.n	10005ad0 <runtime_init+0x70>
10005abe:	6823      	ldr	r3, [r4, #0]
10005ac0:	0020      	movs	r0, r4
10005ac2:	2b00      	cmp	r3, #0
10005ac4:	d020      	beq.n	10005b08 <runtime_init+0xa8>
10005ac6:	340c      	adds	r4, #12
10005ac8:	f7fd fad8 	bl	1000307c <recursive_mutex_init>
10005acc:	42b4      	cmp	r4, r6
10005ace:	d3f6      	bcc.n	10005abe <runtime_init+0x5e>
10005ad0:	4e1b      	ldr	r6, [pc, #108]	; (10005b40 <runtime_init+0xe0>)
10005ad2:	4c1c      	ldr	r4, [pc, #112]	; (10005b44 <runtime_init+0xe4>)
10005ad4:	22c0      	movs	r2, #192	; 0xc0
10005ad6:	68a1      	ldr	r1, [r4, #8]
10005ad8:	0030      	movs	r0, r6
10005ada:	f002 fc5d 	bl	10008398 <__wrap___aeabi_memcpy>
10005ade:	60a6      	str	r6, [r4, #8]
10005ae0:	f7fc f8f0 	bl	10001cc4 <spin_locks_reset>
10005ae4:	f7fc fbea 	bl	100022bc <irq_init_priorities>
10005ae8:	f7fc fe38 	bl	1000275c <alarm_pool_init_default>
10005aec:	4c16      	ldr	r4, [pc, #88]	; (10005b48 <runtime_init+0xe8>)
10005aee:	4e17      	ldr	r6, [pc, #92]	; (10005b4c <runtime_init+0xec>)
10005af0:	42b4      	cmp	r4, r6
10005af2:	d208      	bcs.n	10005b06 <runtime_init+0xa6>
10005af4:	3e01      	subs	r6, #1
10005af6:	1b36      	subs	r6, r6, r4
10005af8:	08b6      	lsrs	r6, r6, #2
10005afa:	cc08      	ldmia	r4!, {r3}
10005afc:	4798      	blx	r3
10005afe:	002b      	movs	r3, r5
10005b00:	3501      	adds	r5, #1
10005b02:	429e      	cmp	r6, r3
10005b04:	d1f9      	bne.n	10005afa <runtime_init+0x9a>
10005b06:	bd70      	pop	{r4, r5, r6, pc}
10005b08:	3408      	adds	r4, #8
10005b0a:	f7fd faa9 	bl	10003060 <mutex_init>
10005b0e:	42b4      	cmp	r4, r6
10005b10:	d3d5      	bcc.n	10005abe <runtime_init+0x5e>
10005b12:	e7dd      	b.n	10005ad0 <runtime_init+0x70>
10005b14:	4000e000 	.word	0x4000e000
10005b18:	fefbcdbf 	.word	0xfefbcdbf
10005b1c:	003c7ffe 	.word	0x003c7ffe
10005b20:	4000f000 	.word	0x4000f000
10005b24:	4000c000 	.word	0x4000c000
10005b28:	200008b0 	.word	0x200008b0
10005b2c:	200008c0 	.word	0x200008c0
10005b30:	01ffffff 	.word	0x01ffffff
10005b34:	4001f000 	.word	0x4001f000
10005b38:	200008a0 	.word	0x200008a0
10005b3c:	200008b0 	.word	0x200008b0
10005b40:	20000000 	.word	0x20000000
10005b44:	e000ed00 	.word	0xe000ed00
10005b48:	200008c0 	.word	0x200008c0
10005b4c:	200008cc 	.word	0x200008cc

10005b50 <exit>:
10005b50:	be00      	bkpt	0x0000
10005b52:	e7fd      	b.n	10005b50 <exit>

10005b54 <panic>:
10005b54:	b40f      	push	{r0, r1, r2, r3}
10005b56:	b500      	push	{lr}
10005b58:	4808      	ldr	r0, [pc, #32]	; (10005b7c <panic+0x28>)
10005b5a:	b083      	sub	sp, #12
10005b5c:	f002 fd82 	bl	10008664 <__wrap_puts>
10005b60:	9b04      	ldr	r3, [sp, #16]
10005b62:	2b00      	cmp	r3, #0
10005b64:	d007      	beq.n	10005b76 <panic+0x22>
10005b66:	a905      	add	r1, sp, #20
10005b68:	0018      	movs	r0, r3
10005b6a:	9101      	str	r1, [sp, #4]
10005b6c:	f001 fd04 	bl	10007578 <weak_raw_vprintf>
10005b70:	4803      	ldr	r0, [pc, #12]	; (10005b80 <panic+0x2c>)
10005b72:	f002 fd77 	bl	10008664 <__wrap_puts>
10005b76:	be00      	bkpt	0x0000
10005b78:	e7fd      	b.n	10005b76 <panic+0x22>
10005b7a:	46c0      	nop			; (mov r8, r8)
10005b7c:	1000b470 	.word	0x1000b470
10005b80:	1000b2bc 	.word	0x1000b2bc

10005b84 <panic_unsupported>:
10005b84:	b510      	push	{r4, lr}
10005b86:	4801      	ldr	r0, [pc, #4]	; (10005b8c <panic_unsupported+0x8>)
10005b88:	f7ff ffe4 	bl	10005b54 <panic>
10005b8c:	1000b480 	.word	0x1000b480

10005b90 <hard_assertion_failure>:
10005b90:	b510      	push	{r4, lr}
10005b92:	4801      	ldr	r0, [pc, #4]	; (10005b98 <hard_assertion_failure+0x8>)
10005b94:	f7ff ffde 	bl	10005b54 <panic>
10005b98:	1000b490 	.word	0x1000b490

10005b9c <clocks_init>:
10005b9c:	b530      	push	{r4, r5, lr}
10005b9e:	200c      	movs	r0, #12
10005ba0:	b083      	sub	sp, #12
10005ba2:	f000 f9b7 	bl	10005f14 <watchdog_start_tick>
10005ba6:	f7fc f885 	bl	10001cb4 <running_on_fpga>
10005baa:	2800      	cmp	r0, #0
10005bac:	d00e      	beq.n	10005bcc <clocks_init+0x30>
10005bae:	4b94      	ldr	r3, [pc, #592]	; (10005e00 <clocks_init+0x264>)
10005bb0:	4a94      	ldr	r2, [pc, #592]	; (10005e04 <clocks_init+0x268>)
10005bb2:	601a      	str	r2, [r3, #0]
10005bb4:	605a      	str	r2, [r3, #4]
10005bb6:	609a      	str	r2, [r3, #8]
10005bb8:	60da      	str	r2, [r3, #12]
10005bba:	611a      	str	r2, [r3, #16]
10005bbc:	615a      	str	r2, [r3, #20]
10005bbe:	619a      	str	r2, [r3, #24]
10005bc0:	61da      	str	r2, [r3, #28]
10005bc2:	621a      	str	r2, [r3, #32]
10005bc4:	4a90      	ldr	r2, [pc, #576]	; (10005e08 <clocks_init+0x26c>)
10005bc6:	625a      	str	r2, [r3, #36]	; 0x24
10005bc8:	b003      	add	sp, #12
10005bca:	bd30      	pop	{r4, r5, pc}
10005bcc:	4c8f      	ldr	r4, [pc, #572]	; (10005e0c <clocks_init+0x270>)
10005bce:	67a0      	str	r0, [r4, #120]	; 0x78
10005bd0:	f000 f9f4 	bl	10005fbc <xosc_init>
10005bd4:	2201      	movs	r2, #1
10005bd6:	4b8e      	ldr	r3, [pc, #568]	; (10005e10 <clocks_init+0x274>)
10005bd8:	601a      	str	r2, [r3, #0]
10005bda:	6c63      	ldr	r3, [r4, #68]	; 0x44
10005bdc:	2b01      	cmp	r3, #1
10005bde:	d1fc      	bne.n	10005bda <clocks_init+0x3e>
10005be0:	2203      	movs	r2, #3
10005be2:	4b8c      	ldr	r3, [pc, #560]	; (10005e14 <clocks_init+0x278>)
10005be4:	601a      	str	r2, [r3, #0]
10005be6:	4a89      	ldr	r2, [pc, #548]	; (10005e0c <clocks_init+0x270>)
10005be8:	6b93      	ldr	r3, [r2, #56]	; 0x38
10005bea:	2b01      	cmp	r3, #1
10005bec:	d1fc      	bne.n	10005be8 <clocks_init+0x4c>
10005bee:	3301      	adds	r3, #1
10005bf0:	2101      	movs	r1, #1
10005bf2:	4a89      	ldr	r2, [pc, #548]	; (10005e18 <clocks_init+0x27c>)
10005bf4:	4889      	ldr	r0, [pc, #548]	; (10005e1c <clocks_init+0x280>)
10005bf6:	9300      	str	r3, [sp, #0]
10005bf8:	3304      	adds	r3, #4
10005bfa:	f000 f933 	bl	10005e64 <pll_init>
10005bfe:	2305      	movs	r3, #5
10005c00:	4a87      	ldr	r2, [pc, #540]	; (10005e20 <clocks_init+0x284>)
10005c02:	9300      	str	r3, [sp, #0]
10005c04:	2101      	movs	r1, #1
10005c06:	4887      	ldr	r0, [pc, #540]	; (10005e24 <clocks_init+0x288>)
10005c08:	f000 f92c 	bl	10005e64 <pll_init>
10005c0c:	4b86      	ldr	r3, [pc, #536]	; (10005e28 <clocks_init+0x28c>)
10005c0e:	685a      	ldr	r2, [r3, #4]
10005c10:	2aff      	cmp	r2, #255	; 0xff
10005c12:	d802      	bhi.n	10005c1a <clocks_init+0x7e>
10005c14:	2280      	movs	r2, #128	; 0x80
10005c16:	0052      	lsls	r2, r2, #1
10005c18:	605a      	str	r2, [r3, #4]
10005c1a:	2280      	movs	r2, #128	; 0x80
10005c1c:	4c78      	ldr	r4, [pc, #480]	; (10005e00 <clocks_init+0x264>)
10005c1e:	4b7d      	ldr	r3, [pc, #500]	; (10005e14 <clocks_init+0x278>)
10005c20:	6921      	ldr	r1, [r4, #16]
10005c22:	0112      	lsls	r2, r2, #4
10005c24:	4d80      	ldr	r5, [pc, #512]	; (10005e28 <clocks_init+0x28c>)
10005c26:	601a      	str	r2, [r3, #0]
10005c28:	2900      	cmp	r1, #0
10005c2a:	d005      	beq.n	10005c38 <clocks_init+0x9c>
10005c2c:	6960      	ldr	r0, [r4, #20]
10005c2e:	f001 fd1d 	bl	1000766c <__wrap___aeabi_uidiv>
10005c32:	3001      	adds	r0, #1
10005c34:	3801      	subs	r0, #1
10005c36:	d1fd      	bne.n	10005c34 <clocks_init+0x98>
10005c38:	21e0      	movs	r1, #224	; 0xe0
10005c3a:	4b7b      	ldr	r3, [pc, #492]	; (10005e28 <clocks_init+0x28c>)
10005c3c:	2002      	movs	r0, #2
10005c3e:	681a      	ldr	r2, [r3, #0]
10005c40:	4011      	ands	r1, r2
10005c42:	2280      	movs	r2, #128	; 0x80
10005c44:	0152      	lsls	r2, r2, #5
10005c46:	432a      	orrs	r2, r5
10005c48:	6011      	str	r1, [r2, #0]
10005c4a:	6819      	ldr	r1, [r3, #0]
10005c4c:	4048      	eors	r0, r1
10005c4e:	2103      	movs	r1, #3
10005c50:	4001      	ands	r1, r0
10005c52:	6011      	str	r1, [r2, #0]
10005c54:	2104      	movs	r1, #4
10005c56:	689a      	ldr	r2, [r3, #8]
10005c58:	4211      	tst	r1, r2
10005c5a:	d0fc      	beq.n	10005c56 <clocks_init+0xba>
10005c5c:	2280      	movs	r2, #128	; 0x80
10005c5e:	2180      	movs	r1, #128	; 0x80
10005c60:	0192      	lsls	r2, r2, #6
10005c62:	432a      	orrs	r2, r5
10005c64:	0109      	lsls	r1, r1, #4
10005c66:	6011      	str	r1, [r2, #0]
10005c68:	2280      	movs	r2, #128	; 0x80
10005c6a:	0052      	lsls	r2, r2, #1
10005c6c:	605a      	str	r2, [r3, #4]
10005c6e:	4b6f      	ldr	r3, [pc, #444]	; (10005e2c <clocks_init+0x290>)
10005c70:	6123      	str	r3, [r4, #16]
10005c72:	4b6f      	ldr	r3, [pc, #444]	; (10005e30 <clocks_init+0x294>)
10005c74:	6859      	ldr	r1, [r3, #4]
10005c76:	29ff      	cmp	r1, #255	; 0xff
10005c78:	d800      	bhi.n	10005c7c <clocks_init+0xe0>
10005c7a:	605a      	str	r2, [r3, #4]
10005c7c:	2103      	movs	r1, #3
10005c7e:	4a64      	ldr	r2, [pc, #400]	; (10005e10 <clocks_init+0x274>)
10005c80:	4b6b      	ldr	r3, [pc, #428]	; (10005e30 <clocks_init+0x294>)
10005c82:	6011      	str	r1, [r2, #0]
10005c84:	3902      	subs	r1, #2
10005c86:	689a      	ldr	r2, [r3, #8]
10005c88:	4211      	tst	r1, r2
10005c8a:	d0fc      	beq.n	10005c86 <clocks_init+0xea>
10005c8c:	20e0      	movs	r0, #224	; 0xe0
10005c8e:	681a      	ldr	r2, [r3, #0]
10005c90:	4010      	ands	r0, r2
10005c92:	2280      	movs	r2, #128	; 0x80
10005c94:	0152      	lsls	r2, r2, #5
10005c96:	431a      	orrs	r2, r3
10005c98:	6010      	str	r0, [r2, #0]
10005c9a:	6818      	ldr	r0, [r3, #0]
10005c9c:	4048      	eors	r0, r1
10005c9e:	2103      	movs	r1, #3
10005ca0:	4001      	ands	r1, r0
10005ca2:	2002      	movs	r0, #2
10005ca4:	6011      	str	r1, [r2, #0]
10005ca6:	4962      	ldr	r1, [pc, #392]	; (10005e30 <clocks_init+0x294>)
10005ca8:	688a      	ldr	r2, [r1, #8]
10005caa:	4210      	tst	r0, r2
10005cac:	d0fc      	beq.n	10005ca8 <clocks_init+0x10c>
10005cae:	2280      	movs	r2, #128	; 0x80
10005cb0:	0192      	lsls	r2, r2, #6
10005cb2:	4313      	orrs	r3, r2
10005cb4:	2280      	movs	r2, #128	; 0x80
10005cb6:	0112      	lsls	r2, r2, #4
10005cb8:	601a      	str	r2, [r3, #0]
10005cba:	2280      	movs	r2, #128	; 0x80
10005cbc:	4b5d      	ldr	r3, [pc, #372]	; (10005e34 <clocks_init+0x298>)
10005cbe:	0052      	lsls	r2, r2, #1
10005cc0:	604a      	str	r2, [r1, #4]
10005cc2:	6163      	str	r3, [r4, #20]
10005cc4:	4b5c      	ldr	r3, [pc, #368]	; (10005e38 <clocks_init+0x29c>)
10005cc6:	6859      	ldr	r1, [r3, #4]
10005cc8:	29ff      	cmp	r1, #255	; 0xff
10005cca:	d800      	bhi.n	10005cce <clocks_init+0x132>
10005ccc:	605a      	str	r2, [r3, #4]
10005cce:	2280      	movs	r2, #128	; 0x80
10005cd0:	4b5a      	ldr	r3, [pc, #360]	; (10005e3c <clocks_init+0x2a0>)
10005cd2:	69e1      	ldr	r1, [r4, #28]
10005cd4:	0112      	lsls	r2, r2, #4
10005cd6:	4d58      	ldr	r5, [pc, #352]	; (10005e38 <clocks_init+0x29c>)
10005cd8:	601a      	str	r2, [r3, #0]
10005cda:	2900      	cmp	r1, #0
10005cdc:	d005      	beq.n	10005cea <clocks_init+0x14e>
10005cde:	6960      	ldr	r0, [r4, #20]
10005ce0:	f001 fcc4 	bl	1000766c <__wrap___aeabi_uidiv>
10005ce4:	3001      	adds	r0, #1
10005ce6:	3801      	subs	r0, #1
10005ce8:	d1fd      	bne.n	10005ce6 <clocks_init+0x14a>
10005cea:	22e0      	movs	r2, #224	; 0xe0
10005cec:	4952      	ldr	r1, [pc, #328]	; (10005e38 <clocks_init+0x29c>)
10005cee:	680b      	ldr	r3, [r1, #0]
10005cf0:	401a      	ands	r2, r3
10005cf2:	2380      	movs	r3, #128	; 0x80
10005cf4:	015b      	lsls	r3, r3, #5
10005cf6:	432b      	orrs	r3, r5
10005cf8:	601a      	str	r2, [r3, #0]
10005cfa:	2380      	movs	r3, #128	; 0x80
10005cfc:	2280      	movs	r2, #128	; 0x80
10005cfe:	019b      	lsls	r3, r3, #6
10005d00:	432b      	orrs	r3, r5
10005d02:	0112      	lsls	r2, r2, #4
10005d04:	601a      	str	r2, [r3, #0]
10005d06:	2280      	movs	r2, #128	; 0x80
10005d08:	4b3e      	ldr	r3, [pc, #248]	; (10005e04 <clocks_init+0x268>)
10005d0a:	0052      	lsls	r2, r2, #1
10005d0c:	604a      	str	r2, [r1, #4]
10005d0e:	61e3      	str	r3, [r4, #28]
10005d10:	4b4b      	ldr	r3, [pc, #300]	; (10005e40 <clocks_init+0x2a4>)
10005d12:	6859      	ldr	r1, [r3, #4]
10005d14:	29ff      	cmp	r1, #255	; 0xff
10005d16:	d800      	bhi.n	10005d1a <clocks_init+0x17e>
10005d18:	605a      	str	r2, [r3, #4]
10005d1a:	2280      	movs	r2, #128	; 0x80
10005d1c:	4b49      	ldr	r3, [pc, #292]	; (10005e44 <clocks_init+0x2a8>)
10005d1e:	6a21      	ldr	r1, [r4, #32]
10005d20:	0112      	lsls	r2, r2, #4
10005d22:	4d47      	ldr	r5, [pc, #284]	; (10005e40 <clocks_init+0x2a4>)
10005d24:	601a      	str	r2, [r3, #0]
10005d26:	2900      	cmp	r1, #0
10005d28:	d005      	beq.n	10005d36 <clocks_init+0x19a>
10005d2a:	6960      	ldr	r0, [r4, #20]
10005d2c:	f001 fc9e 	bl	1000766c <__wrap___aeabi_uidiv>
10005d30:	3001      	adds	r0, #1
10005d32:	3801      	subs	r0, #1
10005d34:	d1fd      	bne.n	10005d32 <clocks_init+0x196>
10005d36:	22e0      	movs	r2, #224	; 0xe0
10005d38:	4941      	ldr	r1, [pc, #260]	; (10005e40 <clocks_init+0x2a4>)
10005d3a:	680b      	ldr	r3, [r1, #0]
10005d3c:	401a      	ands	r2, r3
10005d3e:	2380      	movs	r3, #128	; 0x80
10005d40:	015b      	lsls	r3, r3, #5
10005d42:	432b      	orrs	r3, r5
10005d44:	601a      	str	r2, [r3, #0]
10005d46:	2380      	movs	r3, #128	; 0x80
10005d48:	2280      	movs	r2, #128	; 0x80
10005d4a:	019b      	lsls	r3, r3, #6
10005d4c:	432b      	orrs	r3, r5
10005d4e:	0112      	lsls	r2, r2, #4
10005d50:	601a      	str	r2, [r3, #0]
10005d52:	2380      	movs	r3, #128	; 0x80
10005d54:	2280      	movs	r2, #128	; 0x80
10005d56:	005b      	lsls	r3, r3, #1
10005d58:	604b      	str	r3, [r1, #4]
10005d5a:	4b2a      	ldr	r3, [pc, #168]	; (10005e04 <clocks_init+0x268>)
10005d5c:	02d2      	lsls	r2, r2, #11
10005d5e:	6223      	str	r3, [r4, #32]
10005d60:	4b39      	ldr	r3, [pc, #228]	; (10005e48 <clocks_init+0x2ac>)
10005d62:	6859      	ldr	r1, [r3, #4]
10005d64:	4291      	cmp	r1, r2
10005d66:	d200      	bcs.n	10005d6a <clocks_init+0x1ce>
10005d68:	605a      	str	r2, [r3, #4]
10005d6a:	2280      	movs	r2, #128	; 0x80
10005d6c:	4b37      	ldr	r3, [pc, #220]	; (10005e4c <clocks_init+0x2b0>)
10005d6e:	6a61      	ldr	r1, [r4, #36]	; 0x24
10005d70:	0112      	lsls	r2, r2, #4
10005d72:	4d35      	ldr	r5, [pc, #212]	; (10005e48 <clocks_init+0x2ac>)
10005d74:	601a      	str	r2, [r3, #0]
10005d76:	2900      	cmp	r1, #0
10005d78:	d005      	beq.n	10005d86 <clocks_init+0x1ea>
10005d7a:	6960      	ldr	r0, [r4, #20]
10005d7c:	f001 fc76 	bl	1000766c <__wrap___aeabi_uidiv>
10005d80:	3001      	adds	r0, #1
10005d82:	3801      	subs	r0, #1
10005d84:	d1fd      	bne.n	10005d82 <clocks_init+0x1e6>
10005d86:	22e0      	movs	r2, #224	; 0xe0
10005d88:	492f      	ldr	r1, [pc, #188]	; (10005e48 <clocks_init+0x2ac>)
10005d8a:	680b      	ldr	r3, [r1, #0]
10005d8c:	401a      	ands	r2, r3
10005d8e:	2380      	movs	r3, #128	; 0x80
10005d90:	015b      	lsls	r3, r3, #5
10005d92:	432b      	orrs	r3, r5
10005d94:	601a      	str	r2, [r3, #0]
10005d96:	2380      	movs	r3, #128	; 0x80
10005d98:	2280      	movs	r2, #128	; 0x80
10005d9a:	019b      	lsls	r3, r3, #6
10005d9c:	432b      	orrs	r3, r5
10005d9e:	0112      	lsls	r2, r2, #4
10005da0:	601a      	str	r2, [r3, #0]
10005da2:	2380      	movs	r3, #128	; 0x80
10005da4:	02db      	lsls	r3, r3, #11
10005da6:	604b      	str	r3, [r1, #4]
10005da8:	4b17      	ldr	r3, [pc, #92]	; (10005e08 <clocks_init+0x26c>)
10005daa:	6263      	str	r3, [r4, #36]	; 0x24
10005dac:	4b28      	ldr	r3, [pc, #160]	; (10005e50 <clocks_init+0x2b4>)
10005dae:	685a      	ldr	r2, [r3, #4]
10005db0:	2aff      	cmp	r2, #255	; 0xff
10005db2:	d802      	bhi.n	10005dba <clocks_init+0x21e>
10005db4:	2280      	movs	r2, #128	; 0x80
10005db6:	0052      	lsls	r2, r2, #1
10005db8:	605a      	str	r2, [r3, #4]
10005dba:	2280      	movs	r2, #128	; 0x80
10005dbc:	4b25      	ldr	r3, [pc, #148]	; (10005e54 <clocks_init+0x2b8>)
10005dbe:	69a1      	ldr	r1, [r4, #24]
10005dc0:	0112      	lsls	r2, r2, #4
10005dc2:	4d23      	ldr	r5, [pc, #140]	; (10005e50 <clocks_init+0x2b4>)
10005dc4:	601a      	str	r2, [r3, #0]
10005dc6:	2900      	cmp	r1, #0
10005dc8:	d005      	beq.n	10005dd6 <clocks_init+0x23a>
10005dca:	6960      	ldr	r0, [r4, #20]
10005dcc:	f001 fc4e 	bl	1000766c <__wrap___aeabi_uidiv>
10005dd0:	3001      	adds	r0, #1
10005dd2:	3801      	subs	r0, #1
10005dd4:	d1fd      	bne.n	10005dd2 <clocks_init+0x236>
10005dd6:	22e0      	movs	r2, #224	; 0xe0
10005dd8:	491d      	ldr	r1, [pc, #116]	; (10005e50 <clocks_init+0x2b4>)
10005dda:	680b      	ldr	r3, [r1, #0]
10005ddc:	401a      	ands	r2, r3
10005dde:	2380      	movs	r3, #128	; 0x80
10005de0:	015b      	lsls	r3, r3, #5
10005de2:	432b      	orrs	r3, r5
10005de4:	601a      	str	r2, [r3, #0]
10005de6:	2380      	movs	r3, #128	; 0x80
10005de8:	2280      	movs	r2, #128	; 0x80
10005dea:	019b      	lsls	r3, r3, #6
10005dec:	432b      	orrs	r3, r5
10005dee:	0112      	lsls	r2, r2, #4
10005df0:	601a      	str	r2, [r3, #0]
10005df2:	2380      	movs	r3, #128	; 0x80
10005df4:	005b      	lsls	r3, r3, #1
10005df6:	604b      	str	r3, [r1, #4]
10005df8:	4b0e      	ldr	r3, [pc, #56]	; (10005e34 <clocks_init+0x298>)
10005dfa:	61a3      	str	r3, [r4, #24]
10005dfc:	e6e4      	b.n	10005bc8 <clocks_init+0x2c>
10005dfe:	46c0      	nop			; (mov r8, r8)
10005e00:	200015d0 	.word	0x200015d0
10005e04:	02dc6c00 	.word	0x02dc6c00
10005e08:	0000b71b 	.word	0x0000b71b
10005e0c:	40008000 	.word	0x40008000
10005e10:	4000b03c 	.word	0x4000b03c
10005e14:	4000b030 	.word	0x4000b030
10005e18:	59682f00 	.word	0x59682f00
10005e1c:	40028000 	.word	0x40028000
10005e20:	47868c00 	.word	0x47868c00
10005e24:	4002c000 	.word	0x4002c000
10005e28:	40008030 	.word	0x40008030
10005e2c:	00b71b00 	.word	0x00b71b00
10005e30:	4000803c 	.word	0x4000803c
10005e34:	07735940 	.word	0x07735940
10005e38:	40008054 	.word	0x40008054
10005e3c:	4000b054 	.word	0x4000b054
10005e40:	40008060 	.word	0x40008060
10005e44:	4000b060 	.word	0x4000b060
10005e48:	4000806c 	.word	0x4000806c
10005e4c:	4000b06c 	.word	0x4000b06c
10005e50:	40008048 	.word	0x40008048
10005e54:	4000b048 	.word	0x4000b048

10005e58 <clock_get_hz>:
10005e58:	4b01      	ldr	r3, [pc, #4]	; (10005e60 <clock_get_hz+0x8>)
10005e5a:	0080      	lsls	r0, r0, #2
10005e5c:	58c0      	ldr	r0, [r0, r3]
10005e5e:	4770      	bx	lr
10005e60:	200015d0 	.word	0x200015d0

10005e64 <pll_init>:
10005e64:	b5f0      	push	{r4, r5, r6, r7, lr}
10005e66:	46c6      	mov	lr, r8
10005e68:	0004      	movs	r4, r0
10005e6a:	b500      	push	{lr}
10005e6c:	200c      	movs	r0, #12
10005e6e:	4690      	mov	r8, r2
10005e70:	001f      	movs	r7, r3
10005e72:	000e      	movs	r6, r1
10005e74:	f001 fbfa 	bl	1000766c <__wrap___aeabi_uidiv>
10005e78:	0141      	lsls	r1, r0, #5
10005e7a:	1a09      	subs	r1, r1, r0
10005e7c:	018d      	lsls	r5, r1, #6
10005e7e:	1a69      	subs	r1, r5, r1
10005e80:	00c9      	lsls	r1, r1, #3
10005e82:	1809      	adds	r1, r1, r0
10005e84:	0189      	lsls	r1, r1, #6
10005e86:	4640      	mov	r0, r8
10005e88:	f001 fbf0 	bl	1000766c <__wrap___aeabi_uidiv>
10005e8c:	9b06      	ldr	r3, [sp, #24]
10005e8e:	043f      	lsls	r7, r7, #16
10005e90:	031a      	lsls	r2, r3, #12
10005e92:	6823      	ldr	r3, [r4, #0]
10005e94:	4317      	orrs	r7, r2
10005e96:	2b00      	cmp	r3, #0
10005e98:	db22      	blt.n	10005ee0 <pll_init+0x7c>
10005e9a:	4b1a      	ldr	r3, [pc, #104]	; (10005f04 <pll_init+0xa0>)
10005e9c:	4d1a      	ldr	r5, [pc, #104]	; (10005f08 <pll_init+0xa4>)
10005e9e:	18e2      	adds	r2, r4, r3
10005ea0:	4253      	negs	r3, r2
10005ea2:	415a      	adcs	r2, r3
10005ea4:	2380      	movs	r3, #128	; 0x80
10005ea6:	015b      	lsls	r3, r3, #5
10005ea8:	469c      	mov	ip, r3
10005eaa:	0312      	lsls	r2, r2, #12
10005eac:	4b17      	ldr	r3, [pc, #92]	; (10005f0c <pll_init+0xa8>)
10005eae:	4462      	add	r2, ip
10005eb0:	601a      	str	r2, [r3, #0]
10005eb2:	4b17      	ldr	r3, [pc, #92]	; (10005f10 <pll_init+0xac>)
10005eb4:	601a      	str	r2, [r3, #0]
10005eb6:	0011      	movs	r1, r2
10005eb8:	68ab      	ldr	r3, [r5, #8]
10005eba:	4399      	bics	r1, r3
10005ebc:	d1fb      	bne.n	10005eb6 <pll_init+0x52>
10005ebe:	22c0      	movs	r2, #192	; 0xc0
10005ec0:	1d23      	adds	r3, r4, #4
10005ec2:	0192      	lsls	r2, r2, #6
10005ec4:	431a      	orrs	r2, r3
10005ec6:	2321      	movs	r3, #33	; 0x21
10005ec8:	6026      	str	r6, [r4, #0]
10005eca:	60a0      	str	r0, [r4, #8]
10005ecc:	6013      	str	r3, [r2, #0]
10005ece:	6823      	ldr	r3, [r4, #0]
10005ed0:	2b00      	cmp	r3, #0
10005ed2:	dafc      	bge.n	10005ece <pll_init+0x6a>
10005ed4:	2308      	movs	r3, #8
10005ed6:	60e7      	str	r7, [r4, #12]
10005ed8:	6013      	str	r3, [r2, #0]
10005eda:	bc80      	pop	{r7}
10005edc:	46b8      	mov	r8, r7
10005ede:	bdf0      	pop	{r4, r5, r6, r7, pc}
10005ee0:	233f      	movs	r3, #63	; 0x3f
10005ee2:	6822      	ldr	r2, [r4, #0]
10005ee4:	4013      	ands	r3, r2
10005ee6:	42b3      	cmp	r3, r6
10005ee8:	d1d7      	bne.n	10005e9a <pll_init+0x36>
10005eea:	68a3      	ldr	r3, [r4, #8]
10005eec:	051b      	lsls	r3, r3, #20
10005eee:	0d1b      	lsrs	r3, r3, #20
10005ef0:	4283      	cmp	r3, r0
10005ef2:	d1d2      	bne.n	10005e9a <pll_init+0x36>
10005ef4:	22ee      	movs	r2, #238	; 0xee
10005ef6:	68e3      	ldr	r3, [r4, #12]
10005ef8:	02d2      	lsls	r2, r2, #11
10005efa:	4013      	ands	r3, r2
10005efc:	42bb      	cmp	r3, r7
10005efe:	d1cc      	bne.n	10005e9a <pll_init+0x36>
10005f00:	e7eb      	b.n	10005eda <pll_init+0x76>
10005f02:	46c0      	nop			; (mov r8, r8)
10005f04:	bffd4000 	.word	0xbffd4000
10005f08:	4000c000 	.word	0x4000c000
10005f0c:	4000e000 	.word	0x4000e000
10005f10:	4000f000 	.word	0x4000f000

10005f14 <watchdog_start_tick>:
10005f14:	2380      	movs	r3, #128	; 0x80
10005f16:	4a02      	ldr	r2, [pc, #8]	; (10005f20 <watchdog_start_tick+0xc>)
10005f18:	009b      	lsls	r3, r3, #2
10005f1a:	4303      	orrs	r3, r0
10005f1c:	62d3      	str	r3, [r2, #44]	; 0x2c
10005f1e:	4770      	bx	lr
10005f20:	40058000 	.word	0x40058000

10005f24 <watchdog_reboot>:
10005f24:	b510      	push	{r4, lr}
10005f26:	0014      	movs	r4, r2
10005f28:	2280      	movs	r2, #128	; 0x80
10005f2a:	4b1b      	ldr	r3, [pc, #108]	; (10005f98 <watchdog_reboot+0x74>)
10005f2c:	05d2      	lsls	r2, r2, #23
10005f2e:	601a      	str	r2, [r3, #0]
10005f30:	2800      	cmp	r0, #0
10005f32:	d01a      	beq.n	10005f6a <watchdog_reboot+0x46>
10005f34:	2301      	movs	r3, #1
10005f36:	4a19      	ldr	r2, [pc, #100]	; (10005f9c <watchdog_reboot+0x78>)
10005f38:	4318      	orrs	r0, r3
10005f3a:	4b19      	ldr	r3, [pc, #100]	; (10005fa0 <watchdog_reboot+0x7c>)
10005f3c:	61da      	str	r2, [r3, #28]
10005f3e:	4a19      	ldr	r2, [pc, #100]	; (10005fa4 <watchdog_reboot+0x80>)
10005f40:	4042      	eors	r2, r0
10005f42:	621a      	str	r2, [r3, #32]
10005f44:	6259      	str	r1, [r3, #36]	; 0x24
10005f46:	6298      	str	r0, [r3, #40]	; 0x28
10005f48:	2280      	movs	r2, #128	; 0x80
10005f4a:	4b13      	ldr	r3, [pc, #76]	; (10005f98 <watchdog_reboot+0x74>)
10005f4c:	05d2      	lsls	r2, r2, #23
10005f4e:	601a      	str	r2, [r3, #0]
10005f50:	4915      	ldr	r1, [pc, #84]	; (10005fa8 <watchdog_reboot+0x84>)
10005f52:	4a16      	ldr	r2, [pc, #88]	; (10005fac <watchdog_reboot+0x88>)
10005f54:	6011      	str	r1, [r2, #0]
10005f56:	22e0      	movs	r2, #224	; 0xe0
10005f58:	04d2      	lsls	r2, r2, #19
10005f5a:	601a      	str	r2, [r3, #0]
10005f5c:	2c00      	cmp	r4, #0
10005f5e:	d107      	bne.n	10005f70 <watchdog_reboot+0x4c>
10005f60:	2280      	movs	r2, #128	; 0x80
10005f62:	4b13      	ldr	r3, [pc, #76]	; (10005fb0 <watchdog_reboot+0x8c>)
10005f64:	0612      	lsls	r2, r2, #24
10005f66:	601a      	str	r2, [r3, #0]
10005f68:	bd10      	pop	{r4, pc}
10005f6a:	4b0d      	ldr	r3, [pc, #52]	; (10005fa0 <watchdog_reboot+0x7c>)
10005f6c:	61d8      	str	r0, [r3, #28]
10005f6e:	e7eb      	b.n	10005f48 <watchdog_reboot+0x24>
10005f70:	0163      	lsls	r3, r4, #5
10005f72:	1b1b      	subs	r3, r3, r4
10005f74:	009a      	lsls	r2, r3, #2
10005f76:	2380      	movs	r3, #128	; 0x80
10005f78:	1912      	adds	r2, r2, r4
10005f7a:	0112      	lsls	r2, r2, #4
10005f7c:	045b      	lsls	r3, r3, #17
10005f7e:	429a      	cmp	r2, r3
10005f80:	d300      	bcc.n	10005f84 <watchdog_reboot+0x60>
10005f82:	4a0c      	ldr	r2, [pc, #48]	; (10005fb4 <watchdog_reboot+0x90>)
10005f84:	4b0c      	ldr	r3, [pc, #48]	; (10005fb8 <watchdog_reboot+0x94>)
10005f86:	601a      	str	r2, [r3, #0]
10005f88:	4b05      	ldr	r3, [pc, #20]	; (10005fa0 <watchdog_reboot+0x7c>)
10005f8a:	605a      	str	r2, [r3, #4]
10005f8c:	2280      	movs	r2, #128	; 0x80
10005f8e:	4b08      	ldr	r3, [pc, #32]	; (10005fb0 <watchdog_reboot+0x8c>)
10005f90:	05d2      	lsls	r2, r2, #23
10005f92:	601a      	str	r2, [r3, #0]
10005f94:	e7e8      	b.n	10005f68 <watchdog_reboot+0x44>
10005f96:	46c0      	nop			; (mov r8, r8)
10005f98:	4005b000 	.word	0x4005b000
10005f9c:	b007c0d3 	.word	0xb007c0d3
10005fa0:	40058000 	.word	0x40058000
10005fa4:	4ff83f2d 	.word	0x4ff83f2d
10005fa8:	0001fffc 	.word	0x0001fffc
10005fac:	40012008 	.word	0x40012008
10005fb0:	4005a000 	.word	0x4005a000
10005fb4:	00ffffff 	.word	0x00ffffff
10005fb8:	20009e80 	.word	0x20009e80

10005fbc <xosc_init>:
10005fbc:	23aa      	movs	r3, #170	; 0xaa
10005fbe:	4a06      	ldr	r2, [pc, #24]	; (10005fd8 <xosc_init+0x1c>)
10005fc0:	011b      	lsls	r3, r3, #4
10005fc2:	6013      	str	r3, [r2, #0]
10005fc4:	232f      	movs	r3, #47	; 0x2f
10005fc6:	4905      	ldr	r1, [pc, #20]	; (10005fdc <xosc_init+0x20>)
10005fc8:	60d3      	str	r3, [r2, #12]
10005fca:	4b05      	ldr	r3, [pc, #20]	; (10005fe0 <xosc_init+0x24>)
10005fcc:	6019      	str	r1, [r3, #0]
10005fce:	6853      	ldr	r3, [r2, #4]
10005fd0:	2b00      	cmp	r3, #0
10005fd2:	dafc      	bge.n	10005fce <xosc_init+0x12>
10005fd4:	4770      	bx	lr
10005fd6:	46c0      	nop			; (mov r8, r8)
10005fd8:	40024000 	.word	0x40024000
10005fdc:	00fab000 	.word	0x00fab000
10005fe0:	40026000 	.word	0x40026000

10005fe4 <_out_null>:
10005fe4:	4770      	bx	lr
10005fe6:	46c0      	nop			; (mov r8, r8)

10005fe8 <_out_rev>:
10005fe8:	b5f8      	push	{r3, r4, r5, r6, r7, lr}
10005fea:	4657      	mov	r7, sl
10005fec:	464e      	mov	r6, r9
10005fee:	4645      	mov	r5, r8
10005ff0:	46de      	mov	lr, fp
10005ff2:	b5e0      	push	{r5, r6, r7, lr}
10005ff4:	4699      	mov	r9, r3
10005ff6:	9b0a      	ldr	r3, [sp, #40]	; 0x28
10005ff8:	0007      	movs	r7, r0
10005ffa:	469a      	mov	sl, r3
10005ffc:	9b0d      	ldr	r3, [sp, #52]	; 0x34
10005ffe:	4688      	mov	r8, r1
10006000:	4693      	mov	fp, r2
10006002:	0015      	movs	r5, r2
10006004:	9e0b      	ldr	r6, [sp, #44]	; 0x2c
10006006:	079b      	lsls	r3, r3, #30
10006008:	d110      	bne.n	1000602c <_out_rev+0x44>
1000600a:	9b0c      	ldr	r3, [sp, #48]	; 0x30
1000600c:	429e      	cmp	r6, r3
1000600e:	d20d      	bcs.n	1000602c <_out_rev+0x44>
10006010:	1b9d      	subs	r5, r3, r6
10006012:	0014      	movs	r4, r2
10006014:	000e      	movs	r6, r1
10006016:	445d      	add	r5, fp
10006018:	0022      	movs	r2, r4
1000601a:	464b      	mov	r3, r9
1000601c:	3401      	adds	r4, #1
1000601e:	0031      	movs	r1, r6
10006020:	2020      	movs	r0, #32
10006022:	47b8      	blx	r7
10006024:	42a5      	cmp	r5, r4
10006026:	d1f7      	bne.n	10006018 <_out_rev+0x30>
10006028:	46b0      	mov	r8, r6
1000602a:	9e0b      	ldr	r6, [sp, #44]	; 0x2c
1000602c:	2e00      	cmp	r6, #0
1000602e:	d027      	beq.n	10006080 <_out_rev+0x98>
10006030:	4644      	mov	r4, r8
10006032:	1975      	adds	r5, r6, r5
10006034:	4653      	mov	r3, sl
10006036:	1baa      	subs	r2, r5, r6
10006038:	3e01      	subs	r6, #1
1000603a:	5d98      	ldrb	r0, [r3, r6]
1000603c:	0021      	movs	r1, r4
1000603e:	464b      	mov	r3, r9
10006040:	47b8      	blx	r7
10006042:	2e00      	cmp	r6, #0
10006044:	d1f6      	bne.n	10006034 <_out_rev+0x4c>
10006046:	0023      	movs	r3, r4
10006048:	002c      	movs	r4, r5
1000604a:	4698      	mov	r8, r3
1000604c:	9b0d      	ldr	r3, [sp, #52]	; 0x34
1000604e:	079b      	lsls	r3, r3, #30
10006050:	d50f      	bpl.n	10006072 <_out_rev+0x8a>
10006052:	465b      	mov	r3, fp
10006054:	1ae5      	subs	r5, r4, r3
10006056:	9b0c      	ldr	r3, [sp, #48]	; 0x30
10006058:	42ab      	cmp	r3, r5
1000605a:	d90a      	bls.n	10006072 <_out_rev+0x8a>
1000605c:	4646      	mov	r6, r8
1000605e:	4698      	mov	r8, r3
10006060:	0022      	movs	r2, r4
10006062:	464b      	mov	r3, r9
10006064:	0031      	movs	r1, r6
10006066:	2020      	movs	r0, #32
10006068:	3501      	adds	r5, #1
1000606a:	47b8      	blx	r7
1000606c:	3401      	adds	r4, #1
1000606e:	45a8      	cmp	r8, r5
10006070:	d8f6      	bhi.n	10006060 <_out_rev+0x78>
10006072:	0020      	movs	r0, r4
10006074:	bcf0      	pop	{r4, r5, r6, r7}
10006076:	46bb      	mov	fp, r7
10006078:	46b2      	mov	sl, r6
1000607a:	46a9      	mov	r9, r5
1000607c:	46a0      	mov	r8, r4
1000607e:	bdf8      	pop	{r3, r4, r5, r6, r7, pc}
10006080:	002c      	movs	r4, r5
10006082:	e7e3      	b.n	1000604c <_out_rev+0x64>

10006084 <_ntoa_format>:
10006084:	b5f0      	push	{r4, r5, r6, r7, lr}
10006086:	464f      	mov	r7, r9
10006088:	4646      	mov	r6, r8
1000608a:	46d6      	mov	lr, sl
1000608c:	b5c0      	push	{r6, r7, lr}
1000608e:	b084      	sub	sp, #16
10006090:	4698      	mov	r8, r3
10006092:	ab0e      	add	r3, sp, #56	; 0x38
10006094:	781b      	ldrb	r3, [r3, #0]
10006096:	9f12      	ldr	r7, [sp, #72]	; 0x48
10006098:	4699      	mov	r9, r3
1000609a:	4694      	mov	ip, r2
1000609c:	9c0d      	ldr	r4, [sp, #52]	; 0x34
1000609e:	9b10      	ldr	r3, [sp, #64]	; 0x40
100060a0:	9e11      	ldr	r6, [sp, #68]	; 0x44
100060a2:	07ba      	lsls	r2, r7, #30
100060a4:	d425      	bmi.n	100060f2 <_ntoa_format+0x6e>
100060a6:	2e00      	cmp	r6, #0
100060a8:	d14b      	bne.n	10006142 <_ntoa_format+0xbe>
100060aa:	429c      	cmp	r4, r3
100060ac:	d300      	bcc.n	100060b0 <_ntoa_format+0x2c>
100060ae:	e0bf      	b.n	10006230 <_ntoa_format+0x1ac>
100060b0:	2201      	movs	r2, #1
100060b2:	403a      	ands	r2, r7
100060b4:	4692      	mov	sl, r2
100060b6:	2c1f      	cmp	r4, #31
100060b8:	d900      	bls.n	100060bc <_ntoa_format+0x38>
100060ba:	e0b8      	b.n	1000622e <_ntoa_format+0x1aa>
100060bc:	9a0c      	ldr	r2, [sp, #48]	; 0x30
100060be:	1e55      	subs	r5, r2, #1
100060c0:	2230      	movs	r2, #48	; 0x30
100060c2:	e001      	b.n	100060c8 <_ntoa_format+0x44>
100060c4:	2c20      	cmp	r4, #32
100060c6:	d003      	beq.n	100060d0 <_ntoa_format+0x4c>
100060c8:	3401      	adds	r4, #1
100060ca:	552a      	strb	r2, [r5, r4]
100060cc:	42a3      	cmp	r3, r4
100060ce:	d8f9      	bhi.n	100060c4 <_ntoa_format+0x40>
100060d0:	4652      	mov	r2, sl
100060d2:	2a00      	cmp	r2, #0
100060d4:	d00d      	beq.n	100060f2 <_ntoa_format+0x6e>
100060d6:	42a6      	cmp	r6, r4
100060d8:	d90b      	bls.n	100060f2 <_ntoa_format+0x6e>
100060da:	2c20      	cmp	r4, #32
100060dc:	d044      	beq.n	10006168 <_ntoa_format+0xe4>
100060de:	9a0c      	ldr	r2, [sp, #48]	; 0x30
100060e0:	1e55      	subs	r5, r2, #1
100060e2:	2230      	movs	r2, #48	; 0x30
100060e4:	e001      	b.n	100060ea <_ntoa_format+0x66>
100060e6:	2c20      	cmp	r4, #32
100060e8:	d03e      	beq.n	10006168 <_ntoa_format+0xe4>
100060ea:	3401      	adds	r4, #1
100060ec:	552a      	strb	r2, [r5, r4]
100060ee:	42b4      	cmp	r4, r6
100060f0:	d1f9      	bne.n	100060e6 <_ntoa_format+0x62>
100060f2:	06fa      	lsls	r2, r7, #27
100060f4:	d54d      	bpl.n	10006192 <_ntoa_format+0x10e>
100060f6:	057a      	lsls	r2, r7, #21
100060f8:	d43f      	bmi.n	1000617a <_ntoa_format+0xf6>
100060fa:	2c00      	cmp	r4, #0
100060fc:	d139      	bne.n	10006172 <_ntoa_format+0xee>
100060fe:	9b0f      	ldr	r3, [sp, #60]	; 0x3c
10006100:	2b10      	cmp	r3, #16
10006102:	d100      	bne.n	10006106 <_ntoa_format+0x82>
10006104:	e079      	b.n	100061fa <_ntoa_format+0x176>
10006106:	9b0f      	ldr	r3, [sp, #60]	; 0x3c
10006108:	2b02      	cmp	r3, #2
1000610a:	d100      	bne.n	1000610e <_ntoa_format+0x8a>
1000610c:	e08a      	b.n	10006224 <_ntoa_format+0x1a0>
1000610e:	2330      	movs	r3, #48	; 0x30
10006110:	9a0c      	ldr	r2, [sp, #48]	; 0x30
10006112:	2401      	movs	r4, #1
10006114:	7013      	strb	r3, [r2, #0]
10006116:	464b      	mov	r3, r9
10006118:	2b00      	cmp	r3, #0
1000611a:	d03f      	beq.n	1000619c <_ntoa_format+0x118>
1000611c:	232d      	movs	r3, #45	; 0x2d
1000611e:	9a0c      	ldr	r2, [sp, #48]	; 0x30
10006120:	5513      	strb	r3, [r2, r4]
10006122:	3401      	adds	r4, #1
10006124:	9b0c      	ldr	r3, [sp, #48]	; 0x30
10006126:	4662      	mov	r2, ip
10006128:	9300      	str	r3, [sp, #0]
1000612a:	9703      	str	r7, [sp, #12]
1000612c:	4643      	mov	r3, r8
1000612e:	9602      	str	r6, [sp, #8]
10006130:	9401      	str	r4, [sp, #4]
10006132:	f7ff ff59 	bl	10005fe8 <_out_rev>
10006136:	b004      	add	sp, #16
10006138:	bce0      	pop	{r5, r6, r7}
1000613a:	46ba      	mov	sl, r7
1000613c:	46b1      	mov	r9, r6
1000613e:	46a8      	mov	r8, r5
10006140:	bdf0      	pop	{r4, r5, r6, r7, pc}
10006142:	2201      	movs	r2, #1
10006144:	0015      	movs	r5, r2
10006146:	403d      	ands	r5, r7
10006148:	46aa      	mov	sl, r5
1000614a:	423a      	tst	r2, r7
1000614c:	d02f      	beq.n	100061ae <_ntoa_format+0x12a>
1000614e:	464a      	mov	r2, r9
10006150:	2a00      	cmp	r2, #0
10006152:	d102      	bne.n	1000615a <_ntoa_format+0xd6>
10006154:	320c      	adds	r2, #12
10006156:	423a      	tst	r2, r7
10006158:	d000      	beq.n	1000615c <_ntoa_format+0xd8>
1000615a:	3e01      	subs	r6, #1
1000615c:	429c      	cmp	r4, r3
1000615e:	d2ba      	bcs.n	100060d6 <_ntoa_format+0x52>
10006160:	2c1f      	cmp	r4, #31
10006162:	d9ab      	bls.n	100060bc <_ntoa_format+0x38>
10006164:	2e20      	cmp	r6, #32
10006166:	d927      	bls.n	100061b8 <_ntoa_format+0x134>
10006168:	2420      	movs	r4, #32
1000616a:	06fa      	lsls	r2, r7, #27
1000616c:	d5da      	bpl.n	10006124 <_ntoa_format+0xa0>
1000616e:	057a      	lsls	r2, r7, #21
10006170:	d403      	bmi.n	1000617a <_ntoa_format+0xf6>
10006172:	42a3      	cmp	r3, r4
10006174:	d02d      	beq.n	100061d2 <_ntoa_format+0x14e>
10006176:	42a6      	cmp	r6, r4
10006178:	d02b      	beq.n	100061d2 <_ntoa_format+0x14e>
1000617a:	9b0f      	ldr	r3, [sp, #60]	; 0x3c
1000617c:	2b10      	cmp	r3, #16
1000617e:	d032      	beq.n	100061e6 <_ntoa_format+0x162>
10006180:	2b02      	cmp	r3, #2
10006182:	d020      	beq.n	100061c6 <_ntoa_format+0x142>
10006184:	2c20      	cmp	r4, #32
10006186:	d0cd      	beq.n	10006124 <_ntoa_format+0xa0>
10006188:	2230      	movs	r2, #48	; 0x30
1000618a:	9b0c      	ldr	r3, [sp, #48]	; 0x30
1000618c:	191b      	adds	r3, r3, r4
1000618e:	701a      	strb	r2, [r3, #0]
10006190:	3401      	adds	r4, #1
10006192:	2c20      	cmp	r4, #32
10006194:	d0c6      	beq.n	10006124 <_ntoa_format+0xa0>
10006196:	464b      	mov	r3, r9
10006198:	2b00      	cmp	r3, #0
1000619a:	d1bf      	bne.n	1000611c <_ntoa_format+0x98>
1000619c:	077b      	lsls	r3, r7, #29
1000619e:	d40d      	bmi.n	100061bc <_ntoa_format+0x138>
100061a0:	073b      	lsls	r3, r7, #28
100061a2:	d5bf      	bpl.n	10006124 <_ntoa_format+0xa0>
100061a4:	2320      	movs	r3, #32
100061a6:	9a0c      	ldr	r2, [sp, #48]	; 0x30
100061a8:	5513      	strb	r3, [r2, r4]
100061aa:	3401      	adds	r4, #1
100061ac:	e7ba      	b.n	10006124 <_ntoa_format+0xa0>
100061ae:	429c      	cmp	r4, r3
100061b0:	d29f      	bcs.n	100060f2 <_ntoa_format+0x6e>
100061b2:	2c1f      	cmp	r4, #31
100061b4:	d800      	bhi.n	100061b8 <_ntoa_format+0x134>
100061b6:	e781      	b.n	100060bc <_ntoa_format+0x38>
100061b8:	2420      	movs	r4, #32
100061ba:	e79a      	b.n	100060f2 <_ntoa_format+0x6e>
100061bc:	232b      	movs	r3, #43	; 0x2b
100061be:	9a0c      	ldr	r2, [sp, #48]	; 0x30
100061c0:	5513      	strb	r3, [r2, r4]
100061c2:	3401      	adds	r4, #1
100061c4:	e7ae      	b.n	10006124 <_ntoa_format+0xa0>
100061c6:	2c20      	cmp	r4, #32
100061c8:	d0ac      	beq.n	10006124 <_ntoa_format+0xa0>
100061ca:	9b0c      	ldr	r3, [sp, #48]	; 0x30
100061cc:	191b      	adds	r3, r3, r4
100061ce:	3401      	adds	r4, #1
100061d0:	e03a      	b.n	10006248 <_ntoa_format+0x1c4>
100061d2:	1e63      	subs	r3, r4, #1
100061d4:	2c01      	cmp	r4, #1
100061d6:	d092      	beq.n	100060fe <_ntoa_format+0x7a>
100061d8:	9a0f      	ldr	r2, [sp, #60]	; 0x3c
100061da:	2a10      	cmp	r2, #16
100061dc:	d02a      	beq.n	10006234 <_ntoa_format+0x1b0>
100061de:	2a02      	cmp	r2, #2
100061e0:	d02f      	beq.n	10006242 <_ntoa_format+0x1be>
100061e2:	001c      	movs	r4, r3
100061e4:	e7d0      	b.n	10006188 <_ntoa_format+0x104>
100061e6:	06bb      	lsls	r3, r7, #26
100061e8:	d40e      	bmi.n	10006208 <_ntoa_format+0x184>
100061ea:	2c20      	cmp	r4, #32
100061ec:	d09a      	beq.n	10006124 <_ntoa_format+0xa0>
100061ee:	9b0c      	ldr	r3, [sp, #48]	; 0x30
100061f0:	191a      	adds	r2, r3, r4
100061f2:	3401      	adds	r4, #1
100061f4:	2378      	movs	r3, #120	; 0x78
100061f6:	7013      	strb	r3, [r2, #0]
100061f8:	e7c4      	b.n	10006184 <_ntoa_format+0x100>
100061fa:	06bb      	lsls	r3, r7, #26
100061fc:	d40d      	bmi.n	1000621a <_ntoa_format+0x196>
100061fe:	2378      	movs	r3, #120	; 0x78
10006200:	9a0c      	ldr	r2, [sp, #48]	; 0x30
10006202:	2401      	movs	r4, #1
10006204:	7013      	strb	r3, [r2, #0]
10006206:	e7bf      	b.n	10006188 <_ntoa_format+0x104>
10006208:	2c20      	cmp	r4, #32
1000620a:	d100      	bne.n	1000620e <_ntoa_format+0x18a>
1000620c:	e78a      	b.n	10006124 <_ntoa_format+0xa0>
1000620e:	2258      	movs	r2, #88	; 0x58
10006210:	9b0c      	ldr	r3, [sp, #48]	; 0x30
10006212:	191b      	adds	r3, r3, r4
10006214:	701a      	strb	r2, [r3, #0]
10006216:	3401      	adds	r4, #1
10006218:	e7b4      	b.n	10006184 <_ntoa_format+0x100>
1000621a:	2358      	movs	r3, #88	; 0x58
1000621c:	9a0c      	ldr	r2, [sp, #48]	; 0x30
1000621e:	2401      	movs	r4, #1
10006220:	7013      	strb	r3, [r2, #0]
10006222:	e7b1      	b.n	10006188 <_ntoa_format+0x104>
10006224:	9a0c      	ldr	r2, [sp, #48]	; 0x30
10006226:	3360      	adds	r3, #96	; 0x60
10006228:	2401      	movs	r4, #1
1000622a:	7013      	strb	r3, [r2, #0]
1000622c:	e7ac      	b.n	10006188 <_ntoa_format+0x104>
1000622e:	2420      	movs	r4, #32
10006230:	2600      	movs	r6, #0
10006232:	e75e      	b.n	100060f2 <_ntoa_format+0x6e>
10006234:	3c02      	subs	r4, #2
10006236:	06ba      	lsls	r2, r7, #26
10006238:	d4e9      	bmi.n	1000620e <_ntoa_format+0x18a>
1000623a:	9a0c      	ldr	r2, [sp, #48]	; 0x30
1000623c:	1912      	adds	r2, r2, r4
1000623e:	001c      	movs	r4, r3
10006240:	e7d8      	b.n	100061f4 <_ntoa_format+0x170>
10006242:	9a0c      	ldr	r2, [sp, #48]	; 0x30
10006244:	4692      	mov	sl, r2
10006246:	4453      	add	r3, sl
10006248:	2262      	movs	r2, #98	; 0x62
1000624a:	701a      	strb	r2, [r3, #0]
1000624c:	e79a      	b.n	10006184 <_ntoa_format+0x100>
1000624e:	46c0      	nop			; (mov r8, r8)

10006250 <_out_char>:
10006250:	b510      	push	{r4, lr}
10006252:	2800      	cmp	r0, #0
10006254:	d100      	bne.n	10006258 <_out_char+0x8>
10006256:	bd10      	pop	{r4, pc}
10006258:	f002 f9b4 	bl	100085c4 <__wrap_putchar>
1000625c:	e7fb      	b.n	10006256 <_out_char+0x6>
1000625e:	46c0      	nop			; (mov r8, r8)

10006260 <_out_fct>:
10006260:	000b      	movs	r3, r1
10006262:	b510      	push	{r4, lr}
10006264:	2800      	cmp	r0, #0
10006266:	d002      	beq.n	1000626e <_out_fct+0xe>
10006268:	6849      	ldr	r1, [r1, #4]
1000626a:	681b      	ldr	r3, [r3, #0]
1000626c:	4798      	blx	r3
1000626e:	bd10      	pop	{r4, pc}

10006270 <_etoa>:
10006270:	b5f0      	push	{r4, r5, r6, r7, lr}
10006272:	46de      	mov	lr, fp
10006274:	4657      	mov	r7, sl
10006276:	464e      	mov	r6, r9
10006278:	4645      	mov	r5, r8
1000627a:	b5e0      	push	{r5, r6, r7, lr}
1000627c:	b09b      	sub	sp, #108	; 0x6c
1000627e:	469b      	mov	fp, r3
10006280:	9b24      	ldr	r3, [sp, #144]	; 0x90
10006282:	4689      	mov	r9, r1
10006284:	4698      	mov	r8, r3
10006286:	9b25      	ldr	r3, [sp, #148]	; 0x94
10006288:	900b      	str	r0, [sp, #44]	; 0x2c
1000628a:	920c      	str	r2, [sp, #48]	; 0x30
1000628c:	4640      	mov	r0, r8
1000628e:	4642      	mov	r2, r8
10006290:	0019      	movs	r1, r3
10006292:	469a      	mov	sl, r3
10006294:	f001 fcbb 	bl	10007c0e <__wrap___aeabi_dcmpun>
10006298:	2800      	cmp	r0, #0
1000629a:	d000      	beq.n	1000629e <_etoa+0x2e>
1000629c:	e0d8      	b.n	10006450 <_etoa+0x1e0>
1000629e:	2201      	movs	r2, #1
100062a0:	4640      	mov	r0, r8
100062a2:	4651      	mov	r1, sl
100062a4:	4b77      	ldr	r3, [pc, #476]	; (10006484 <_etoa+0x214>)
100062a6:	4252      	negs	r2, r2
100062a8:	f001 fcac 	bl	10007c04 <__wrap___aeabi_dcmpgt>
100062ac:	2800      	cmp	r0, #0
100062ae:	d000      	beq.n	100062b2 <_etoa+0x42>
100062b0:	e0ce      	b.n	10006450 <_etoa+0x1e0>
100062b2:	2201      	movs	r2, #1
100062b4:	4640      	mov	r0, r8
100062b6:	4651      	mov	r1, sl
100062b8:	4b73      	ldr	r3, [pc, #460]	; (10006488 <_etoa+0x218>)
100062ba:	4252      	negs	r2, r2
100062bc:	f001 fc8c 	bl	10007bd8 <__wrap___aeabi_dcmplt>
100062c0:	2800      	cmp	r0, #0
100062c2:	d000      	beq.n	100062c6 <_etoa+0x56>
100062c4:	e0c4      	b.n	10006450 <_etoa+0x1e0>
100062c6:	2200      	movs	r2, #0
100062c8:	2300      	movs	r3, #0
100062ca:	4640      	mov	r0, r8
100062cc:	4651      	mov	r1, sl
100062ce:	f001 fc83 	bl	10007bd8 <__wrap___aeabi_dcmplt>
100062d2:	2800      	cmp	r0, #0
100062d4:	d000      	beq.n	100062d8 <_etoa+0x68>
100062d6:	e1b9      	b.n	1000664c <_etoa+0x3dc>
100062d8:	4642      	mov	r2, r8
100062da:	4653      	mov	r3, sl
100062dc:	920a      	str	r2, [sp, #40]	; 0x28
100062de:	9309      	str	r3, [sp, #36]	; 0x24
100062e0:	2380      	movs	r3, #128	; 0x80
100062e2:	9a28      	ldr	r2, [sp, #160]	; 0xa0
100062e4:	00db      	lsls	r3, r3, #3
100062e6:	401a      	ands	r2, r3
100062e8:	920e      	str	r2, [sp, #56]	; 0x38
100062ea:	9a28      	ldr	r2, [sp, #160]	; 0xa0
100062ec:	421a      	tst	r2, r3
100062ee:	d101      	bne.n	100062f4 <_etoa+0x84>
100062f0:	2306      	movs	r3, #6
100062f2:	9326      	str	r3, [sp, #152]	; 0x98
100062f4:	9a0a      	ldr	r2, [sp, #40]	; 0x28
100062f6:	9b09      	ldr	r3, [sp, #36]	; 0x24
100062f8:	0016      	movs	r6, r2
100062fa:	4313      	orrs	r3, r2
100062fc:	d000      	beq.n	10006300 <_etoa+0x90>
100062fe:	e0c7      	b.n	10006490 <_etoa+0x220>
10006300:	9b28      	ldr	r3, [sp, #160]	; 0xa0
10006302:	2500      	movs	r5, #0
10006304:	2600      	movs	r6, #0
10006306:	051b      	lsls	r3, r3, #20
10006308:	d400      	bmi.n	1000630c <_etoa+0x9c>
1000630a:	e19b      	b.n	10006644 <_etoa+0x3d4>
1000630c:	2300      	movs	r3, #0
1000630e:	930d      	str	r3, [sp, #52]	; 0x34
10006310:	9a26      	ldr	r2, [sp, #152]	; 0x98
10006312:	9b0d      	ldr	r3, [sp, #52]	; 0x34
10006314:	429a      	cmp	r2, r3
10006316:	dc00      	bgt.n	1000631a <_etoa+0xaa>
10006318:	e19f      	b.n	1000665a <_etoa+0x3ea>
1000631a:	1ad0      	subs	r0, r2, r3
1000631c:	1e43      	subs	r3, r0, #1
1000631e:	9326      	str	r3, [sp, #152]	; 0x98
10006320:	2380      	movs	r3, #128	; 0x80
10006322:	9a28      	ldr	r2, [sp, #160]	; 0xa0
10006324:	00db      	lsls	r3, r3, #3
10006326:	431a      	orrs	r2, r3
10006328:	2300      	movs	r3, #0
1000632a:	2700      	movs	r7, #0
1000632c:	9228      	str	r2, [sp, #160]	; 0xa0
1000632e:	930d      	str	r3, [sp, #52]	; 0x34
10006330:	9b27      	ldr	r3, [sp, #156]	; 0x9c
10006332:	2400      	movs	r4, #0
10006334:	42bb      	cmp	r3, r7
10006336:	d900      	bls.n	1000633a <_etoa+0xca>
10006338:	1bdc      	subs	r4, r3, r7
1000633a:	2302      	movs	r3, #2
1000633c:	9a28      	ldr	r2, [sp, #160]	; 0xa0
1000633e:	401a      	ands	r2, r3
10006340:	920e      	str	r2, [sp, #56]	; 0x38
10006342:	9a28      	ldr	r2, [sp, #160]	; 0xa0
10006344:	4213      	tst	r3, r2
10006346:	d003      	beq.n	10006350 <_etoa+0xe0>
10006348:	427b      	negs	r3, r7
1000634a:	417b      	adcs	r3, r7
1000634c:	425b      	negs	r3, r3
1000634e:	401c      	ands	r4, r3
10006350:	9b0d      	ldr	r3, [sp, #52]	; 0x34
10006352:	2b00      	cmp	r3, #0
10006354:	d007      	beq.n	10006366 <_etoa+0xf6>
10006356:	980a      	ldr	r0, [sp, #40]	; 0x28
10006358:	9909      	ldr	r1, [sp, #36]	; 0x24
1000635a:	002a      	movs	r2, r5
1000635c:	0033      	movs	r3, r6
1000635e:	f001 fbda 	bl	10007b16 <__wrap___aeabi_ddiv>
10006362:	900a      	str	r0, [sp, #40]	; 0x28
10006364:	9109      	str	r1, [sp, #36]	; 0x24
10006366:	2200      	movs	r2, #0
10006368:	2300      	movs	r3, #0
1000636a:	4640      	mov	r0, r8
1000636c:	4651      	mov	r1, sl
1000636e:	f001 fc33 	bl	10007bd8 <__wrap___aeabi_dcmplt>
10006372:	2800      	cmp	r0, #0
10006374:	d005      	beq.n	10006382 <_etoa+0x112>
10006376:	2080      	movs	r0, #128	; 0x80
10006378:	0600      	lsls	r0, r0, #24
1000637a:	4684      	mov	ip, r0
1000637c:	9909      	ldr	r1, [sp, #36]	; 0x24
1000637e:	4461      	add	r1, ip
10006380:	9109      	str	r1, [sp, #36]	; 0x24
10006382:	9a28      	ldr	r2, [sp, #160]	; 0xa0
10006384:	4b41      	ldr	r3, [pc, #260]	; (1000648c <_etoa+0x21c>)
10006386:	9d0b      	ldr	r5, [sp, #44]	; 0x2c
10006388:	4013      	ands	r3, r2
1000638a:	9304      	str	r3, [sp, #16]
1000638c:	9b26      	ldr	r3, [sp, #152]	; 0x98
1000638e:	9a0a      	ldr	r2, [sp, #40]	; 0x28
10006390:	9302      	str	r3, [sp, #8]
10006392:	9b09      	ldr	r3, [sp, #36]	; 0x24
10006394:	9403      	str	r4, [sp, #12]
10006396:	9200      	str	r2, [sp, #0]
10006398:	9301      	str	r3, [sp, #4]
1000639a:	4649      	mov	r1, r9
1000639c:	465b      	mov	r3, fp
1000639e:	0028      	movs	r0, r5
100063a0:	9a0c      	ldr	r2, [sp, #48]	; 0x30
100063a2:	f000 f98b 	bl	100066bc <_ftoa>
100063a6:	0004      	movs	r4, r0
100063a8:	2f00      	cmp	r7, #0
100063aa:	d062      	beq.n	10006472 <_etoa+0x202>
100063ac:	9b28      	ldr	r3, [sp, #160]	; 0xa0
100063ae:	0022      	movs	r2, r4
100063b0:	0698      	lsls	r0, r3, #26
100063b2:	231f      	movs	r3, #31
100063b4:	17c0      	asrs	r0, r0, #31
100063b6:	4398      	bics	r0, r3
100063b8:	1c63      	adds	r3, r4, #1
100063ba:	4698      	mov	r8, r3
100063bc:	4649      	mov	r1, r9
100063be:	465b      	mov	r3, fp
100063c0:	3065      	adds	r0, #101	; 0x65
100063c2:	47a8      	blx	r5
100063c4:	9b0d      	ldr	r3, [sp, #52]	; 0x34
100063c6:	2500      	movs	r5, #0
100063c8:	17da      	asrs	r2, r3, #31
100063ca:	189c      	adds	r4, r3, r2
100063cc:	0fdb      	lsrs	r3, r3, #31
100063ce:	469a      	mov	sl, r3
100063d0:	4054      	eors	r4, r2
100063d2:	3f01      	subs	r7, #1
100063d4:	e001      	b.n	100063da <_etoa+0x16a>
100063d6:	2d20      	cmp	r5, #32
100063d8:	d013      	beq.n	10006402 <_etoa+0x192>
100063da:	aa0a      	add	r2, sp, #40	; 0x28
100063dc:	4694      	mov	ip, r2
100063de:	231f      	movs	r3, #31
100063e0:	0020      	movs	r0, r4
100063e2:	4463      	add	r3, ip
100063e4:	210a      	movs	r1, #10
100063e6:	3501      	adds	r5, #1
100063e8:	195e      	adds	r6, r3, r5
100063ea:	f001 f93f 	bl	1000766c <__wrap___aeabi_uidiv>
100063ee:	3130      	adds	r1, #48	; 0x30
100063f0:	7031      	strb	r1, [r6, #0]
100063f2:	0020      	movs	r0, r4
100063f4:	210a      	movs	r1, #10
100063f6:	f001 f939 	bl	1000766c <__wrap___aeabi_uidiv>
100063fa:	0026      	movs	r6, r4
100063fc:	0004      	movs	r4, r0
100063fe:	2e09      	cmp	r6, #9
10006400:	d8e9      	bhi.n	100063d6 <_etoa+0x166>
10006402:	2305      	movs	r3, #5
10006404:	9306      	str	r3, [sp, #24]
10006406:	2300      	movs	r3, #0
10006408:	9304      	str	r3, [sp, #16]
1000640a:	330a      	adds	r3, #10
1000640c:	9303      	str	r3, [sp, #12]
1000640e:	4653      	mov	r3, sl
10006410:	9705      	str	r7, [sp, #20]
10006412:	9f0b      	ldr	r7, [sp, #44]	; 0x2c
10006414:	9302      	str	r3, [sp, #8]
10006416:	ab12      	add	r3, sp, #72	; 0x48
10006418:	9300      	str	r3, [sp, #0]
1000641a:	4642      	mov	r2, r8
1000641c:	465b      	mov	r3, fp
1000641e:	4649      	mov	r1, r9
10006420:	0038      	movs	r0, r7
10006422:	9501      	str	r5, [sp, #4]
10006424:	f7ff fe2e 	bl	10006084 <_ntoa_format>
10006428:	9b0e      	ldr	r3, [sp, #56]	; 0x38
1000642a:	0004      	movs	r4, r0
1000642c:	2b00      	cmp	r3, #0
1000642e:	d020      	beq.n	10006472 <_etoa+0x202>
10006430:	9b0c      	ldr	r3, [sp, #48]	; 0x30
10006432:	1ac5      	subs	r5, r0, r3
10006434:	9b27      	ldr	r3, [sp, #156]	; 0x9c
10006436:	42ab      	cmp	r3, r5
10006438:	d91b      	bls.n	10006472 <_etoa+0x202>
1000643a:	001e      	movs	r6, r3
1000643c:	0022      	movs	r2, r4
1000643e:	465b      	mov	r3, fp
10006440:	4649      	mov	r1, r9
10006442:	2020      	movs	r0, #32
10006444:	3501      	adds	r5, #1
10006446:	47b8      	blx	r7
10006448:	3401      	adds	r4, #1
1000644a:	42ae      	cmp	r6, r5
1000644c:	d8f6      	bhi.n	1000643c <_etoa+0x1cc>
1000644e:	e010      	b.n	10006472 <_etoa+0x202>
10006450:	9b28      	ldr	r3, [sp, #160]	; 0xa0
10006452:	4642      	mov	r2, r8
10006454:	9304      	str	r3, [sp, #16]
10006456:	9b27      	ldr	r3, [sp, #156]	; 0x9c
10006458:	4649      	mov	r1, r9
1000645a:	9303      	str	r3, [sp, #12]
1000645c:	9b26      	ldr	r3, [sp, #152]	; 0x98
1000645e:	980b      	ldr	r0, [sp, #44]	; 0x2c
10006460:	9302      	str	r3, [sp, #8]
10006462:	4653      	mov	r3, sl
10006464:	9200      	str	r2, [sp, #0]
10006466:	9301      	str	r3, [sp, #4]
10006468:	465b      	mov	r3, fp
1000646a:	9a0c      	ldr	r2, [sp, #48]	; 0x30
1000646c:	f000 f926 	bl	100066bc <_ftoa>
10006470:	0004      	movs	r4, r0
10006472:	0020      	movs	r0, r4
10006474:	b01b      	add	sp, #108	; 0x6c
10006476:	bcf0      	pop	{r4, r5, r6, r7}
10006478:	46bb      	mov	fp, r7
1000647a:	46b2      	mov	sl, r6
1000647c:	46a9      	mov	r9, r5
1000647e:	46a0      	mov	r8, r4
10006480:	bdf0      	pop	{r4, r5, r6, r7, pc}
10006482:	46c0      	nop			; (mov r8, r8)
10006484:	7fefffff 	.word	0x7fefffff
10006488:	ffefffff 	.word	0xffefffff
1000648c:	fffff7ff 	.word	0xfffff7ff
10006490:	4b73      	ldr	r3, [pc, #460]	; (10006660 <_etoa+0x3f0>)
10006492:	9f09      	ldr	r7, [sp, #36]	; 0x24
10006494:	469c      	mov	ip, r3
10006496:	0078      	lsls	r0, r7, #1
10006498:	0d40      	lsrs	r0, r0, #21
1000649a:	4460      	add	r0, ip
1000649c:	f001 fbca 	bl	10007c34 <__wrap___aeabi_i2d>
100064a0:	4a70      	ldr	r2, [pc, #448]	; (10006664 <_etoa+0x3f4>)
100064a2:	4b71      	ldr	r3, [pc, #452]	; (10006668 <_etoa+0x3f8>)
100064a4:	f001 fb55 	bl	10007b52 <__wrap___aeabi_dmul>
100064a8:	4a70      	ldr	r2, [pc, #448]	; (1000666c <_etoa+0x3fc>)
100064aa:	4b71      	ldr	r3, [pc, #452]	; (10006670 <_etoa+0x400>)
100064ac:	f001 fb2a 	bl	10007b04 <__wrap___aeabi_dadd>
100064b0:	033b      	lsls	r3, r7, #12
100064b2:	4a70      	ldr	r2, [pc, #448]	; (10006674 <_etoa+0x404>)
100064b4:	0b1b      	lsrs	r3, r3, #12
100064b6:	431a      	orrs	r2, r3
100064b8:	0004      	movs	r4, r0
100064ba:	000d      	movs	r5, r1
100064bc:	0030      	movs	r0, r6
100064be:	0011      	movs	r1, r2
100064c0:	4b6d      	ldr	r3, [pc, #436]	; (10006678 <_etoa+0x408>)
100064c2:	2200      	movs	r2, #0
100064c4:	f001 fb15 	bl	10007af2 <__wrap___aeabi_dsub>
100064c8:	4a6c      	ldr	r2, [pc, #432]	; (1000667c <_etoa+0x40c>)
100064ca:	4b6d      	ldr	r3, [pc, #436]	; (10006680 <_etoa+0x410>)
100064cc:	f001 fb41 	bl	10007b52 <__wrap___aeabi_dmul>
100064d0:	0002      	movs	r2, r0
100064d2:	000b      	movs	r3, r1
100064d4:	0020      	movs	r0, r4
100064d6:	0029      	movs	r1, r5
100064d8:	f001 fb14 	bl	10007b04 <__wrap___aeabi_dadd>
100064dc:	f001 fbc2 	bl	10007c64 <__wrap___aeabi_d2iz>
100064e0:	900d      	str	r0, [sp, #52]	; 0x34
100064e2:	f001 fba7 	bl	10007c34 <__wrap___aeabi_i2d>
100064e6:	4a67      	ldr	r2, [pc, #412]	; (10006684 <_etoa+0x414>)
100064e8:	4b67      	ldr	r3, [pc, #412]	; (10006688 <_etoa+0x418>)
100064ea:	0004      	movs	r4, r0
100064ec:	000d      	movs	r5, r1
100064ee:	f001 fb30 	bl	10007b52 <__wrap___aeabi_dmul>
100064f2:	2200      	movs	r2, #0
100064f4:	4b65      	ldr	r3, [pc, #404]	; (1000668c <_etoa+0x41c>)
100064f6:	f001 fb05 	bl	10007b04 <__wrap___aeabi_dadd>
100064fa:	f001 fbb3 	bl	10007c64 <__wrap___aeabi_d2iz>
100064fe:	4a64      	ldr	r2, [pc, #400]	; (10006690 <_etoa+0x420>)
10006500:	0006      	movs	r6, r0
10006502:	4b64      	ldr	r3, [pc, #400]	; (10006694 <_etoa+0x424>)
10006504:	0020      	movs	r0, r4
10006506:	0029      	movs	r1, r5
10006508:	f001 fb23 	bl	10007b52 <__wrap___aeabi_dmul>
1000650c:	0004      	movs	r4, r0
1000650e:	0030      	movs	r0, r6
10006510:	000d      	movs	r5, r1
10006512:	960f      	str	r6, [sp, #60]	; 0x3c
10006514:	f001 fb8e 	bl	10007c34 <__wrap___aeabi_i2d>
10006518:	4a5f      	ldr	r2, [pc, #380]	; (10006698 <_etoa+0x428>)
1000651a:	4b60      	ldr	r3, [pc, #384]	; (1000669c <_etoa+0x42c>)
1000651c:	f001 fb19 	bl	10007b52 <__wrap___aeabi_dmul>
10006520:	0002      	movs	r2, r0
10006522:	000b      	movs	r3, r1
10006524:	0020      	movs	r0, r4
10006526:	0029      	movs	r1, r5
10006528:	f001 fae3 	bl	10007af2 <__wrap___aeabi_dsub>
1000652c:	0002      	movs	r2, r0
1000652e:	000b      	movs	r3, r1
10006530:	0006      	movs	r6, r0
10006532:	000f      	movs	r7, r1
10006534:	f001 fb0d 	bl	10007b52 <__wrap___aeabi_dmul>
10006538:	0032      	movs	r2, r6
1000653a:	0004      	movs	r4, r0
1000653c:	000d      	movs	r5, r1
1000653e:	003b      	movs	r3, r7
10006540:	0030      	movs	r0, r6
10006542:	0039      	movs	r1, r7
10006544:	f001 fade 	bl	10007b04 <__wrap___aeabi_dadd>
10006548:	2200      	movs	r2, #0
1000654a:	9010      	str	r0, [sp, #64]	; 0x40
1000654c:	9111      	str	r1, [sp, #68]	; 0x44
1000654e:	4b54      	ldr	r3, [pc, #336]	; (100066a0 <_etoa+0x430>)
10006550:	0020      	movs	r0, r4
10006552:	0029      	movs	r1, r5
10006554:	f001 fadf 	bl	10007b16 <__wrap___aeabi_ddiv>
10006558:	2200      	movs	r2, #0
1000655a:	4b52      	ldr	r3, [pc, #328]	; (100066a4 <_etoa+0x434>)
1000655c:	f001 fad2 	bl	10007b04 <__wrap___aeabi_dadd>
10006560:	0002      	movs	r2, r0
10006562:	000b      	movs	r3, r1
10006564:	0020      	movs	r0, r4
10006566:	0029      	movs	r1, r5
10006568:	f001 fad5 	bl	10007b16 <__wrap___aeabi_ddiv>
1000656c:	2200      	movs	r2, #0
1000656e:	4b4e      	ldr	r3, [pc, #312]	; (100066a8 <_etoa+0x438>)
10006570:	f001 fac8 	bl	10007b04 <__wrap___aeabi_dadd>
10006574:	0002      	movs	r2, r0
10006576:	000b      	movs	r3, r1
10006578:	0020      	movs	r0, r4
1000657a:	0029      	movs	r1, r5
1000657c:	f001 facb 	bl	10007b16 <__wrap___aeabi_ddiv>
10006580:	000d      	movs	r5, r1
10006582:	2180      	movs	r1, #128	; 0x80
10006584:	0004      	movs	r4, r0
10006586:	0032      	movs	r2, r6
10006588:	003b      	movs	r3, r7
1000658a:	2000      	movs	r0, #0
1000658c:	05c9      	lsls	r1, r1, #23
1000658e:	f001 fab0 	bl	10007af2 <__wrap___aeabi_dsub>
10006592:	0002      	movs	r2, r0
10006594:	000b      	movs	r3, r1
10006596:	0020      	movs	r0, r4
10006598:	0029      	movs	r1, r5
1000659a:	f001 fab3 	bl	10007b04 <__wrap___aeabi_dadd>
1000659e:	0002      	movs	r2, r0
100065a0:	000b      	movs	r3, r1
100065a2:	9810      	ldr	r0, [sp, #64]	; 0x40
100065a4:	9911      	ldr	r1, [sp, #68]	; 0x44
100065a6:	f001 fab6 	bl	10007b16 <__wrap___aeabi_ddiv>
100065aa:	2200      	movs	r2, #0
100065ac:	4b31      	ldr	r3, [pc, #196]	; (10006674 <_etoa+0x404>)
100065ae:	f001 faa9 	bl	10007b04 <__wrap___aeabi_dadd>
100065b2:	4b3e      	ldr	r3, [pc, #248]	; (100066ac <_etoa+0x43c>)
100065b4:	9c0f      	ldr	r4, [sp, #60]	; 0x3c
100065b6:	469c      	mov	ip, r3
100065b8:	4464      	add	r4, ip
100065ba:	2200      	movs	r2, #0
100065bc:	0523      	lsls	r3, r4, #20
100065be:	f001 fac8 	bl	10007b52 <__wrap___aeabi_dmul>
100065c2:	0005      	movs	r5, r0
100065c4:	000e      	movs	r6, r1
100065c6:	0002      	movs	r2, r0
100065c8:	000b      	movs	r3, r1
100065ca:	980a      	ldr	r0, [sp, #40]	; 0x28
100065cc:	9909      	ldr	r1, [sp, #36]	; 0x24
100065ce:	f001 fb03 	bl	10007bd8 <__wrap___aeabi_dcmplt>
100065d2:	2800      	cmp	r0, #0
100065d4:	d00a      	beq.n	100065ec <_etoa+0x37c>
100065d6:	9b0d      	ldr	r3, [sp, #52]	; 0x34
100065d8:	0028      	movs	r0, r5
100065da:	3b01      	subs	r3, #1
100065dc:	0031      	movs	r1, r6
100065de:	930d      	str	r3, [sp, #52]	; 0x34
100065e0:	2200      	movs	r2, #0
100065e2:	4b30      	ldr	r3, [pc, #192]	; (100066a4 <_etoa+0x434>)
100065e4:	f001 fa97 	bl	10007b16 <__wrap___aeabi_ddiv>
100065e8:	0005      	movs	r5, r0
100065ea:	000e      	movs	r6, r1
100065ec:	27c6      	movs	r7, #198	; 0xc6
100065ee:	990d      	ldr	r1, [sp, #52]	; 0x34
100065f0:	002b      	movs	r3, r5
100065f2:	3163      	adds	r1, #99	; 0x63
100065f4:	428f      	cmp	r7, r1
100065f6:	41bf      	sbcs	r7, r7
100065f8:	9928      	ldr	r1, [sp, #160]	; 0xa0
100065fa:	427f      	negs	r7, r7
100065fc:	3704      	adds	r7, #4
100065fe:	0509      	lsls	r1, r1, #20
10006600:	d400      	bmi.n	10006604 <_etoa+0x394>
10006602:	e695      	b.n	10006330 <_etoa+0xc0>
10006604:	4333      	orrs	r3, r6
10006606:	d100      	bne.n	1000660a <_etoa+0x39a>
10006608:	e682      	b.n	10006310 <_etoa+0xa0>
1000660a:	9c09      	ldr	r4, [sp, #36]	; 0x24
1000660c:	4a28      	ldr	r2, [pc, #160]	; (100066b0 <_etoa+0x440>)
1000660e:	0021      	movs	r1, r4
10006610:	4b28      	ldr	r3, [pc, #160]	; (100066b4 <_etoa+0x444>)
10006612:	980a      	ldr	r0, [sp, #40]	; 0x28
10006614:	f001 faee 	bl	10007bf4 <__wrap___aeabi_dcmpge>
10006618:	2800      	cmp	r0, #0
1000661a:	d008      	beq.n	1000662e <_etoa+0x3be>
1000661c:	2200      	movs	r2, #0
1000661e:	0021      	movs	r1, r4
10006620:	4b25      	ldr	r3, [pc, #148]	; (100066b8 <_etoa+0x448>)
10006622:	980a      	ldr	r0, [sp, #40]	; 0x28
10006624:	f001 fad8 	bl	10007bd8 <__wrap___aeabi_dcmplt>
10006628:	2800      	cmp	r0, #0
1000662a:	d000      	beq.n	1000662e <_etoa+0x3be>
1000662c:	e670      	b.n	10006310 <_etoa+0xa0>
1000662e:	9b26      	ldr	r3, [sp, #152]	; 0x98
10006630:	2b00      	cmp	r3, #0
10006632:	d100      	bne.n	10006636 <_etoa+0x3c6>
10006634:	e67c      	b.n	10006330 <_etoa+0xc0>
10006636:	9b0e      	ldr	r3, [sp, #56]	; 0x38
10006638:	1e5a      	subs	r2, r3, #1
1000663a:	4193      	sbcs	r3, r2
1000663c:	9a26      	ldr	r2, [sp, #152]	; 0x98
1000663e:	1ad3      	subs	r3, r2, r3
10006640:	9326      	str	r3, [sp, #152]	; 0x98
10006642:	e675      	b.n	10006330 <_etoa+0xc0>
10006644:	2300      	movs	r3, #0
10006646:	2704      	movs	r7, #4
10006648:	930d      	str	r3, [sp, #52]	; 0x34
1000664a:	e671      	b.n	10006330 <_etoa+0xc0>
1000664c:	4643      	mov	r3, r8
1000664e:	930a      	str	r3, [sp, #40]	; 0x28
10006650:	2380      	movs	r3, #128	; 0x80
10006652:	061b      	lsls	r3, r3, #24
10006654:	4453      	add	r3, sl
10006656:	9309      	str	r3, [sp, #36]	; 0x24
10006658:	e642      	b.n	100062e0 <_etoa+0x70>
1000665a:	2300      	movs	r3, #0
1000665c:	9326      	str	r3, [sp, #152]	; 0x98
1000665e:	e65f      	b.n	10006320 <_etoa+0xb0>
10006660:	fffffc01 	.word	0xfffffc01
10006664:	509f79fb 	.word	0x509f79fb
10006668:	3fd34413 	.word	0x3fd34413
1000666c:	8b60c8b3 	.word	0x8b60c8b3
10006670:	3fc68a28 	.word	0x3fc68a28
10006674:	3ff00000 	.word	0x3ff00000
10006678:	3ff80000 	.word	0x3ff80000
1000667c:	636f4361 	.word	0x636f4361
10006680:	3fd287a7 	.word	0x3fd287a7
10006684:	0979a371 	.word	0x0979a371
10006688:	400a934f 	.word	0x400a934f
1000668c:	3fe00000 	.word	0x3fe00000
10006690:	bbb55516 	.word	0xbbb55516
10006694:	40026bb1 	.word	0x40026bb1
10006698:	fefa39ef 	.word	0xfefa39ef
1000669c:	3fe62e42 	.word	0x3fe62e42
100066a0:	402c0000 	.word	0x402c0000
100066a4:	40240000 	.word	0x40240000
100066a8:	40180000 	.word	0x40180000
100066ac:	000003ff 	.word	0x000003ff
100066b0:	eb1c432d 	.word	0xeb1c432d
100066b4:	3f1a36e2 	.word	0x3f1a36e2
100066b8:	412e8480 	.word	0x412e8480

100066bc <_ftoa>:
100066bc:	b5f0      	push	{r4, r5, r6, r7, lr}
100066be:	464e      	mov	r6, r9
100066c0:	46de      	mov	lr, fp
100066c2:	4657      	mov	r7, sl
100066c4:	4645      	mov	r5, r8
100066c6:	b5e0      	push	{r5, r6, r7, lr}
100066c8:	b097      	sub	sp, #92	; 0x5c
100066ca:	4699      	mov	r9, r3
100066cc:	9e20      	ldr	r6, [sp, #128]	; 0x80
100066ce:	9f21      	ldr	r7, [sp, #132]	; 0x84
100066d0:	9b22      	ldr	r3, [sp, #136]	; 0x88
100066d2:	4683      	mov	fp, r0
100066d4:	4698      	mov	r8, r3
100066d6:	9107      	str	r1, [sp, #28]
100066d8:	920c      	str	r2, [sp, #48]	; 0x30
100066da:	003b      	movs	r3, r7
100066dc:	0032      	movs	r2, r6
100066de:	0030      	movs	r0, r6
100066e0:	0039      	movs	r1, r7
100066e2:	f001 fa94 	bl	10007c0e <__wrap___aeabi_dcmpun>
100066e6:	2800      	cmp	r0, #0
100066e8:	d000      	beq.n	100066ec <_ftoa+0x30>
100066ea:	e1a9      	b.n	10006a40 <_ftoa+0x384>
100066ec:	2201      	movs	r2, #1
100066ee:	0030      	movs	r0, r6
100066f0:	0039      	movs	r1, r7
100066f2:	4bca      	ldr	r3, [pc, #808]	; (10006a1c <_ftoa+0x360>)
100066f4:	4252      	negs	r2, r2
100066f6:	f001 fa6f 	bl	10007bd8 <__wrap___aeabi_dcmplt>
100066fa:	2800      	cmp	r0, #0
100066fc:	d000      	beq.n	10006700 <_ftoa+0x44>
100066fe:	e0e1      	b.n	100068c4 <_ftoa+0x208>
10006700:	2201      	movs	r2, #1
10006702:	0030      	movs	r0, r6
10006704:	0039      	movs	r1, r7
10006706:	4bc6      	ldr	r3, [pc, #792]	; (10006a20 <_ftoa+0x364>)
10006708:	4252      	negs	r2, r2
1000670a:	f001 fa7b 	bl	10007c04 <__wrap___aeabi_dcmpgt>
1000670e:	2800      	cmp	r0, #0
10006710:	d000      	beq.n	10006714 <_ftoa+0x58>
10006712:	e0b7      	b.n	10006884 <_ftoa+0x1c8>
10006714:	2200      	movs	r2, #0
10006716:	0030      	movs	r0, r6
10006718:	0039      	movs	r1, r7
1000671a:	4bc2      	ldr	r3, [pc, #776]	; (10006a24 <_ftoa+0x368>)
1000671c:	f001 fa72 	bl	10007c04 <__wrap___aeabi_dcmpgt>
10006720:	2800      	cmp	r0, #0
10006722:	d000      	beq.n	10006726 <_ftoa+0x6a>
10006724:	e099      	b.n	1000685a <_ftoa+0x19e>
10006726:	2200      	movs	r2, #0
10006728:	0030      	movs	r0, r6
1000672a:	0039      	movs	r1, r7
1000672c:	4bbe      	ldr	r3, [pc, #760]	; (10006a28 <_ftoa+0x36c>)
1000672e:	f001 fa53 	bl	10007bd8 <__wrap___aeabi_dcmplt>
10006732:	2800      	cmp	r0, #0
10006734:	d000      	beq.n	10006738 <_ftoa+0x7c>
10006736:	e090      	b.n	1000685a <_ftoa+0x19e>
10006738:	2200      	movs	r2, #0
1000673a:	2300      	movs	r3, #0
1000673c:	0030      	movs	r0, r6
1000673e:	0039      	movs	r1, r7
10006740:	f001 fa4a 	bl	10007bd8 <__wrap___aeabi_dcmplt>
10006744:	2800      	cmp	r0, #0
10006746:	d000      	beq.n	1000674a <_ftoa+0x8e>
10006748:	e0b1      	b.n	100068ae <_ftoa+0x1f2>
1000674a:	2300      	movs	r3, #0
1000674c:	930d      	str	r3, [sp, #52]	; 0x34
1000674e:	9b24      	ldr	r3, [sp, #144]	; 0x90
10006750:	055b      	lsls	r3, r3, #21
10006752:	d401      	bmi.n	10006758 <_ftoa+0x9c>
10006754:	2306      	movs	r3, #6
10006756:	4698      	mov	r8, r3
10006758:	ab08      	add	r3, sp, #32
1000675a:	469c      	mov	ip, r3
1000675c:	2217      	movs	r2, #23
1000675e:	2400      	movs	r4, #0
10006760:	2330      	movs	r3, #48	; 0x30
10006762:	4641      	mov	r1, r8
10006764:	4462      	add	r2, ip
10006766:	e004      	b.n	10006772 <_ftoa+0xb6>
10006768:	3401      	adds	r4, #1
1000676a:	5513      	strb	r3, [r2, r4]
1000676c:	3901      	subs	r1, #1
1000676e:	2c20      	cmp	r4, #32
10006770:	d001      	beq.n	10006776 <_ftoa+0xba>
10006772:	2909      	cmp	r1, #9
10006774:	d8f8      	bhi.n	10006768 <_ftoa+0xac>
10006776:	4688      	mov	r8, r1
10006778:	0030      	movs	r0, r6
1000677a:	0039      	movs	r1, r7
1000677c:	f001 fa72 	bl	10007c64 <__wrap___aeabi_d2iz>
10006780:	4643      	mov	r3, r8
10006782:	00da      	lsls	r2, r3, #3
10006784:	4ba9      	ldr	r3, [pc, #676]	; (10006a2c <_ftoa+0x370>)
10006786:	0005      	movs	r5, r0
10006788:	189b      	adds	r3, r3, r2
1000678a:	681a      	ldr	r2, [r3, #0]
1000678c:	685b      	ldr	r3, [r3, #4]
1000678e:	9208      	str	r2, [sp, #32]
10006790:	9309      	str	r3, [sp, #36]	; 0x24
10006792:	f001 fa4f 	bl	10007c34 <__wrap___aeabi_i2d>
10006796:	0002      	movs	r2, r0
10006798:	000b      	movs	r3, r1
1000679a:	0030      	movs	r0, r6
1000679c:	0039      	movs	r1, r7
1000679e:	f001 f9a8 	bl	10007af2 <__wrap___aeabi_dsub>
100067a2:	9a08      	ldr	r2, [sp, #32]
100067a4:	9b09      	ldr	r3, [sp, #36]	; 0x24
100067a6:	f001 f9d4 	bl	10007b52 <__wrap___aeabi_dmul>
100067aa:	900a      	str	r0, [sp, #40]	; 0x28
100067ac:	910b      	str	r1, [sp, #44]	; 0x2c
100067ae:	f001 fa7d 	bl	10007cac <__wrap___aeabi_d2uiz>
100067b2:	4682      	mov	sl, r0
100067b4:	f001 fa3a 	bl	10007c2c <__wrap___aeabi_ui2d>
100067b8:	0002      	movs	r2, r0
100067ba:	000b      	movs	r3, r1
100067bc:	980a      	ldr	r0, [sp, #40]	; 0x28
100067be:	990b      	ldr	r1, [sp, #44]	; 0x2c
100067c0:	f001 f997 	bl	10007af2 <__wrap___aeabi_dsub>
100067c4:	2200      	movs	r2, #0
100067c6:	4b9a      	ldr	r3, [pc, #616]	; (10006a30 <_ftoa+0x374>)
100067c8:	900a      	str	r0, [sp, #40]	; 0x28
100067ca:	910b      	str	r1, [sp, #44]	; 0x2c
100067cc:	f001 fa1a 	bl	10007c04 <__wrap___aeabi_dcmpgt>
100067d0:	2800      	cmp	r0, #0
100067d2:	d100      	bne.n	100067d6 <_ftoa+0x11a>
100067d4:	e0c0      	b.n	10006958 <_ftoa+0x29c>
100067d6:	2301      	movs	r3, #1
100067d8:	469c      	mov	ip, r3
100067da:	44e2      	add	sl, ip
100067dc:	4650      	mov	r0, sl
100067de:	f001 fa25 	bl	10007c2c <__wrap___aeabi_ui2d>
100067e2:	0002      	movs	r2, r0
100067e4:	000b      	movs	r3, r1
100067e6:	9808      	ldr	r0, [sp, #32]
100067e8:	9909      	ldr	r1, [sp, #36]	; 0x24
100067ea:	f001 f9fb 	bl	10007be4 <__wrap___aeabi_dcmple>
100067ee:	2800      	cmp	r0, #0
100067f0:	d002      	beq.n	100067f8 <_ftoa+0x13c>
100067f2:	2300      	movs	r3, #0
100067f4:	469a      	mov	sl, r3
100067f6:	3501      	adds	r5, #1
100067f8:	4643      	mov	r3, r8
100067fa:	2b00      	cmp	r3, #0
100067fc:	d06a      	beq.n	100068d4 <_ftoa+0x218>
100067fe:	ab08      	add	r3, sp, #32
10006800:	2617      	movs	r6, #23
10006802:	469c      	mov	ip, r3
10006804:	9508      	str	r5, [sp, #32]
10006806:	4466      	add	r6, ip
10006808:	4655      	mov	r5, sl
1000680a:	e014      	b.n	10006836 <_ftoa+0x17a>
1000680c:	2301      	movs	r3, #1
1000680e:	425b      	negs	r3, r3
10006810:	4443      	add	r3, r8
10006812:	210a      	movs	r1, #10
10006814:	0028      	movs	r0, r5
10006816:	469a      	mov	sl, r3
10006818:	f000 ff28 	bl	1000766c <__wrap___aeabi_uidiv>
1000681c:	3401      	adds	r4, #1
1000681e:	3130      	adds	r1, #48	; 0x30
10006820:	1937      	adds	r7, r6, r4
10006822:	7039      	strb	r1, [r7, #0]
10006824:	0028      	movs	r0, r5
10006826:	210a      	movs	r1, #10
10006828:	f000 ff20 	bl	1000766c <__wrap___aeabi_uidiv>
1000682c:	2d09      	cmp	r5, #9
1000682e:	d800      	bhi.n	10006832 <_ftoa+0x176>
10006830:	e0d0      	b.n	100069d4 <_ftoa+0x318>
10006832:	46d0      	mov	r8, sl
10006834:	0005      	movs	r5, r0
10006836:	2c20      	cmp	r4, #32
10006838:	d1e8      	bne.n	1000680c <_ftoa+0x150>
1000683a:	ab0e      	add	r3, sp, #56	; 0x38
1000683c:	4698      	mov	r8, r3
1000683e:	2303      	movs	r3, #3
10006840:	9a24      	ldr	r2, [sp, #144]	; 0x90
10006842:	4013      	ands	r3, r2
10006844:	2b01      	cmp	r3, #1
10006846:	d100      	bne.n	1000684a <_ftoa+0x18e>
10006848:	e096      	b.n	10006978 <_ftoa+0x2bc>
1000684a:	2320      	movs	r3, #32
1000684c:	9a24      	ldr	r2, [sp, #144]	; 0x90
1000684e:	9301      	str	r3, [sp, #4]
10006850:	9203      	str	r2, [sp, #12]
10006852:	9a23      	ldr	r2, [sp, #140]	; 0x8c
10006854:	4643      	mov	r3, r8
10006856:	9202      	str	r2, [sp, #8]
10006858:	e01e      	b.n	10006898 <_ftoa+0x1dc>
1000685a:	9b24      	ldr	r3, [sp, #144]	; 0x90
1000685c:	4658      	mov	r0, fp
1000685e:	9304      	str	r3, [sp, #16]
10006860:	9b23      	ldr	r3, [sp, #140]	; 0x8c
10006862:	9600      	str	r6, [sp, #0]
10006864:	9701      	str	r7, [sp, #4]
10006866:	9303      	str	r3, [sp, #12]
10006868:	4643      	mov	r3, r8
1000686a:	9a0c      	ldr	r2, [sp, #48]	; 0x30
1000686c:	9302      	str	r3, [sp, #8]
1000686e:	9907      	ldr	r1, [sp, #28]
10006870:	464b      	mov	r3, r9
10006872:	f7ff fcfd 	bl	10006270 <_etoa>
10006876:	b017      	add	sp, #92	; 0x5c
10006878:	bcf0      	pop	{r4, r5, r6, r7}
1000687a:	46bb      	mov	fp, r7
1000687c:	46b2      	mov	sl, r6
1000687e:	46a9      	mov	r9, r5
10006880:	46a0      	mov	r8, r4
10006882:	bdf0      	pop	{r4, r5, r6, r7, pc}
10006884:	9b24      	ldr	r3, [sp, #144]	; 0x90
10006886:	075b      	lsls	r3, r3, #29
10006888:	d40e      	bmi.n	100068a8 <_ftoa+0x1ec>
1000688a:	2203      	movs	r2, #3
1000688c:	4b69      	ldr	r3, [pc, #420]	; (10006a34 <_ftoa+0x378>)
1000688e:	9924      	ldr	r1, [sp, #144]	; 0x90
10006890:	9201      	str	r2, [sp, #4]
10006892:	9103      	str	r1, [sp, #12]
10006894:	9923      	ldr	r1, [sp, #140]	; 0x8c
10006896:	9102      	str	r1, [sp, #8]
10006898:	9300      	str	r3, [sp, #0]
1000689a:	4658      	mov	r0, fp
1000689c:	464b      	mov	r3, r9
1000689e:	9a0c      	ldr	r2, [sp, #48]	; 0x30
100068a0:	9907      	ldr	r1, [sp, #28]
100068a2:	f7ff fba1 	bl	10005fe8 <_out_rev>
100068a6:	e7e6      	b.n	10006876 <_ftoa+0x1ba>
100068a8:	2204      	movs	r2, #4
100068aa:	4b63      	ldr	r3, [pc, #396]	; (10006a38 <_ftoa+0x37c>)
100068ac:	e7ef      	b.n	1000688e <_ftoa+0x1d2>
100068ae:	003b      	movs	r3, r7
100068b0:	0032      	movs	r2, r6
100068b2:	2000      	movs	r0, #0
100068b4:	2100      	movs	r1, #0
100068b6:	f001 f91c 	bl	10007af2 <__wrap___aeabi_dsub>
100068ba:	2301      	movs	r3, #1
100068bc:	0006      	movs	r6, r0
100068be:	000f      	movs	r7, r1
100068c0:	930d      	str	r3, [sp, #52]	; 0x34
100068c2:	e744      	b.n	1000674e <_ftoa+0x92>
100068c4:	9b24      	ldr	r3, [sp, #144]	; 0x90
100068c6:	9303      	str	r3, [sp, #12]
100068c8:	9b23      	ldr	r3, [sp, #140]	; 0x8c
100068ca:	9302      	str	r3, [sp, #8]
100068cc:	2304      	movs	r3, #4
100068ce:	9301      	str	r3, [sp, #4]
100068d0:	4b5a      	ldr	r3, [pc, #360]	; (10006a3c <_ftoa+0x380>)
100068d2:	e7e1      	b.n	10006898 <_ftoa+0x1dc>
100068d4:	0028      	movs	r0, r5
100068d6:	f001 f9ad 	bl	10007c34 <__wrap___aeabi_i2d>
100068da:	0002      	movs	r2, r0
100068dc:	000b      	movs	r3, r1
100068de:	0030      	movs	r0, r6
100068e0:	0039      	movs	r1, r7
100068e2:	f001 f906 	bl	10007af2 <__wrap___aeabi_dsub>
100068e6:	4b52      	ldr	r3, [pc, #328]	; (10006a30 <_ftoa+0x374>)
100068e8:	2200      	movs	r2, #0
100068ea:	0006      	movs	r6, r0
100068ec:	000f      	movs	r7, r1
100068ee:	f001 f973 	bl	10007bd8 <__wrap___aeabi_dcmplt>
100068f2:	ab0e      	add	r3, sp, #56	; 0x38
100068f4:	4698      	mov	r8, r3
100068f6:	2800      	cmp	r0, #0
100068f8:	d10a      	bne.n	10006910 <_ftoa+0x254>
100068fa:	2200      	movs	r2, #0
100068fc:	0030      	movs	r0, r6
100068fe:	0039      	movs	r1, r7
10006900:	4b4b      	ldr	r3, [pc, #300]	; (10006a30 <_ftoa+0x374>)
10006902:	f001 f97f 	bl	10007c04 <__wrap___aeabi_dcmpgt>
10006906:	2800      	cmp	r0, #0
10006908:	d102      	bne.n	10006910 <_ftoa+0x254>
1000690a:	07eb      	lsls	r3, r5, #31
1000690c:	d500      	bpl.n	10006910 <_ftoa+0x254>
1000690e:	3501      	adds	r5, #1
10006910:	2c20      	cmp	r4, #32
10006912:	d094      	beq.n	1000683e <_ftoa+0x182>
10006914:	aa08      	add	r2, sp, #32
10006916:	4694      	mov	ip, r2
10006918:	2317      	movs	r3, #23
1000691a:	0028      	movs	r0, r5
1000691c:	4463      	add	r3, ip
1000691e:	210a      	movs	r1, #10
10006920:	3401      	adds	r4, #1
10006922:	191e      	adds	r6, r3, r4
10006924:	f000 fe7a 	bl	1000761c <__wrap___aeabi_idiv>
10006928:	3130      	adds	r1, #48	; 0x30
1000692a:	0028      	movs	r0, r5
1000692c:	7031      	strb	r1, [r6, #0]
1000692e:	210a      	movs	r1, #10
10006930:	f000 fe74 	bl	1000761c <__wrap___aeabi_idiv>
10006934:	1e05      	subs	r5, r0, #0
10006936:	d1eb      	bne.n	10006910 <_ftoa+0x254>
10006938:	2303      	movs	r3, #3
1000693a:	9a24      	ldr	r2, [sp, #144]	; 0x90
1000693c:	4013      	ands	r3, r2
1000693e:	2b01      	cmp	r3, #1
10006940:	d01b      	beq.n	1000697a <_ftoa+0x2be>
10006942:	2c20      	cmp	r4, #32
10006944:	d100      	bne.n	10006948 <_ftoa+0x28c>
10006946:	e780      	b.n	1000684a <_ftoa+0x18e>
10006948:	9b0d      	ldr	r3, [sp, #52]	; 0x34
1000694a:	2b00      	cmp	r3, #0
1000694c:	d035      	beq.n	100069ba <_ftoa+0x2fe>
1000694e:	222d      	movs	r2, #45	; 0x2d
10006950:	4641      	mov	r1, r8
10006952:	1c63      	adds	r3, r4, #1
10006954:	550a      	strb	r2, [r1, r4]
10006956:	e779      	b.n	1000684c <_ftoa+0x190>
10006958:	2200      	movs	r2, #0
1000695a:	980a      	ldr	r0, [sp, #40]	; 0x28
1000695c:	990b      	ldr	r1, [sp, #44]	; 0x2c
1000695e:	4b34      	ldr	r3, [pc, #208]	; (10006a30 <_ftoa+0x374>)
10006960:	f001 f93a 	bl	10007bd8 <__wrap___aeabi_dcmplt>
10006964:	2800      	cmp	r0, #0
10006966:	d000      	beq.n	1000696a <_ftoa+0x2ae>
10006968:	e746      	b.n	100067f8 <_ftoa+0x13c>
1000696a:	4653      	mov	r3, sl
1000696c:	2b00      	cmp	r3, #0
1000696e:	d151      	bne.n	10006a14 <_ftoa+0x358>
10006970:	2301      	movs	r3, #1
10006972:	469c      	mov	ip, r3
10006974:	44e2      	add	sl, ip
10006976:	e73f      	b.n	100067f8 <_ftoa+0x13c>
10006978:	2420      	movs	r4, #32
1000697a:	9b23      	ldr	r3, [sp, #140]	; 0x8c
1000697c:	2b00      	cmp	r3, #0
1000697e:	d0e0      	beq.n	10006942 <_ftoa+0x286>
10006980:	9b0d      	ldr	r3, [sp, #52]	; 0x34
10006982:	2b00      	cmp	r3, #0
10006984:	d103      	bne.n	1000698e <_ftoa+0x2d2>
10006986:	9a24      	ldr	r2, [sp, #144]	; 0x90
10006988:	330c      	adds	r3, #12
1000698a:	4213      	tst	r3, r2
1000698c:	d002      	beq.n	10006994 <_ftoa+0x2d8>
1000698e:	9b23      	ldr	r3, [sp, #140]	; 0x8c
10006990:	3b01      	subs	r3, #1
10006992:	9323      	str	r3, [sp, #140]	; 0x8c
10006994:	9b23      	ldr	r3, [sp, #140]	; 0x8c
10006996:	42a3      	cmp	r3, r4
10006998:	d9d3      	bls.n	10006942 <_ftoa+0x286>
1000699a:	ab08      	add	r3, sp, #32
1000699c:	469c      	mov	ip, r3
1000699e:	2217      	movs	r2, #23
100069a0:	2330      	movs	r3, #48	; 0x30
100069a2:	4462      	add	r2, ip
100069a4:	2c20      	cmp	r4, #32
100069a6:	d100      	bne.n	100069aa <_ftoa+0x2ee>
100069a8:	e74f      	b.n	1000684a <_ftoa+0x18e>
100069aa:	9923      	ldr	r1, [sp, #140]	; 0x8c
100069ac:	3401      	adds	r4, #1
100069ae:	5513      	strb	r3, [r2, r4]
100069b0:	428c      	cmp	r4, r1
100069b2:	d0c6      	beq.n	10006942 <_ftoa+0x286>
100069b4:	2c20      	cmp	r4, #32
100069b6:	d1f8      	bne.n	100069aa <_ftoa+0x2ee>
100069b8:	e747      	b.n	1000684a <_ftoa+0x18e>
100069ba:	9b24      	ldr	r3, [sp, #144]	; 0x90
100069bc:	075b      	lsls	r3, r3, #29
100069be:	d424      	bmi.n	10006a0a <_ftoa+0x34e>
100069c0:	9a24      	ldr	r2, [sp, #144]	; 0x90
100069c2:	0023      	movs	r3, r4
100069c4:	0712      	lsls	r2, r2, #28
100069c6:	d400      	bmi.n	100069ca <_ftoa+0x30e>
100069c8:	e740      	b.n	1000684c <_ftoa+0x190>
100069ca:	2220      	movs	r2, #32
100069cc:	4641      	mov	r1, r8
100069ce:	3301      	adds	r3, #1
100069d0:	550a      	strb	r2, [r1, r4]
100069d2:	e73b      	b.n	1000684c <_ftoa+0x190>
100069d4:	4657      	mov	r7, sl
100069d6:	9d08      	ldr	r5, [sp, #32]
100069d8:	2c20      	cmp	r4, #32
100069da:	d100      	bne.n	100069de <_ftoa+0x322>
100069dc:	e72d      	b.n	1000683a <_ftoa+0x17e>
100069de:	0022      	movs	r2, r4
100069e0:	2130      	movs	r1, #48	; 0x30
100069e2:	4640      	mov	r0, r8
100069e4:	2f00      	cmp	r7, #0
100069e6:	d009      	beq.n	100069fc <_ftoa+0x340>
100069e8:	3201      	adds	r2, #1
100069ea:	54b1      	strb	r1, [r6, r2]
100069ec:	2a20      	cmp	r2, #32
100069ee:	d100      	bne.n	100069f2 <_ftoa+0x336>
100069f0:	e723      	b.n	1000683a <_ftoa+0x17e>
100069f2:	43d3      	mvns	r3, r2
100069f4:	191b      	adds	r3, r3, r4
100069f6:	181b      	adds	r3, r3, r0
100069f8:	2b00      	cmp	r3, #0
100069fa:	d1f5      	bne.n	100069e8 <_ftoa+0x32c>
100069fc:	ab0e      	add	r3, sp, #56	; 0x38
100069fe:	4698      	mov	r8, r3
10006a00:	232e      	movs	r3, #46	; 0x2e
10006a02:	4641      	mov	r1, r8
10006a04:	1c54      	adds	r4, r2, #1
10006a06:	548b      	strb	r3, [r1, r2]
10006a08:	e782      	b.n	10006910 <_ftoa+0x254>
10006a0a:	222b      	movs	r2, #43	; 0x2b
10006a0c:	4641      	mov	r1, r8
10006a0e:	1c63      	adds	r3, r4, #1
10006a10:	550a      	strb	r2, [r1, r4]
10006a12:	e71b      	b.n	1000684c <_ftoa+0x190>
10006a14:	07db      	lsls	r3, r3, #31
10006a16:	d400      	bmi.n	10006a1a <_ftoa+0x35e>
10006a18:	e6ee      	b.n	100067f8 <_ftoa+0x13c>
10006a1a:	e7a9      	b.n	10006970 <_ftoa+0x2b4>
10006a1c:	ffefffff 	.word	0xffefffff
10006a20:	7fefffff 	.word	0x7fefffff
10006a24:	41cdcd65 	.word	0x41cdcd65
10006a28:	c1cdcd65 	.word	0xc1cdcd65
10006a2c:	1000b698 	.word	0x1000b698
10006a30:	3fe00000 	.word	0x3fe00000
10006a34:	1000b49c 	.word	0x1000b49c
10006a38:	1000b4a0 	.word	0x1000b4a0
10006a3c:	1000b4ac 	.word	0x1000b4ac
10006a40:	9b24      	ldr	r3, [sp, #144]	; 0x90
10006a42:	9303      	str	r3, [sp, #12]
10006a44:	9b23      	ldr	r3, [sp, #140]	; 0x8c
10006a46:	9302      	str	r3, [sp, #8]
10006a48:	2303      	movs	r3, #3
10006a4a:	9301      	str	r3, [sp, #4]
10006a4c:	4b00      	ldr	r3, [pc, #0]	; (10006a50 <_ftoa+0x394>)
10006a4e:	e723      	b.n	10006898 <_ftoa+0x1dc>
10006a50:	1000b4a8 	.word	0x1000b4a8

10006a54 <_vsnprintf>:
10006a54:	b5f0      	push	{r4, r5, r6, r7, lr}
10006a56:	46de      	mov	lr, fp
10006a58:	464e      	mov	r6, r9
10006a5a:	4657      	mov	r7, sl
10006a5c:	4645      	mov	r5, r8
10006a5e:	b5e0      	push	{r5, r6, r7, lr}
10006a60:	b09f      	sub	sp, #124	; 0x7c
10006a62:	001c      	movs	r4, r3
10006a64:	9b28      	ldr	r3, [sp, #160]	; 0xa0
10006a66:	4691      	mov	r9, r2
10006a68:	9309      	str	r3, [sp, #36]	; 0x24
10006a6a:	4ac9      	ldr	r2, [pc, #804]	; (10006d90 <_vsnprintf+0x33c>)
10006a6c:	4bc9      	ldr	r3, [pc, #804]	; (10006d94 <_vsnprintf+0x340>)
10006a6e:	468b      	mov	fp, r1
10006a70:	9008      	str	r0, [sp, #32]
10006a72:	601a      	str	r2, [r3, #0]
10006a74:	2900      	cmp	r1, #0
10006a76:	d100      	bne.n	10006a7a <_vsnprintf+0x26>
10006a78:	e218      	b.n	10006eac <_vsnprintf+0x458>
10006a7a:	2300      	movs	r3, #0
10006a7c:	7820      	ldrb	r0, [r4, #0]
10006a7e:	469a      	mov	sl, r3
10006a80:	2800      	cmp	r0, #0
10006a82:	d100      	bne.n	10006a86 <_vsnprintf+0x32>
10006a84:	e21a      	b.n	10006ebc <_vsnprintf+0x468>
10006a86:	0026      	movs	r6, r4
10006a88:	001d      	movs	r5, r3
10006a8a:	465c      	mov	r4, fp
10006a8c:	e00a      	b.n	10006aa4 <_vsnprintf+0x50>
10006a8e:	002a      	movs	r2, r5
10006a90:	1c6f      	adds	r7, r5, #1
10006a92:	464b      	mov	r3, r9
10006a94:	9d08      	ldr	r5, [sp, #32]
10006a96:	0021      	movs	r1, r4
10006a98:	47a8      	blx	r5
10006a9a:	003d      	movs	r5, r7
10006a9c:	3601      	adds	r6, #1
10006a9e:	7830      	ldrb	r0, [r6, #0]
10006aa0:	2800      	cmp	r0, #0
10006aa2:	d070      	beq.n	10006b86 <_vsnprintf+0x132>
10006aa4:	2825      	cmp	r0, #37	; 0x25
10006aa6:	d1f2      	bne.n	10006a8e <_vsnprintf+0x3a>
10006aa8:	2310      	movs	r3, #16
10006aaa:	469b      	mov	fp, r3
10006aac:	3b08      	subs	r3, #8
10006aae:	469a      	mov	sl, r3
10006ab0:	3b04      	subs	r3, #4
10006ab2:	4698      	mov	r8, r3
10006ab4:	3b02      	subs	r3, #2
10006ab6:	2100      	movs	r1, #0
10006ab8:	469c      	mov	ip, r3
10006aba:	1c72      	adds	r2, r6, #1
10006abc:	7810      	ldrb	r0, [r2, #0]
10006abe:	0016      	movs	r6, r2
10006ac0:	0003      	movs	r3, r0
10006ac2:	3b20      	subs	r3, #32
10006ac4:	b2db      	uxtb	r3, r3
10006ac6:	2b10      	cmp	r3, #16
10006ac8:	d803      	bhi.n	10006ad2 <_vsnprintf+0x7e>
10006aca:	4fb3      	ldr	r7, [pc, #716]	; (10006d98 <_vsnprintf+0x344>)
10006acc:	009b      	lsls	r3, r3, #2
10006ace:	58fb      	ldr	r3, [r7, r3]
10006ad0:	469f      	mov	pc, r3
10006ad2:	0003      	movs	r3, r0
10006ad4:	3b30      	subs	r3, #48	; 0x30
10006ad6:	2b09      	cmp	r3, #9
10006ad8:	d932      	bls.n	10006b40 <_vsnprintf+0xec>
10006ada:	2300      	movs	r3, #0
10006adc:	930a      	str	r3, [sp, #40]	; 0x28
10006ade:	282a      	cmp	r0, #42	; 0x2a
10006ae0:	d068      	beq.n	10006bb4 <_vsnprintf+0x160>
10006ae2:	2300      	movs	r3, #0
10006ae4:	4698      	mov	r8, r3
10006ae6:	282e      	cmp	r0, #46	; 0x2e
10006ae8:	d03e      	beq.n	10006b68 <_vsnprintf+0x114>
10006aea:	0003      	movs	r3, r0
10006aec:	3b68      	subs	r3, #104	; 0x68
10006aee:	b2db      	uxtb	r3, r3
10006af0:	2b12      	cmp	r3, #18
10006af2:	d81c      	bhi.n	10006b2e <_vsnprintf+0xda>
10006af4:	4aa9      	ldr	r2, [pc, #676]	; (10006d9c <_vsnprintf+0x348>)
10006af6:	009b      	lsls	r3, r3, #2
10006af8:	58d3      	ldr	r3, [r2, r3]
10006afa:	469f      	mov	pc, r3
10006afc:	2301      	movs	r3, #1
10006afe:	3201      	adds	r2, #1
10006b00:	4319      	orrs	r1, r3
10006b02:	e7db      	b.n	10006abc <_vsnprintf+0x68>
10006b04:	4663      	mov	r3, ip
10006b06:	3201      	adds	r2, #1
10006b08:	4319      	orrs	r1, r3
10006b0a:	e7d7      	b.n	10006abc <_vsnprintf+0x68>
10006b0c:	4643      	mov	r3, r8
10006b0e:	3201      	adds	r2, #1
10006b10:	4319      	orrs	r1, r3
10006b12:	e7d3      	b.n	10006abc <_vsnprintf+0x68>
10006b14:	465b      	mov	r3, fp
10006b16:	3201      	adds	r2, #1
10006b18:	4319      	orrs	r1, r3
10006b1a:	e7cf      	b.n	10006abc <_vsnprintf+0x68>
10006b1c:	4653      	mov	r3, sl
10006b1e:	3201      	adds	r2, #1
10006b20:	4319      	orrs	r1, r3
10006b22:	e7cb      	b.n	10006abc <_vsnprintf+0x68>
10006b24:	2380      	movs	r3, #128	; 0x80
10006b26:	005b      	lsls	r3, r3, #1
10006b28:	7870      	ldrb	r0, [r6, #1]
10006b2a:	4319      	orrs	r1, r3
10006b2c:	3601      	adds	r6, #1
10006b2e:	0003      	movs	r3, r0
10006b30:	3b25      	subs	r3, #37	; 0x25
10006b32:	b2db      	uxtb	r3, r3
10006b34:	2b53      	cmp	r3, #83	; 0x53
10006b36:	d8aa      	bhi.n	10006a8e <_vsnprintf+0x3a>
10006b38:	4a99      	ldr	r2, [pc, #612]	; (10006da0 <_vsnprintf+0x34c>)
10006b3a:	009b      	lsls	r3, r3, #2
10006b3c:	58d3      	ldr	r3, [r2, r3]
10006b3e:	469f      	mov	pc, r3
10006b40:	2700      	movs	r7, #0
10006b42:	0003      	movs	r3, r0
10006b44:	00b8      	lsls	r0, r7, #2
10006b46:	19c0      	adds	r0, r0, r7
10006b48:	3601      	adds	r6, #1
10006b4a:	0040      	lsls	r0, r0, #1
10006b4c:	18c0      	adds	r0, r0, r3
10006b4e:	7833      	ldrb	r3, [r6, #0]
10006b50:	3830      	subs	r0, #48	; 0x30
10006b52:	001a      	movs	r2, r3
10006b54:	3a30      	subs	r2, #48	; 0x30
10006b56:	0007      	movs	r7, r0
10006b58:	2a09      	cmp	r2, #9
10006b5a:	d9f3      	bls.n	10006b44 <_vsnprintf+0xf0>
10006b5c:	900a      	str	r0, [sp, #40]	; 0x28
10006b5e:	0018      	movs	r0, r3
10006b60:	2300      	movs	r3, #0
10006b62:	4698      	mov	r8, r3
10006b64:	282e      	cmp	r0, #46	; 0x2e
10006b66:	d1c0      	bne.n	10006aea <_vsnprintf+0x96>
10006b68:	2380      	movs	r3, #128	; 0x80
10006b6a:	7870      	ldrb	r0, [r6, #1]
10006b6c:	00db      	lsls	r3, r3, #3
10006b6e:	4319      	orrs	r1, r3
10006b70:	0003      	movs	r3, r0
10006b72:	3b30      	subs	r3, #48	; 0x30
10006b74:	1c72      	adds	r2, r6, #1
10006b76:	2b09      	cmp	r3, #9
10006b78:	d800      	bhi.n	10006b7c <_vsnprintf+0x128>
10006b7a:	e1a1      	b.n	10006ec0 <_vsnprintf+0x46c>
10006b7c:	282a      	cmp	r0, #42	; 0x2a
10006b7e:	d100      	bne.n	10006b82 <_vsnprintf+0x12e>
10006b80:	e1b2      	b.n	10006ee8 <_vsnprintf+0x494>
10006b82:	0016      	movs	r6, r2
10006b84:	e7b1      	b.n	10006aea <_vsnprintf+0x96>
10006b86:	46a3      	mov	fp, r4
10006b88:	46aa      	mov	sl, r5
10006b8a:	002c      	movs	r4, r5
10006b8c:	45d1      	cmp	r9, sl
10006b8e:	d803      	bhi.n	10006b98 <_vsnprintf+0x144>
10006b90:	2301      	movs	r3, #1
10006b92:	425b      	negs	r3, r3
10006b94:	444b      	add	r3, r9
10006b96:	469a      	mov	sl, r3
10006b98:	464b      	mov	r3, r9
10006b9a:	4652      	mov	r2, sl
10006b9c:	4659      	mov	r1, fp
10006b9e:	2000      	movs	r0, #0
10006ba0:	9d08      	ldr	r5, [sp, #32]
10006ba2:	47a8      	blx	r5
10006ba4:	0020      	movs	r0, r4
10006ba6:	b01f      	add	sp, #124	; 0x7c
10006ba8:	bcf0      	pop	{r4, r5, r6, r7}
10006baa:	46bb      	mov	fp, r7
10006bac:	46b2      	mov	sl, r6
10006bae:	46a9      	mov	r9, r5
10006bb0:	46a0      	mov	r8, r4
10006bb2:	bdf0      	pop	{r4, r5, r6, r7, pc}
10006bb4:	9b09      	ldr	r3, [sp, #36]	; 0x24
10006bb6:	cb40      	ldmia	r3!, {r6}
10006bb8:	960a      	str	r6, [sp, #40]	; 0x28
10006bba:	2e00      	cmp	r6, #0
10006bbc:	db03      	blt.n	10006bc6 <_vsnprintf+0x172>
10006bbe:	7850      	ldrb	r0, [r2, #1]
10006bc0:	9309      	str	r3, [sp, #36]	; 0x24
10006bc2:	1c56      	adds	r6, r2, #1
10006bc4:	e78d      	b.n	10006ae2 <_vsnprintf+0x8e>
10006bc6:	3828      	subs	r0, #40	; 0x28
10006bc8:	4301      	orrs	r1, r0
10006bca:	4270      	negs	r0, r6
10006bcc:	900a      	str	r0, [sp, #40]	; 0x28
10006bce:	9309      	str	r3, [sp, #36]	; 0x24
10006bd0:	7850      	ldrb	r0, [r2, #1]
10006bd2:	1c56      	adds	r6, r2, #1
10006bd4:	e785      	b.n	10006ae2 <_vsnprintf+0x8e>
10006bd6:	2878      	cmp	r0, #120	; 0x78
10006bd8:	d100      	bne.n	10006bdc <_vsnprintf+0x188>
10006bda:	e1df      	b.n	10006f9c <_vsnprintf+0x548>
10006bdc:	2858      	cmp	r0, #88	; 0x58
10006bde:	d100      	bne.n	10006be2 <_vsnprintf+0x18e>
10006be0:	e24c      	b.n	1000707c <_vsnprintf+0x628>
10006be2:	286f      	cmp	r0, #111	; 0x6f
10006be4:	d100      	bne.n	10006be8 <_vsnprintf+0x194>
10006be6:	e34f      	b.n	10007288 <_vsnprintf+0x834>
10006be8:	2862      	cmp	r0, #98	; 0x62
10006bea:	d101      	bne.n	10006bf0 <_vsnprintf+0x19c>
10006bec:	f000 fc30 	bl	10007450 <_vsnprintf+0x9fc>
10006bf0:	2310      	movs	r3, #16
10006bf2:	000a      	movs	r2, r1
10006bf4:	439a      	bics	r2, r3
10006bf6:	920b      	str	r2, [sp, #44]	; 0x2c
10006bf8:	2869      	cmp	r0, #105	; 0x69
10006bfa:	d001      	beq.n	10006c00 <_vsnprintf+0x1ac>
10006bfc:	f000 fca9 	bl	10007552 <_vsnprintf+0xafe>
10006c00:	230a      	movs	r3, #10
10006c02:	930c      	str	r3, [sp, #48]	; 0x30
10006c04:	054b      	lsls	r3, r1, #21
10006c06:	d500      	bpl.n	10006c0a <_vsnprintf+0x1b6>
10006c08:	e1d0      	b.n	10006fac <_vsnprintf+0x558>
10006c0a:	9a0b      	ldr	r2, [sp, #44]	; 0x2c
10006c0c:	2380      	movs	r3, #128	; 0x80
10006c0e:	0011      	movs	r1, r2
10006c10:	009b      	lsls	r3, r3, #2
10006c12:	4019      	ands	r1, r3
10006c14:	468b      	mov	fp, r1
10006c16:	421a      	tst	r2, r3
10006c18:	d000      	beq.n	10006c1c <_vsnprintf+0x1c8>
10006c1a:	e2a1      	b.n	10007160 <_vsnprintf+0x70c>
10006c1c:	2380      	movs	r3, #128	; 0x80
10006c1e:	0011      	movs	r1, r2
10006c20:	005b      	lsls	r3, r3, #1
10006c22:	4019      	ands	r1, r3
10006c24:	468a      	mov	sl, r1
10006c26:	421a      	tst	r2, r3
10006c28:	d000      	beq.n	10006c2c <_vsnprintf+0x1d8>
10006c2a:	e3b6      	b.n	1000739a <_vsnprintf+0x946>
10006c2c:	0013      	movs	r3, r2
10006c2e:	065b      	lsls	r3, r3, #25
10006c30:	d500      	bpl.n	10006c34 <_vsnprintf+0x1e0>
10006c32:	e2ed      	b.n	10007210 <_vsnprintf+0x7bc>
10006c34:	0013      	movs	r3, r2
10006c36:	9909      	ldr	r1, [sp, #36]	; 0x24
10006c38:	061b      	lsls	r3, r3, #24
10006c3a:	d401      	bmi.n	10006c40 <_vsnprintf+0x1ec>
10006c3c:	f000 fc76 	bl	1000752c <_vsnprintf+0xad8>
10006c40:	c908      	ldmia	r1!, {r3}
10006c42:	b21b      	sxth	r3, r3
10006c44:	17d8      	asrs	r0, r3, #31
10006c46:	181a      	adds	r2, r3, r0
10006c48:	4042      	eors	r2, r0
10006c4a:	b292      	uxth	r2, r2
10006c4c:	9109      	str	r1, [sp, #36]	; 0x24
10006c4e:	4693      	mov	fp, r2
10006c50:	0fda      	lsrs	r2, r3, #31
10006c52:	9212      	str	r2, [sp, #72]	; 0x48
10006c54:	2b00      	cmp	r3, #0
10006c56:	d109      	bne.n	10006c6c <_vsnprintf+0x218>
10006c58:	2380      	movs	r3, #128	; 0x80
10006c5a:	2210      	movs	r2, #16
10006c5c:	990b      	ldr	r1, [sp, #44]	; 0x2c
10006c5e:	00db      	lsls	r3, r3, #3
10006c60:	400b      	ands	r3, r1
10006c62:	4391      	bics	r1, r2
10006c64:	910b      	str	r1, [sp, #44]	; 0x2c
10006c66:	2b00      	cmp	r3, #0
10006c68:	d000      	beq.n	10006c6c <_vsnprintf+0x218>
10006c6a:	e2e4      	b.n	10007236 <_vsnprintf+0x7e2>
10006c6c:	9a0b      	ldr	r2, [sp, #44]	; 0x2c
10006c6e:	2361      	movs	r3, #97	; 0x61
10006c70:	0692      	lsls	r2, r2, #26
10006c72:	d500      	bpl.n	10006c76 <_vsnprintf+0x222>
10006c74:	2341      	movs	r3, #65	; 0x41
10006c76:	a90e      	add	r1, sp, #56	; 0x38
10006c78:	221f      	movs	r2, #31
10006c7a:	468c      	mov	ip, r1
10006c7c:	b2db      	uxtb	r3, r3
10006c7e:	4462      	add	r2, ip
10006c80:	3b0a      	subs	r3, #10
10006c82:	465f      	mov	r7, fp
10006c84:	9513      	str	r5, [sp, #76]	; 0x4c
10006c86:	46a3      	mov	fp, r4
10006c88:	4655      	mov	r5, sl
10006c8a:	9c0c      	ldr	r4, [sp, #48]	; 0x30
10006c8c:	46b2      	mov	sl, r6
10006c8e:	930d      	str	r3, [sp, #52]	; 0x34
10006c90:	0016      	movs	r6, r2
10006c92:	e00a      	b.n	10006caa <_vsnprintf+0x256>
10006c94:	3330      	adds	r3, #48	; 0x30
10006c96:	b2db      	uxtb	r3, r3
10006c98:	3501      	adds	r5, #1
10006c9a:	5573      	strb	r3, [r6, r5]
10006c9c:	42a7      	cmp	r7, r4
10006c9e:	d200      	bcs.n	10006ca2 <_vsnprintf+0x24e>
10006ca0:	e2ed      	b.n	1000727e <_vsnprintf+0x82a>
10006ca2:	2d20      	cmp	r5, #32
10006ca4:	d100      	bne.n	10006ca8 <_vsnprintf+0x254>
10006ca6:	e2ea      	b.n	1000727e <_vsnprintf+0x82a>
10006ca8:	0007      	movs	r7, r0
10006caa:	0021      	movs	r1, r4
10006cac:	0038      	movs	r0, r7
10006cae:	f000 fcdd 	bl	1000766c <__wrap___aeabi_uidiv>
10006cb2:	b2cb      	uxtb	r3, r1
10006cb4:	2909      	cmp	r1, #9
10006cb6:	d9ed      	bls.n	10006c94 <_vsnprintf+0x240>
10006cb8:	9a0d      	ldr	r2, [sp, #52]	; 0x34
10006cba:	4694      	mov	ip, r2
10006cbc:	4463      	add	r3, ip
10006cbe:	b2db      	uxtb	r3, r3
10006cc0:	e7ea      	b.n	10006c98 <_vsnprintf+0x244>
10006cc2:	2380      	movs	r3, #128	; 0x80
10006cc4:	009b      	lsls	r3, r3, #2
10006cc6:	7870      	ldrb	r0, [r6, #1]
10006cc8:	4319      	orrs	r1, r3
10006cca:	3601      	adds	r6, #1
10006ccc:	e72f      	b.n	10006b2e <_vsnprintf+0xda>
10006cce:	7870      	ldrb	r0, [r6, #1]
10006cd0:	2868      	cmp	r0, #104	; 0x68
10006cd2:	d100      	bne.n	10006cd6 <_vsnprintf+0x282>
10006cd4:	e1cd      	b.n	10007072 <_vsnprintf+0x61e>
10006cd6:	2380      	movs	r3, #128	; 0x80
10006cd8:	3601      	adds	r6, #1
10006cda:	4319      	orrs	r1, r3
10006cdc:	e727      	b.n	10006b2e <_vsnprintf+0xda>
10006cde:	7870      	ldrb	r0, [r6, #1]
10006ce0:	286c      	cmp	r0, #108	; 0x6c
10006ce2:	d100      	bne.n	10006ce6 <_vsnprintf+0x292>
10006ce4:	e1bf      	b.n	10007066 <_vsnprintf+0x612>
10006ce6:	2380      	movs	r3, #128	; 0x80
10006ce8:	005b      	lsls	r3, r3, #1
10006cea:	4319      	orrs	r1, r3
10006cec:	3601      	adds	r6, #1
10006cee:	e71e      	b.n	10006b2e <_vsnprintf+0xda>
10006cf0:	2846      	cmp	r0, #70	; 0x46
10006cf2:	d100      	bne.n	10006cf6 <_vsnprintf+0x2a2>
10006cf4:	e19b      	b.n	1000702e <_vsnprintf+0x5da>
10006cf6:	2207      	movs	r2, #7
10006cf8:	9b09      	ldr	r3, [sp, #36]	; 0x24
10006cfa:	9104      	str	r1, [sp, #16]
10006cfc:	3307      	adds	r3, #7
10006cfe:	4393      	bics	r3, r2
10006d00:	9a0a      	ldr	r2, [sp, #40]	; 0x28
10006d02:	0019      	movs	r1, r3
10006d04:	9203      	str	r2, [sp, #12]
10006d06:	4642      	mov	r2, r8
10006d08:	9202      	str	r2, [sp, #8]
10006d0a:	c90c      	ldmia	r1!, {r2, r3}
10006d0c:	9808      	ldr	r0, [sp, #32]
10006d0e:	9200      	str	r2, [sp, #0]
10006d10:	9301      	str	r3, [sp, #4]
10006d12:	9109      	str	r1, [sp, #36]	; 0x24
10006d14:	002a      	movs	r2, r5
10006d16:	464b      	mov	r3, r9
10006d18:	0021      	movs	r1, r4
10006d1a:	f7ff fccf 	bl	100066bc <_ftoa>
10006d1e:	3601      	adds	r6, #1
10006d20:	0005      	movs	r5, r0
10006d22:	e6bc      	b.n	10006a9e <_vsnprintf+0x4a>
10006d24:	002a      	movs	r2, r5
10006d26:	1c6f      	adds	r7, r5, #1
10006d28:	464b      	mov	r3, r9
10006d2a:	9d08      	ldr	r5, [sp, #32]
10006d2c:	0021      	movs	r1, r4
10006d2e:	2025      	movs	r0, #37	; 0x25
10006d30:	47a8      	blx	r5
10006d32:	3601      	adds	r6, #1
10006d34:	003d      	movs	r5, r7
10006d36:	e6b2      	b.n	10006a9e <_vsnprintf+0x4a>
10006d38:	078b      	lsls	r3, r1, #30
10006d3a:	d400      	bmi.n	10006d3e <_vsnprintf+0x2ea>
10006d3c:	e1ad      	b.n	1000709a <_vsnprintf+0x646>
10006d3e:	9b09      	ldr	r3, [sp, #36]	; 0x24
10006d40:	002a      	movs	r2, r5
10006d42:	469a      	mov	sl, r3
10006d44:	1c6b      	adds	r3, r5, #1
10006d46:	4698      	mov	r8, r3
10006d48:	4653      	mov	r3, sl
10006d4a:	cb01      	ldmia	r3!, {r0}
10006d4c:	0021      	movs	r1, r4
10006d4e:	469a      	mov	sl, r3
10006d50:	9f08      	ldr	r7, [sp, #32]
10006d52:	464b      	mov	r3, r9
10006d54:	b2c0      	uxtb	r0, r0
10006d56:	47b8      	blx	r7
10006d58:	9b0a      	ldr	r3, [sp, #40]	; 0x28
10006d5a:	469c      	mov	ip, r3
10006d5c:	4465      	add	r5, ip
10006d5e:	2b01      	cmp	r3, #1
10006d60:	d800      	bhi.n	10006d64 <_vsnprintf+0x310>
10006d62:	e286      	b.n	10007272 <_vsnprintf+0x81e>
10006d64:	9b08      	ldr	r3, [sp, #32]
10006d66:	4647      	mov	r7, r8
10006d68:	46b0      	mov	r8, r6
10006d6a:	0026      	movs	r6, r4
10006d6c:	464c      	mov	r4, r9
10006d6e:	4699      	mov	r9, r3
10006d70:	003a      	movs	r2, r7
10006d72:	0023      	movs	r3, r4
10006d74:	3701      	adds	r7, #1
10006d76:	0031      	movs	r1, r6
10006d78:	2020      	movs	r0, #32
10006d7a:	47c8      	blx	r9
10006d7c:	42af      	cmp	r7, r5
10006d7e:	d1f7      	bne.n	10006d70 <_vsnprintf+0x31c>
10006d80:	46a1      	mov	r9, r4
10006d82:	4653      	mov	r3, sl
10006d84:	0034      	movs	r4, r6
10006d86:	4646      	mov	r6, r8
10006d88:	9309      	str	r3, [sp, #36]	; 0x24
10006d8a:	3601      	adds	r6, #1
10006d8c:	e687      	b.n	10006a9e <_vsnprintf+0x4a>
10006d8e:	46c0      	nop			; (mov r8, r8)
10006d90:	10006a55 	.word	0x10006a55
10006d94:	20009e7c 	.word	0x20009e7c
10006d98:	1000b4b4 	.word	0x1000b4b4
10006d9c:	1000b4f8 	.word	0x1000b4f8
10006da0:	1000b544 	.word	0x1000b544
10006da4:	9b09      	ldr	r3, [sp, #36]	; 0x24
10006da6:	cb04      	ldmia	r3!, {r2}
10006da8:	469b      	mov	fp, r3
10006daa:	4643      	mov	r3, r8
10006dac:	9209      	str	r2, [sp, #36]	; 0x24
10006dae:	2b00      	cmp	r3, #0
10006db0:	d100      	bne.n	10006db4 <_vsnprintf+0x360>
10006db2:	e0c6      	b.n	10006f42 <_vsnprintf+0x4ee>
10006db4:	7813      	ldrb	r3, [r2, #0]
10006db6:	469c      	mov	ip, r3
10006db8:	2b00      	cmp	r3, #0
10006dba:	d100      	bne.n	10006dbe <_vsnprintf+0x36a>
10006dbc:	e3bd      	b.n	1000753a <_vsnprintf+0xae6>
10006dbe:	4643      	mov	r3, r8
10006dc0:	3b01      	subs	r3, #1
10006dc2:	9a09      	ldr	r2, [sp, #36]	; 0x24
10006dc4:	3301      	adds	r3, #1
10006dc6:	18d0      	adds	r0, r2, r3
10006dc8:	9f0a      	ldr	r7, [sp, #40]	; 0x28
10006dca:	0013      	movs	r3, r2
10006dcc:	e001      	b.n	10006dd2 <_vsnprintf+0x37e>
10006dce:	4283      	cmp	r3, r0
10006dd0:	d003      	beq.n	10006dda <_vsnprintf+0x386>
10006dd2:	785a      	ldrb	r2, [r3, #1]
10006dd4:	3301      	adds	r3, #1
10006dd6:	2a00      	cmp	r2, #0
10006dd8:	d1f9      	bne.n	10006dce <_vsnprintf+0x37a>
10006dda:	9a09      	ldr	r2, [sp, #36]	; 0x24
10006ddc:	970a      	str	r7, [sp, #40]	; 0x28
10006dde:	1a9b      	subs	r3, r3, r2
10006de0:	930b      	str	r3, [sp, #44]	; 0x2c
10006de2:	2380      	movs	r3, #128	; 0x80
10006de4:	000a      	movs	r2, r1
10006de6:	00db      	lsls	r3, r3, #3
10006de8:	401a      	ands	r2, r3
10006dea:	920c      	str	r2, [sp, #48]	; 0x30
10006dec:	4219      	tst	r1, r3
10006dee:	d004      	beq.n	10006dfa <_vsnprintf+0x3a6>
10006df0:	9b0b      	ldr	r3, [sp, #44]	; 0x2c
10006df2:	4543      	cmp	r3, r8
10006df4:	d901      	bls.n	10006dfa <_vsnprintf+0x3a6>
10006df6:	4643      	mov	r3, r8
10006df8:	930b      	str	r3, [sp, #44]	; 0x2c
10006dfa:	2302      	movs	r3, #2
10006dfc:	001a      	movs	r2, r3
10006dfe:	400a      	ands	r2, r1
10006e00:	920d      	str	r2, [sp, #52]	; 0x34
10006e02:	420b      	tst	r3, r1
10006e04:	d100      	bne.n	10006e08 <_vsnprintf+0x3b4>
10006e06:	e187      	b.n	10007118 <_vsnprintf+0x6c4>
10006e08:	4660      	mov	r0, ip
10006e0a:	2800      	cmp	r0, #0
10006e0c:	d100      	bne.n	10006e10 <_vsnprintf+0x3bc>
10006e0e:	e168      	b.n	100070e2 <_vsnprintf+0x68e>
10006e10:	9b0c      	ldr	r3, [sp, #48]	; 0x30
10006e12:	2b00      	cmp	r3, #0
10006e14:	d100      	bne.n	10006e18 <_vsnprintf+0x3c4>
10006e16:	e10d      	b.n	10007034 <_vsnprintf+0x5e0>
10006e18:	44a8      	add	r8, r5
10006e1a:	46c2      	mov	sl, r8
10006e1c:	9b09      	ldr	r3, [sp, #36]	; 0x24
10006e1e:	4657      	mov	r7, sl
10006e20:	1b5b      	subs	r3, r3, r5
10006e22:	4698      	mov	r8, r3
10006e24:	9b08      	ldr	r3, [sp, #32]
10006e26:	46b2      	mov	sl, r6
10006e28:	002a      	movs	r2, r5
10006e2a:	0026      	movs	r6, r4
10006e2c:	464c      	mov	r4, r9
10006e2e:	4699      	mov	r9, r3
10006e30:	e009      	b.n	10006e46 <_vsnprintf+0x3f2>
10006e32:	0023      	movs	r3, r4
10006e34:	0031      	movs	r1, r6
10006e36:	1c55      	adds	r5, r2, #1
10006e38:	47c8      	blx	r9
10006e3a:	4643      	mov	r3, r8
10006e3c:	5d58      	ldrb	r0, [r3, r5]
10006e3e:	2800      	cmp	r0, #0
10006e40:	d100      	bne.n	10006e44 <_vsnprintf+0x3f0>
10006e42:	e126      	b.n	10007092 <_vsnprintf+0x63e>
10006e44:	002a      	movs	r2, r5
10006e46:	4297      	cmp	r7, r2
10006e48:	d1f3      	bne.n	10006e32 <_vsnprintf+0x3de>
10006e4a:	46a1      	mov	r9, r4
10006e4c:	003d      	movs	r5, r7
10006e4e:	0034      	movs	r4, r6
10006e50:	4656      	mov	r6, sl
10006e52:	9b0d      	ldr	r3, [sp, #52]	; 0x34
10006e54:	2b00      	cmp	r3, #0
10006e56:	d000      	beq.n	10006e5a <_vsnprintf+0x406>
10006e58:	e143      	b.n	100070e2 <_vsnprintf+0x68e>
10006e5a:	465b      	mov	r3, fp
10006e5c:	3601      	adds	r6, #1
10006e5e:	9309      	str	r3, [sp, #36]	; 0x24
10006e60:	e61d      	b.n	10006a9e <_vsnprintf+0x4a>
10006e62:	9b09      	ldr	r3, [sp, #36]	; 0x24
10006e64:	001a      	movs	r2, r3
10006e66:	ca08      	ldmia	r2!, {r3}
10006e68:	4692      	mov	sl, r2
10006e6a:	2b00      	cmp	r3, #0
10006e6c:	d048      	beq.n	10006f00 <_vsnprintf+0x4ac>
10006e6e:	2221      	movs	r2, #33	; 0x21
10006e70:	4311      	orrs	r1, r2
10006e72:	468b      	mov	fp, r1
10006e74:	a80e      	add	r0, sp, #56	; 0x38
10006e76:	4684      	mov	ip, r0
10006e78:	211f      	movs	r1, #31
10006e7a:	4461      	add	r1, ip
10006e7c:	9509      	str	r5, [sp, #36]	; 0x24
10006e7e:	2200      	movs	r2, #0
10006e80:	270f      	movs	r7, #15
10006e82:	46a4      	mov	ip, r4
10006e84:	000d      	movs	r5, r1
10006e86:	e002      	b.n	10006e8e <_vsnprintf+0x43a>
10006e88:	2a20      	cmp	r2, #32
10006e8a:	d00c      	beq.n	10006ea6 <_vsnprintf+0x452>
10006e8c:	000b      	movs	r3, r1
10006e8e:	003c      	movs	r4, r7
10006e90:	401c      	ands	r4, r3
10006e92:	0020      	movs	r0, r4
10006e94:	3037      	adds	r0, #55	; 0x37
10006e96:	2c09      	cmp	r4, #9
10006e98:	d800      	bhi.n	10006e9c <_vsnprintf+0x448>
10006e9a:	3807      	subs	r0, #7
10006e9c:	3201      	adds	r2, #1
10006e9e:	54a8      	strb	r0, [r5, r2]
10006ea0:	0919      	lsrs	r1, r3, #4
10006ea2:	2b0f      	cmp	r3, #15
10006ea4:	d8f0      	bhi.n	10006e88 <_vsnprintf+0x434>
10006ea6:	4664      	mov	r4, ip
10006ea8:	9d09      	ldr	r5, [sp, #36]	; 0x24
10006eaa:	e032      	b.n	10006f12 <_vsnprintf+0x4be>
10006eac:	4bdc      	ldr	r3, [pc, #880]	; (10007220 <_vsnprintf+0x7cc>)
10006eae:	7820      	ldrb	r0, [r4, #0]
10006eb0:	9308      	str	r3, [sp, #32]
10006eb2:	2300      	movs	r3, #0
10006eb4:	469a      	mov	sl, r3
10006eb6:	2800      	cmp	r0, #0
10006eb8:	d000      	beq.n	10006ebc <_vsnprintf+0x468>
10006eba:	e5e4      	b.n	10006a86 <_vsnprintf+0x32>
10006ebc:	2400      	movs	r4, #0
10006ebe:	e665      	b.n	10006b8c <_vsnprintf+0x138>
10006ec0:	4643      	mov	r3, r8
10006ec2:	0006      	movs	r6, r0
10006ec4:	9f0a      	ldr	r7, [sp, #40]	; 0x28
10006ec6:	0098      	lsls	r0, r3, #2
10006ec8:	18c0      	adds	r0, r0, r3
10006eca:	3201      	adds	r2, #1
10006ecc:	0040      	lsls	r0, r0, #1
10006ece:	1980      	adds	r0, r0, r6
10006ed0:	7816      	ldrb	r6, [r2, #0]
10006ed2:	0003      	movs	r3, r0
10006ed4:	0030      	movs	r0, r6
10006ed6:	3830      	subs	r0, #48	; 0x30
10006ed8:	3b30      	subs	r3, #48	; 0x30
10006eda:	2809      	cmp	r0, #9
10006edc:	d9f3      	bls.n	10006ec6 <_vsnprintf+0x472>
10006ede:	0030      	movs	r0, r6
10006ee0:	4698      	mov	r8, r3
10006ee2:	0016      	movs	r6, r2
10006ee4:	970a      	str	r7, [sp, #40]	; 0x28
10006ee6:	e600      	b.n	10006aea <_vsnprintf+0x96>
10006ee8:	9b09      	ldr	r3, [sp, #36]	; 0x24
10006eea:	3602      	adds	r6, #2
10006eec:	cb04      	ldmia	r3!, {r2}
10006eee:	4690      	mov	r8, r2
10006ef0:	43d2      	mvns	r2, r2
10006ef2:	4640      	mov	r0, r8
10006ef4:	17d2      	asrs	r2, r2, #31
10006ef6:	4010      	ands	r0, r2
10006ef8:	4680      	mov	r8, r0
10006efa:	9309      	str	r3, [sp, #36]	; 0x24
10006efc:	7830      	ldrb	r0, [r6, #0]
10006efe:	e5f4      	b.n	10006aea <_vsnprintf+0x96>
10006f00:	2210      	movs	r2, #16
10006f02:	0008      	movs	r0, r1
10006f04:	4390      	bics	r0, r2
10006f06:	3211      	adds	r2, #17
10006f08:	4310      	orrs	r0, r2
10006f0a:	4683      	mov	fp, r0
10006f0c:	2200      	movs	r2, #0
10006f0e:	0549      	lsls	r1, r1, #21
10006f10:	d5b0      	bpl.n	10006e74 <_vsnprintf+0x420>
10006f12:	465b      	mov	r3, fp
10006f14:	9306      	str	r3, [sp, #24]
10006f16:	2308      	movs	r3, #8
10006f18:	9305      	str	r3, [sp, #20]
10006f1a:	4643      	mov	r3, r8
10006f1c:	9304      	str	r3, [sp, #16]
10006f1e:	2310      	movs	r3, #16
10006f20:	9303      	str	r3, [sp, #12]
10006f22:	2300      	movs	r3, #0
10006f24:	9302      	str	r3, [sp, #8]
10006f26:	ab16      	add	r3, sp, #88	; 0x58
10006f28:	9201      	str	r2, [sp, #4]
10006f2a:	9300      	str	r3, [sp, #0]
10006f2c:	002a      	movs	r2, r5
10006f2e:	464b      	mov	r3, r9
10006f30:	0021      	movs	r1, r4
10006f32:	9808      	ldr	r0, [sp, #32]
10006f34:	f7ff f8a6 	bl	10006084 <_ntoa_format>
10006f38:	4653      	mov	r3, sl
10006f3a:	0005      	movs	r5, r0
10006f3c:	3601      	adds	r6, #1
10006f3e:	9309      	str	r3, [sp, #36]	; 0x24
10006f40:	e5ad      	b.n	10006a9e <_vsnprintf+0x4a>
10006f42:	7813      	ldrb	r3, [r2, #0]
10006f44:	469c      	mov	ip, r3
10006f46:	2b00      	cmp	r3, #0
10006f48:	d100      	bne.n	10006f4c <_vsnprintf+0x4f8>
10006f4a:	e2f7      	b.n	1000753c <_vsnprintf+0xae8>
10006f4c:	2302      	movs	r3, #2
10006f4e:	425b      	negs	r3, r3
10006f50:	e737      	b.n	10006dc2 <_vsnprintf+0x36e>
10006f52:	2320      	movs	r3, #32
10006f54:	0002      	movs	r2, r0
10006f56:	439a      	bics	r2, r3
10006f58:	2a47      	cmp	r2, #71	; 0x47
10006f5a:	d104      	bne.n	10006f66 <_vsnprintf+0x512>
10006f5c:	2380      	movs	r3, #128	; 0x80
10006f5e:	011b      	lsls	r3, r3, #4
10006f60:	4319      	orrs	r1, r3
10006f62:	2302      	movs	r3, #2
10006f64:	4398      	bics	r0, r3
10006f66:	2845      	cmp	r0, #69	; 0x45
10006f68:	d101      	bne.n	10006f6e <_vsnprintf+0x51a>
10006f6a:	2320      	movs	r3, #32
10006f6c:	4319      	orrs	r1, r3
10006f6e:	2207      	movs	r2, #7
10006f70:	9b09      	ldr	r3, [sp, #36]	; 0x24
10006f72:	9104      	str	r1, [sp, #16]
10006f74:	3307      	adds	r3, #7
10006f76:	4393      	bics	r3, r2
10006f78:	9a0a      	ldr	r2, [sp, #40]	; 0x28
10006f7a:	0019      	movs	r1, r3
10006f7c:	9203      	str	r2, [sp, #12]
10006f7e:	4642      	mov	r2, r8
10006f80:	9202      	str	r2, [sp, #8]
10006f82:	c90c      	ldmia	r1!, {r2, r3}
10006f84:	9808      	ldr	r0, [sp, #32]
10006f86:	9200      	str	r2, [sp, #0]
10006f88:	9301      	str	r3, [sp, #4]
10006f8a:	9109      	str	r1, [sp, #36]	; 0x24
10006f8c:	002a      	movs	r2, r5
10006f8e:	464b      	mov	r3, r9
10006f90:	0021      	movs	r1, r4
10006f92:	f7ff f96d 	bl	10006270 <_etoa>
10006f96:	3601      	adds	r6, #1
10006f98:	0005      	movs	r5, r0
10006f9a:	e580      	b.n	10006a9e <_vsnprintf+0x4a>
10006f9c:	2310      	movs	r3, #16
10006f9e:	930c      	str	r3, [sp, #48]	; 0x30
10006fa0:	230c      	movs	r3, #12
10006fa2:	000a      	movs	r2, r1
10006fa4:	439a      	bics	r2, r3
10006fa6:	920b      	str	r2, [sp, #44]	; 0x2c
10006fa8:	054b      	lsls	r3, r1, #21
10006faa:	d503      	bpl.n	10006fb4 <_vsnprintf+0x560>
10006fac:	2301      	movs	r3, #1
10006fae:	9a0b      	ldr	r2, [sp, #44]	; 0x2c
10006fb0:	439a      	bics	r2, r3
10006fb2:	920b      	str	r2, [sp, #44]	; 0x2c
10006fb4:	2869      	cmp	r0, #105	; 0x69
10006fb6:	d100      	bne.n	10006fba <_vsnprintf+0x566>
10006fb8:	e627      	b.n	10006c0a <_vsnprintf+0x1b6>
10006fba:	2864      	cmp	r0, #100	; 0x64
10006fbc:	d100      	bne.n	10006fc0 <_vsnprintf+0x56c>
10006fbe:	e624      	b.n	10006c0a <_vsnprintf+0x1b6>
10006fc0:	9a0b      	ldr	r2, [sp, #44]	; 0x2c
10006fc2:	2380      	movs	r3, #128	; 0x80
10006fc4:	0011      	movs	r1, r2
10006fc6:	009b      	lsls	r3, r3, #2
10006fc8:	4019      	ands	r1, r3
10006fca:	468b      	mov	fp, r1
10006fcc:	421a      	tst	r2, r3
10006fce:	d000      	beq.n	10006fd2 <_vsnprintf+0x57e>
10006fd0:	e166      	b.n	100072a0 <_vsnprintf+0x84c>
10006fd2:	2380      	movs	r3, #128	; 0x80
10006fd4:	0011      	movs	r1, r2
10006fd6:	005b      	lsls	r3, r3, #1
10006fd8:	4019      	ands	r1, r3
10006fda:	468a      	mov	sl, r1
10006fdc:	421a      	tst	r2, r3
10006fde:	d000      	beq.n	10006fe2 <_vsnprintf+0x58e>
10006fe0:	e239      	b.n	10007456 <_vsnprintf+0xa02>
10006fe2:	0013      	movs	r3, r2
10006fe4:	065b      	lsls	r3, r3, #25
10006fe6:	d500      	bpl.n	10006fea <_vsnprintf+0x596>
10006fe8:	e13c      	b.n	10007264 <_vsnprintf+0x810>
10006fea:	0013      	movs	r3, r2
10006fec:	061b      	lsls	r3, r3, #24
10006fee:	d400      	bmi.n	10006ff2 <_vsnprintf+0x59e>
10006ff0:	e2a6      	b.n	10007540 <_vsnprintf+0xaec>
10006ff2:	9b09      	ldr	r3, [sp, #36]	; 0x24
10006ff4:	cb04      	ldmia	r3!, {r2}
10006ff6:	0412      	lsls	r2, r2, #16
10006ff8:	0c12      	lsrs	r2, r2, #16
10006ffa:	4693      	mov	fp, r2
10006ffc:	9309      	str	r3, [sp, #36]	; 0x24
10006ffe:	465b      	mov	r3, fp
10007000:	2b00      	cmp	r3, #0
10007002:	d000      	beq.n	10007006 <_vsnprintf+0x5b2>
10007004:	e19a      	b.n	1000733c <_vsnprintf+0x8e8>
10007006:	9a0b      	ldr	r2, [sp, #44]	; 0x2c
10007008:	3310      	adds	r3, #16
1000700a:	0011      	movs	r1, r2
1000700c:	4399      	bics	r1, r3
1000700e:	910b      	str	r1, [sp, #44]	; 0x2c
10007010:	0552      	lsls	r2, r2, #21
10007012:	d400      	bmi.n	10007016 <_vsnprintf+0x5c2>
10007014:	e192      	b.n	1000733c <_vsnprintf+0x8e8>
10007016:	2300      	movs	r3, #0
10007018:	469a      	mov	sl, r3
1000701a:	9b0b      	ldr	r3, [sp, #44]	; 0x2c
1000701c:	9306      	str	r3, [sp, #24]
1000701e:	9b0a      	ldr	r3, [sp, #40]	; 0x28
10007020:	9305      	str	r3, [sp, #20]
10007022:	4643      	mov	r3, r8
10007024:	9304      	str	r3, [sp, #16]
10007026:	9b0c      	ldr	r3, [sp, #48]	; 0x30
10007028:	9303      	str	r3, [sp, #12]
1000702a:	2300      	movs	r3, #0
1000702c:	e10c      	b.n	10007248 <_vsnprintf+0x7f4>
1000702e:	2320      	movs	r3, #32
10007030:	4319      	orrs	r1, r3
10007032:	e660      	b.n	10006cf6 <_vsnprintf+0x2a2>
10007034:	9b09      	ldr	r3, [sp, #36]	; 0x24
10007036:	9a0a      	ldr	r2, [sp, #40]	; 0x28
10007038:	1b5b      	subs	r3, r3, r5
1000703a:	4698      	mov	r8, r3
1000703c:	464b      	mov	r3, r9
1000703e:	4691      	mov	r9, r2
10007040:	001f      	movs	r7, r3
10007042:	46b2      	mov	sl, r6
10007044:	0026      	movs	r6, r4
10007046:	9c08      	ldr	r4, [sp, #32]
10007048:	002a      	movs	r2, r5
1000704a:	003b      	movs	r3, r7
1000704c:	0031      	movs	r1, r6
1000704e:	47a0      	blx	r4
10007050:	4643      	mov	r3, r8
10007052:	3501      	adds	r5, #1
10007054:	5d58      	ldrb	r0, [r3, r5]
10007056:	2800      	cmp	r0, #0
10007058:	d1f6      	bne.n	10007048 <_vsnprintf+0x5f4>
1000705a:	464a      	mov	r2, r9
1000705c:	0034      	movs	r4, r6
1000705e:	46b9      	mov	r9, r7
10007060:	4656      	mov	r6, sl
10007062:	920a      	str	r2, [sp, #40]	; 0x28
10007064:	e6f5      	b.n	10006e52 <_vsnprintf+0x3fe>
10007066:	23c0      	movs	r3, #192	; 0xc0
10007068:	009b      	lsls	r3, r3, #2
1000706a:	78b0      	ldrb	r0, [r6, #2]
1000706c:	4319      	orrs	r1, r3
1000706e:	3602      	adds	r6, #2
10007070:	e55d      	b.n	10006b2e <_vsnprintf+0xda>
10007072:	23c0      	movs	r3, #192	; 0xc0
10007074:	78b0      	ldrb	r0, [r6, #2]
10007076:	4319      	orrs	r1, r3
10007078:	3602      	adds	r6, #2
1000707a:	e558      	b.n	10006b2e <_vsnprintf+0xda>
1000707c:	230c      	movs	r3, #12
1000707e:	000a      	movs	r2, r1
10007080:	439a      	bics	r2, r3
10007082:	3314      	adds	r3, #20
10007084:	431a      	orrs	r2, r3
10007086:	3b10      	subs	r3, #16
10007088:	920b      	str	r2, [sp, #44]	; 0x2c
1000708a:	930c      	str	r3, [sp, #48]	; 0x30
1000708c:	054b      	lsls	r3, r1, #21
1000708e:	d48d      	bmi.n	10006fac <_vsnprintf+0x558>
10007090:	e796      	b.n	10006fc0 <_vsnprintf+0x56c>
10007092:	46a1      	mov	r9, r4
10007094:	0034      	movs	r4, r6
10007096:	4656      	mov	r6, sl
10007098:	e6db      	b.n	10006e52 <_vsnprintf+0x3fe>
1000709a:	9a0a      	ldr	r2, [sp, #40]	; 0x28
1000709c:	2a01      	cmp	r2, #1
1000709e:	d800      	bhi.n	100070a2 <_vsnprintf+0x64e>
100070a0:	e253      	b.n	1000754a <_vsnprintf+0xaf6>
100070a2:	1e6b      	subs	r3, r5, #1
100070a4:	189f      	adds	r7, r3, r2
100070a6:	9b08      	ldr	r3, [sp, #32]
100070a8:	46b0      	mov	r8, r6
100070aa:	0026      	movs	r6, r4
100070ac:	464c      	mov	r4, r9
100070ae:	4699      	mov	r9, r3
100070b0:	002a      	movs	r2, r5
100070b2:	0023      	movs	r3, r4
100070b4:	3501      	adds	r5, #1
100070b6:	0031      	movs	r1, r6
100070b8:	2020      	movs	r0, #32
100070ba:	47c8      	blx	r9
100070bc:	42bd      	cmp	r5, r7
100070be:	d1f7      	bne.n	100070b0 <_vsnprintf+0x65c>
100070c0:	46a1      	mov	r9, r4
100070c2:	0034      	movs	r4, r6
100070c4:	4646      	mov	r6, r8
100070c6:	9b09      	ldr	r3, [sp, #36]	; 0x24
100070c8:	003a      	movs	r2, r7
100070ca:	cb01      	ldmia	r3!, {r0}
100070cc:	0021      	movs	r1, r4
100070ce:	4698      	mov	r8, r3
100070d0:	1c7d      	adds	r5, r7, #1
100070d2:	464b      	mov	r3, r9
100070d4:	9f08      	ldr	r7, [sp, #32]
100070d6:	b2c0      	uxtb	r0, r0
100070d8:	47b8      	blx	r7
100070da:	4643      	mov	r3, r8
100070dc:	3601      	adds	r6, #1
100070de:	9309      	str	r3, [sp, #36]	; 0x24
100070e0:	e4dd      	b.n	10006a9e <_vsnprintf+0x4a>
100070e2:	9b0b      	ldr	r3, [sp, #44]	; 0x2c
100070e4:	9a0a      	ldr	r2, [sp, #40]	; 0x28
100070e6:	46a8      	mov	r8, r5
100070e8:	429a      	cmp	r2, r3
100070ea:	d800      	bhi.n	100070ee <_vsnprintf+0x69a>
100070ec:	e6b5      	b.n	10006e5a <_vsnprintf+0x406>
100070ee:	4694      	mov	ip, r2
100070f0:	4465      	add	r5, ip
100070f2:	1aed      	subs	r5, r5, r3
100070f4:	9b08      	ldr	r3, [sp, #32]
100070f6:	4647      	mov	r7, r8
100070f8:	46b0      	mov	r8, r6
100070fa:	0026      	movs	r6, r4
100070fc:	464c      	mov	r4, r9
100070fe:	4699      	mov	r9, r3
10007100:	003a      	movs	r2, r7
10007102:	0023      	movs	r3, r4
10007104:	3701      	adds	r7, #1
10007106:	0031      	movs	r1, r6
10007108:	2020      	movs	r0, #32
1000710a:	47c8      	blx	r9
1000710c:	42af      	cmp	r7, r5
1000710e:	d1f7      	bne.n	10007100 <_vsnprintf+0x6ac>
10007110:	46a1      	mov	r9, r4
10007112:	0034      	movs	r4, r6
10007114:	4646      	mov	r6, r8
10007116:	e6a0      	b.n	10006e5a <_vsnprintf+0x406>
10007118:	9a0b      	ldr	r2, [sp, #44]	; 0x2c
1000711a:	990a      	ldr	r1, [sp, #40]	; 0x28
1000711c:	1c53      	adds	r3, r2, #1
1000711e:	4291      	cmp	r1, r2
10007120:	d800      	bhi.n	10007124 <_vsnprintf+0x6d0>
10007122:	e214      	b.n	1000754e <_vsnprintf+0xafa>
10007124:	194b      	adds	r3, r1, r5
10007126:	1a9b      	subs	r3, r3, r2
10007128:	001f      	movs	r7, r3
1000712a:	9b08      	ldr	r3, [sp, #32]
1000712c:	46b2      	mov	sl, r6
1000712e:	0026      	movs	r6, r4
10007130:	464c      	mov	r4, r9
10007132:	4699      	mov	r9, r3
10007134:	002a      	movs	r2, r5
10007136:	0023      	movs	r3, r4
10007138:	3501      	adds	r5, #1
1000713a:	0031      	movs	r1, r6
1000713c:	2020      	movs	r0, #32
1000713e:	47c8      	blx	r9
10007140:	42bd      	cmp	r5, r7
10007142:	d1f7      	bne.n	10007134 <_vsnprintf+0x6e0>
10007144:	9b0a      	ldr	r3, [sp, #40]	; 0x28
10007146:	46a1      	mov	r9, r4
10007148:	3301      	adds	r3, #1
1000714a:	930b      	str	r3, [sp, #44]	; 0x2c
1000714c:	9b09      	ldr	r3, [sp, #36]	; 0x24
1000714e:	0034      	movs	r4, r6
10007150:	781b      	ldrb	r3, [r3, #0]
10007152:	4656      	mov	r6, sl
10007154:	469c      	mov	ip, r3
10007156:	4660      	mov	r0, ip
10007158:	2800      	cmp	r0, #0
1000715a:	d000      	beq.n	1000715e <_vsnprintf+0x70a>
1000715c:	e658      	b.n	10006e10 <_vsnprintf+0x3bc>
1000715e:	e67c      	b.n	10006e5a <_vsnprintf+0x406>
10007160:	2207      	movs	r2, #7
10007162:	9b09      	ldr	r3, [sp, #36]	; 0x24
10007164:	3307      	adds	r3, #7
10007166:	4393      	bics	r3, r2
10007168:	3201      	adds	r2, #1
1000716a:	4694      	mov	ip, r2
1000716c:	449c      	add	ip, r3
1000716e:	4662      	mov	r2, ip
10007170:	685f      	ldr	r7, [r3, #4]
10007172:	9209      	str	r2, [sp, #36]	; 0x24
10007174:	681a      	ldr	r2, [r3, #0]
10007176:	17fb      	asrs	r3, r7, #31
10007178:	9310      	str	r3, [sp, #64]	; 0x40
1000717a:	9311      	str	r3, [sp, #68]	; 0x44
1000717c:	9810      	ldr	r0, [sp, #64]	; 0x40
1000717e:	9911      	ldr	r1, [sp, #68]	; 0x44
10007180:	0003      	movs	r3, r0
10007182:	4053      	eors	r3, r2
10007184:	930e      	str	r3, [sp, #56]	; 0x38
10007186:	000b      	movs	r3, r1
10007188:	407b      	eors	r3, r7
1000718a:	930f      	str	r3, [sp, #60]	; 0x3c
1000718c:	4694      	mov	ip, r2
1000718e:	9a0e      	ldr	r2, [sp, #56]	; 0x38
10007190:	9b0f      	ldr	r3, [sp, #60]	; 0x3c
10007192:	1a12      	subs	r2, r2, r0
10007194:	418b      	sbcs	r3, r1
10007196:	920e      	str	r2, [sp, #56]	; 0x38
10007198:	930f      	str	r3, [sp, #60]	; 0x3c
1000719a:	0ffb      	lsrs	r3, r7, #31
1000719c:	4662      	mov	r2, ip
1000719e:	9312      	str	r3, [sp, #72]	; 0x48
100071a0:	2300      	movs	r3, #0
100071a2:	433a      	orrs	r2, r7
100071a4:	469b      	mov	fp, r3
100071a6:	d03d      	beq.n	10007224 <_vsnprintf+0x7d0>
100071a8:	9a0b      	ldr	r2, [sp, #44]	; 0x2c
100071aa:	2361      	movs	r3, #97	; 0x61
100071ac:	0692      	lsls	r2, r2, #26
100071ae:	d500      	bpl.n	100071b2 <_vsnprintf+0x75e>
100071b0:	2341      	movs	r3, #65	; 0x41
100071b2:	2200      	movs	r2, #0
100071b4:	b2db      	uxtb	r3, r3
100071b6:	a90e      	add	r1, sp, #56	; 0x38
100071b8:	3b0a      	subs	r3, #10
100071ba:	468c      	mov	ip, r1
100071bc:	4692      	mov	sl, r2
100071be:	930d      	str	r3, [sp, #52]	; 0x34
100071c0:	4643      	mov	r3, r8
100071c2:	321f      	adds	r2, #31
100071c4:	4462      	add	r2, ip
100071c6:	9513      	str	r5, [sp, #76]	; 0x4c
100071c8:	9615      	str	r6, [sp, #84]	; 0x54
100071ca:	4655      	mov	r5, sl
100071cc:	9e0e      	ldr	r6, [sp, #56]	; 0x38
100071ce:	9f0f      	ldr	r7, [sp, #60]	; 0x3c
100071d0:	46a2      	mov	sl, r4
100071d2:	4690      	mov	r8, r2
100071d4:	9c0c      	ldr	r4, [sp, #48]	; 0x30
100071d6:	9314      	str	r3, [sp, #80]	; 0x50
100071d8:	e00c      	b.n	100071f4 <_vsnprintf+0x7a0>
100071da:	3230      	adds	r2, #48	; 0x30
100071dc:	b2d2      	uxtb	r2, r2
100071de:	4643      	mov	r3, r8
100071e0:	3501      	adds	r5, #1
100071e2:	555a      	strb	r2, [r3, r5]
100071e4:	45bb      	cmp	fp, r7
100071e6:	d100      	bne.n	100071ea <_vsnprintf+0x796>
100071e8:	e18a      	b.n	10007500 <_vsnprintf+0xaac>
100071ea:	2d20      	cmp	r5, #32
100071ec:	d100      	bne.n	100071f0 <_vsnprintf+0x79c>
100071ee:	e18a      	b.n	10007506 <_vsnprintf+0xab2>
100071f0:	0006      	movs	r6, r0
100071f2:	000f      	movs	r7, r1
100071f4:	0022      	movs	r2, r4
100071f6:	2300      	movs	r3, #0
100071f8:	0030      	movs	r0, r6
100071fa:	0039      	movs	r1, r7
100071fc:	f000 fa78 	bl	100076f0 <__wrap___aeabi_uldivmod>
10007200:	b2d2      	uxtb	r2, r2
10007202:	2a09      	cmp	r2, #9
10007204:	d9e9      	bls.n	100071da <_vsnprintf+0x786>
10007206:	9b0d      	ldr	r3, [sp, #52]	; 0x34
10007208:	469c      	mov	ip, r3
1000720a:	4462      	add	r2, ip
1000720c:	b2d2      	uxtb	r2, r2
1000720e:	e7e6      	b.n	100071de <_vsnprintf+0x78a>
10007210:	23ff      	movs	r3, #255	; 0xff
10007212:	9909      	ldr	r1, [sp, #36]	; 0x24
10007214:	c904      	ldmia	r1!, {r2}
10007216:	4013      	ands	r3, r2
10007218:	001a      	movs	r2, r3
1000721a:	9109      	str	r1, [sp, #36]	; 0x24
1000721c:	e517      	b.n	10006c4e <_vsnprintf+0x1fa>
1000721e:	46c0      	nop			; (mov r8, r8)
10007220:	10005fe5 	.word	0x10005fe5
10007224:	9a0b      	ldr	r2, [sp, #44]	; 0x2c
10007226:	3310      	adds	r3, #16
10007228:	0011      	movs	r1, r2
1000722a:	4399      	bics	r1, r3
1000722c:	910b      	str	r1, [sp, #44]	; 0x2c
1000722e:	0552      	lsls	r2, r2, #21
10007230:	d5ba      	bpl.n	100071a8 <_vsnprintf+0x754>
10007232:	2300      	movs	r3, #0
10007234:	469a      	mov	sl, r3
10007236:	9b0b      	ldr	r3, [sp, #44]	; 0x2c
10007238:	9306      	str	r3, [sp, #24]
1000723a:	9b0a      	ldr	r3, [sp, #40]	; 0x28
1000723c:	9305      	str	r3, [sp, #20]
1000723e:	4643      	mov	r3, r8
10007240:	9304      	str	r3, [sp, #16]
10007242:	9b0c      	ldr	r3, [sp, #48]	; 0x30
10007244:	9303      	str	r3, [sp, #12]
10007246:	9b12      	ldr	r3, [sp, #72]	; 0x48
10007248:	9302      	str	r3, [sp, #8]
1000724a:	4653      	mov	r3, sl
1000724c:	9301      	str	r3, [sp, #4]
1000724e:	ab16      	add	r3, sp, #88	; 0x58
10007250:	002a      	movs	r2, r5
10007252:	9300      	str	r3, [sp, #0]
10007254:	0021      	movs	r1, r4
10007256:	464b      	mov	r3, r9
10007258:	9808      	ldr	r0, [sp, #32]
1000725a:	f7fe ff13 	bl	10006084 <_ntoa_format>
1000725e:	3601      	adds	r6, #1
10007260:	0005      	movs	r5, r0
10007262:	e41c      	b.n	10006a9e <_vsnprintf+0x4a>
10007264:	22ff      	movs	r2, #255	; 0xff
10007266:	9b09      	ldr	r3, [sp, #36]	; 0x24
10007268:	cb02      	ldmia	r3!, {r1}
1000726a:	4011      	ands	r1, r2
1000726c:	468b      	mov	fp, r1
1000726e:	9309      	str	r3, [sp, #36]	; 0x24
10007270:	e6c5      	b.n	10006ffe <_vsnprintf+0x5aa>
10007272:	4653      	mov	r3, sl
10007274:	4645      	mov	r5, r8
10007276:	9309      	str	r3, [sp, #36]	; 0x24
10007278:	3601      	adds	r6, #1
1000727a:	f7ff fc10 	bl	10006a9e <_vsnprintf+0x4a>
1000727e:	4656      	mov	r6, sl
10007280:	465c      	mov	r4, fp
10007282:	46aa      	mov	sl, r5
10007284:	9d13      	ldr	r5, [sp, #76]	; 0x4c
10007286:	e7d6      	b.n	10007236 <_vsnprintf+0x7e2>
10007288:	2308      	movs	r3, #8
1000728a:	930c      	str	r3, [sp, #48]	; 0x30
1000728c:	910b      	str	r1, [sp, #44]	; 0x2c
1000728e:	990b      	ldr	r1, [sp, #44]	; 0x2c
10007290:	2864      	cmp	r0, #100	; 0x64
10007292:	d000      	beq.n	10007296 <_vsnprintf+0x842>
10007294:	e684      	b.n	10006fa0 <_vsnprintf+0x54c>
10007296:	9b0b      	ldr	r3, [sp, #44]	; 0x2c
10007298:	055b      	lsls	r3, r3, #21
1000729a:	d500      	bpl.n	1000729e <_vsnprintf+0x84a>
1000729c:	e686      	b.n	10006fac <_vsnprintf+0x558>
1000729e:	e4b4      	b.n	10006c0a <_vsnprintf+0x1b6>
100072a0:	2207      	movs	r2, #7
100072a2:	9b09      	ldr	r3, [sp, #36]	; 0x24
100072a4:	3307      	adds	r3, #7
100072a6:	4393      	bics	r3, r2
100072a8:	3201      	adds	r2, #1
100072aa:	4694      	mov	ip, r2
100072ac:	449c      	add	ip, r3
100072ae:	4662      	mov	r2, ip
100072b0:	9209      	str	r2, [sp, #36]	; 0x24
100072b2:	681a      	ldr	r2, [r3, #0]
100072b4:	685b      	ldr	r3, [r3, #4]
100072b6:	0010      	movs	r0, r2
100072b8:	469b      	mov	fp, r3
100072ba:	0013      	movs	r3, r2
100072bc:	465a      	mov	r2, fp
100072be:	4313      	orrs	r3, r2
100072c0:	d107      	bne.n	100072d2 <_vsnprintf+0x87e>
100072c2:	9a0b      	ldr	r2, [sp, #44]	; 0x2c
100072c4:	3310      	adds	r3, #16
100072c6:	0011      	movs	r1, r2
100072c8:	4399      	bics	r1, r3
100072ca:	910b      	str	r1, [sp, #44]	; 0x2c
100072cc:	0552      	lsls	r2, r2, #21
100072ce:	d500      	bpl.n	100072d2 <_vsnprintf+0x87e>
100072d0:	e6a1      	b.n	10007016 <_vsnprintf+0x5c2>
100072d2:	9a0b      	ldr	r2, [sp, #44]	; 0x2c
100072d4:	2361      	movs	r3, #97	; 0x61
100072d6:	0692      	lsls	r2, r2, #26
100072d8:	d500      	bpl.n	100072dc <_vsnprintf+0x888>
100072da:	2341      	movs	r3, #65	; 0x41
100072dc:	2200      	movs	r2, #0
100072de:	b2db      	uxtb	r3, r3
100072e0:	a90e      	add	r1, sp, #56	; 0x38
100072e2:	3b0a      	subs	r3, #10
100072e4:	468c      	mov	ip, r1
100072e6:	4692      	mov	sl, r2
100072e8:	930d      	str	r3, [sp, #52]	; 0x34
100072ea:	4643      	mov	r3, r8
100072ec:	321f      	adds	r2, #31
100072ee:	4462      	add	r2, ip
100072f0:	465f      	mov	r7, fp
100072f2:	9512      	str	r5, [sp, #72]	; 0x48
100072f4:	46a3      	mov	fp, r4
100072f6:	4655      	mov	r5, sl
100072f8:	0004      	movs	r4, r0
100072fa:	46b2      	mov	sl, r6
100072fc:	4690      	mov	r8, r2
100072fe:	9e0c      	ldr	r6, [sp, #48]	; 0x30
10007300:	9313      	str	r3, [sp, #76]	; 0x4c
10007302:	e00d      	b.n	10007320 <_vsnprintf+0x8cc>
10007304:	3230      	adds	r2, #48	; 0x30
10007306:	b2d2      	uxtb	r2, r2
10007308:	4643      	mov	r3, r8
1000730a:	3501      	adds	r5, #1
1000730c:	555a      	strb	r2, [r3, r5]
1000730e:	2300      	movs	r3, #0
10007310:	42bb      	cmp	r3, r7
10007312:	d100      	bne.n	10007316 <_vsnprintf+0x8c2>
10007314:	e100      	b.n	10007518 <_vsnprintf+0xac4>
10007316:	2d20      	cmp	r5, #32
10007318:	d100      	bne.n	1000731c <_vsnprintf+0x8c8>
1000731a:	e100      	b.n	1000751e <_vsnprintf+0xaca>
1000731c:	0004      	movs	r4, r0
1000731e:	000f      	movs	r7, r1
10007320:	0032      	movs	r2, r6
10007322:	2300      	movs	r3, #0
10007324:	0020      	movs	r0, r4
10007326:	0039      	movs	r1, r7
10007328:	f000 f9e2 	bl	100076f0 <__wrap___aeabi_uldivmod>
1000732c:	b2d2      	uxtb	r2, r2
1000732e:	2a09      	cmp	r2, #9
10007330:	d9e8      	bls.n	10007304 <_vsnprintf+0x8b0>
10007332:	9b0d      	ldr	r3, [sp, #52]	; 0x34
10007334:	469c      	mov	ip, r3
10007336:	4462      	add	r2, ip
10007338:	b2d2      	uxtb	r2, r2
1000733a:	e7e5      	b.n	10007308 <_vsnprintf+0x8b4>
1000733c:	9a0b      	ldr	r2, [sp, #44]	; 0x2c
1000733e:	2361      	movs	r3, #97	; 0x61
10007340:	0692      	lsls	r2, r2, #26
10007342:	d500      	bpl.n	10007346 <_vsnprintf+0x8f2>
10007344:	2341      	movs	r3, #65	; 0x41
10007346:	b2db      	uxtb	r3, r3
10007348:	a90e      	add	r1, sp, #56	; 0x38
1000734a:	3b0a      	subs	r3, #10
1000734c:	221f      	movs	r2, #31
1000734e:	468c      	mov	ip, r1
10007350:	930d      	str	r3, [sp, #52]	; 0x34
10007352:	0023      	movs	r3, r4
10007354:	4462      	add	r2, ip
10007356:	465c      	mov	r4, fp
10007358:	9512      	str	r5, [sp, #72]	; 0x48
1000735a:	0017      	movs	r7, r2
1000735c:	4655      	mov	r5, sl
1000735e:	469b      	mov	fp, r3
10007360:	46b2      	mov	sl, r6
10007362:	9e0c      	ldr	r6, [sp, #48]	; 0x30
10007364:	e008      	b.n	10007378 <_vsnprintf+0x924>
10007366:	3330      	adds	r3, #48	; 0x30
10007368:	b2db      	uxtb	r3, r3
1000736a:	3501      	adds	r5, #1
1000736c:	557b      	strb	r3, [r7, r5]
1000736e:	42b4      	cmp	r4, r6
10007370:	d30e      	bcc.n	10007390 <_vsnprintf+0x93c>
10007372:	2d20      	cmp	r5, #32
10007374:	d00c      	beq.n	10007390 <_vsnprintf+0x93c>
10007376:	0004      	movs	r4, r0
10007378:	0031      	movs	r1, r6
1000737a:	0020      	movs	r0, r4
1000737c:	f000 f976 	bl	1000766c <__wrap___aeabi_uidiv>
10007380:	b2cb      	uxtb	r3, r1
10007382:	2909      	cmp	r1, #9
10007384:	d9ef      	bls.n	10007366 <_vsnprintf+0x912>
10007386:	9a0d      	ldr	r2, [sp, #52]	; 0x34
10007388:	4694      	mov	ip, r2
1000738a:	4463      	add	r3, ip
1000738c:	b2db      	uxtb	r3, r3
1000738e:	e7ec      	b.n	1000736a <_vsnprintf+0x916>
10007390:	4656      	mov	r6, sl
10007392:	465c      	mov	r4, fp
10007394:	46aa      	mov	sl, r5
10007396:	9d12      	ldr	r5, [sp, #72]	; 0x48
10007398:	e63f      	b.n	1000701a <_vsnprintf+0x5c6>
1000739a:	9b09      	ldr	r3, [sp, #36]	; 0x24
1000739c:	001a      	movs	r2, r3
1000739e:	ca08      	ldmia	r2!, {r3}
100073a0:	17d9      	asrs	r1, r3, #31
100073a2:	9213      	str	r2, [sp, #76]	; 0x4c
100073a4:	185a      	adds	r2, r3, r1
100073a6:	404a      	eors	r2, r1
100073a8:	4692      	mov	sl, r2
100073aa:	0fda      	lsrs	r2, r3, #31
100073ac:	9212      	str	r2, [sp, #72]	; 0x48
100073ae:	2b00      	cmp	r3, #0
100073b0:	d108      	bne.n	100073c4 <_vsnprintf+0x970>
100073b2:	2380      	movs	r3, #128	; 0x80
100073b4:	2210      	movs	r2, #16
100073b6:	990b      	ldr	r1, [sp, #44]	; 0x2c
100073b8:	00db      	lsls	r3, r3, #3
100073ba:	400b      	ands	r3, r1
100073bc:	4391      	bics	r1, r2
100073be:	910b      	str	r1, [sp, #44]	; 0x2c
100073c0:	2b00      	cmp	r3, #0
100073c2:	d12b      	bne.n	1000741c <_vsnprintf+0x9c8>
100073c4:	9a0b      	ldr	r2, [sp, #44]	; 0x2c
100073c6:	2361      	movs	r3, #97	; 0x61
100073c8:	0692      	lsls	r2, r2, #26
100073ca:	d500      	bpl.n	100073ce <_vsnprintf+0x97a>
100073cc:	2341      	movs	r3, #65	; 0x41
100073ce:	aa0e      	add	r2, sp, #56	; 0x38
100073d0:	271f      	movs	r7, #31
100073d2:	4694      	mov	ip, r2
100073d4:	b2db      	uxtb	r3, r3
100073d6:	3b0a      	subs	r3, #10
100073d8:	950d      	str	r5, [sp, #52]	; 0x34
100073da:	4467      	add	r7, ip
100073dc:	465d      	mov	r5, fp
100073de:	9309      	str	r3, [sp, #36]	; 0x24
100073e0:	46a3      	mov	fp, r4
100073e2:	4654      	mov	r4, sl
100073e4:	46b2      	mov	sl, r6
100073e6:	9e0c      	ldr	r6, [sp, #48]	; 0x30
100073e8:	e008      	b.n	100073fc <_vsnprintf+0x9a8>
100073ea:	3330      	adds	r3, #48	; 0x30
100073ec:	b2db      	uxtb	r3, r3
100073ee:	3501      	adds	r5, #1
100073f0:	557b      	strb	r3, [r7, r5]
100073f2:	42b4      	cmp	r4, r6
100073f4:	d30e      	bcc.n	10007414 <_vsnprintf+0x9c0>
100073f6:	2d20      	cmp	r5, #32
100073f8:	d00c      	beq.n	10007414 <_vsnprintf+0x9c0>
100073fa:	0004      	movs	r4, r0
100073fc:	0031      	movs	r1, r6
100073fe:	0020      	movs	r0, r4
10007400:	f000 f934 	bl	1000766c <__wrap___aeabi_uidiv>
10007404:	b2cb      	uxtb	r3, r1
10007406:	2909      	cmp	r1, #9
10007408:	d9ef      	bls.n	100073ea <_vsnprintf+0x996>
1000740a:	9a09      	ldr	r2, [sp, #36]	; 0x24
1000740c:	4694      	mov	ip, r2
1000740e:	4463      	add	r3, ip
10007410:	b2db      	uxtb	r3, r3
10007412:	e7ec      	b.n	100073ee <_vsnprintf+0x99a>
10007414:	4656      	mov	r6, sl
10007416:	465c      	mov	r4, fp
10007418:	46ab      	mov	fp, r5
1000741a:	9d0d      	ldr	r5, [sp, #52]	; 0x34
1000741c:	9b0b      	ldr	r3, [sp, #44]	; 0x2c
1000741e:	002a      	movs	r2, r5
10007420:	9306      	str	r3, [sp, #24]
10007422:	9b0a      	ldr	r3, [sp, #40]	; 0x28
10007424:	0021      	movs	r1, r4
10007426:	9305      	str	r3, [sp, #20]
10007428:	4643      	mov	r3, r8
1000742a:	9304      	str	r3, [sp, #16]
1000742c:	9b0c      	ldr	r3, [sp, #48]	; 0x30
1000742e:	9808      	ldr	r0, [sp, #32]
10007430:	9303      	str	r3, [sp, #12]
10007432:	9b12      	ldr	r3, [sp, #72]	; 0x48
10007434:	3601      	adds	r6, #1
10007436:	9302      	str	r3, [sp, #8]
10007438:	465b      	mov	r3, fp
1000743a:	9301      	str	r3, [sp, #4]
1000743c:	ab16      	add	r3, sp, #88	; 0x58
1000743e:	9300      	str	r3, [sp, #0]
10007440:	464b      	mov	r3, r9
10007442:	f7fe fe1f 	bl	10006084 <_ntoa_format>
10007446:	9b13      	ldr	r3, [sp, #76]	; 0x4c
10007448:	0005      	movs	r5, r0
1000744a:	9309      	str	r3, [sp, #36]	; 0x24
1000744c:	f7ff fb27 	bl	10006a9e <_vsnprintf+0x4a>
10007450:	2302      	movs	r3, #2
10007452:	930c      	str	r3, [sp, #48]	; 0x30
10007454:	e71a      	b.n	1000728c <_vsnprintf+0x838>
10007456:	9b09      	ldr	r3, [sp, #36]	; 0x24
10007458:	cb04      	ldmia	r3!, {r2}
1000745a:	4692      	mov	sl, r2
1000745c:	9312      	str	r3, [sp, #72]	; 0x48
1000745e:	2a00      	cmp	r2, #0
10007460:	d108      	bne.n	10007474 <_vsnprintf+0xa20>
10007462:	2380      	movs	r3, #128	; 0x80
10007464:	2210      	movs	r2, #16
10007466:	990b      	ldr	r1, [sp, #44]	; 0x2c
10007468:	00db      	lsls	r3, r3, #3
1000746a:	400b      	ands	r3, r1
1000746c:	4391      	bics	r1, r2
1000746e:	910b      	str	r1, [sp, #44]	; 0x2c
10007470:	2b00      	cmp	r3, #0
10007472:	d12b      	bne.n	100074cc <_vsnprintf+0xa78>
10007474:	9a0b      	ldr	r2, [sp, #44]	; 0x2c
10007476:	2361      	movs	r3, #97	; 0x61
10007478:	0692      	lsls	r2, r2, #26
1000747a:	d500      	bpl.n	1000747e <_vsnprintf+0xa2a>
1000747c:	2341      	movs	r3, #65	; 0x41
1000747e:	aa0e      	add	r2, sp, #56	; 0x38
10007480:	271f      	movs	r7, #31
10007482:	4694      	mov	ip, r2
10007484:	b2db      	uxtb	r3, r3
10007486:	3b0a      	subs	r3, #10
10007488:	950d      	str	r5, [sp, #52]	; 0x34
1000748a:	4467      	add	r7, ip
1000748c:	465d      	mov	r5, fp
1000748e:	9309      	str	r3, [sp, #36]	; 0x24
10007490:	46a3      	mov	fp, r4
10007492:	4654      	mov	r4, sl
10007494:	46b2      	mov	sl, r6
10007496:	9e0c      	ldr	r6, [sp, #48]	; 0x30
10007498:	e008      	b.n	100074ac <_vsnprintf+0xa58>
1000749a:	3330      	adds	r3, #48	; 0x30
1000749c:	b2db      	uxtb	r3, r3
1000749e:	3501      	adds	r5, #1
100074a0:	557b      	strb	r3, [r7, r5]
100074a2:	42b4      	cmp	r4, r6
100074a4:	d30e      	bcc.n	100074c4 <_vsnprintf+0xa70>
100074a6:	2d20      	cmp	r5, #32
100074a8:	d00c      	beq.n	100074c4 <_vsnprintf+0xa70>
100074aa:	0004      	movs	r4, r0
100074ac:	0031      	movs	r1, r6
100074ae:	0020      	movs	r0, r4
100074b0:	f000 f8dc 	bl	1000766c <__wrap___aeabi_uidiv>
100074b4:	b2cb      	uxtb	r3, r1
100074b6:	2909      	cmp	r1, #9
100074b8:	d9ef      	bls.n	1000749a <_vsnprintf+0xa46>
100074ba:	9a09      	ldr	r2, [sp, #36]	; 0x24
100074bc:	4694      	mov	ip, r2
100074be:	4463      	add	r3, ip
100074c0:	b2db      	uxtb	r3, r3
100074c2:	e7ec      	b.n	1000749e <_vsnprintf+0xa4a>
100074c4:	4656      	mov	r6, sl
100074c6:	465c      	mov	r4, fp
100074c8:	46ab      	mov	fp, r5
100074ca:	9d0d      	ldr	r5, [sp, #52]	; 0x34
100074cc:	9b0b      	ldr	r3, [sp, #44]	; 0x2c
100074ce:	002a      	movs	r2, r5
100074d0:	9306      	str	r3, [sp, #24]
100074d2:	9b0a      	ldr	r3, [sp, #40]	; 0x28
100074d4:	0021      	movs	r1, r4
100074d6:	9305      	str	r3, [sp, #20]
100074d8:	4643      	mov	r3, r8
100074da:	9304      	str	r3, [sp, #16]
100074dc:	9b0c      	ldr	r3, [sp, #48]	; 0x30
100074de:	9808      	ldr	r0, [sp, #32]
100074e0:	9303      	str	r3, [sp, #12]
100074e2:	2300      	movs	r3, #0
100074e4:	9302      	str	r3, [sp, #8]
100074e6:	465b      	mov	r3, fp
100074e8:	9301      	str	r3, [sp, #4]
100074ea:	ab16      	add	r3, sp, #88	; 0x58
100074ec:	9300      	str	r3, [sp, #0]
100074ee:	464b      	mov	r3, r9
100074f0:	f7fe fdc8 	bl	10006084 <_ntoa_format>
100074f4:	9b12      	ldr	r3, [sp, #72]	; 0x48
100074f6:	0005      	movs	r5, r0
100074f8:	9309      	str	r3, [sp, #36]	; 0x24
100074fa:	3601      	adds	r6, #1
100074fc:	f7ff facf 	bl	10006a9e <_vsnprintf+0x4a>
10007500:	42b4      	cmp	r4, r6
10007502:	d800      	bhi.n	10007506 <_vsnprintf+0xab2>
10007504:	e671      	b.n	100071ea <_vsnprintf+0x796>
10007506:	9b14      	ldr	r3, [sp, #80]	; 0x50
10007508:	4654      	mov	r4, sl
1000750a:	960e      	str	r6, [sp, #56]	; 0x38
1000750c:	970f      	str	r7, [sp, #60]	; 0x3c
1000750e:	46aa      	mov	sl, r5
10007510:	4698      	mov	r8, r3
10007512:	9e15      	ldr	r6, [sp, #84]	; 0x54
10007514:	9d13      	ldr	r5, [sp, #76]	; 0x4c
10007516:	e68e      	b.n	10007236 <_vsnprintf+0x7e2>
10007518:	42a6      	cmp	r6, r4
1000751a:	d800      	bhi.n	1000751e <_vsnprintf+0xaca>
1000751c:	e6fb      	b.n	10007316 <_vsnprintf+0x8c2>
1000751e:	9b13      	ldr	r3, [sp, #76]	; 0x4c
10007520:	4656      	mov	r6, sl
10007522:	4698      	mov	r8, r3
10007524:	46aa      	mov	sl, r5
10007526:	465c      	mov	r4, fp
10007528:	9d12      	ldr	r5, [sp, #72]	; 0x48
1000752a:	e576      	b.n	1000701a <_vsnprintf+0x5c6>
1000752c:	c908      	ldmia	r1!, {r3}
1000752e:	17d8      	asrs	r0, r3, #31
10007530:	181a      	adds	r2, r3, r0
10007532:	4042      	eors	r2, r0
10007534:	9109      	str	r1, [sp, #36]	; 0x24
10007536:	f7ff fb8a 	bl	10006c4e <_vsnprintf+0x1fa>
1000753a:	2300      	movs	r3, #0
1000753c:	930b      	str	r3, [sp, #44]	; 0x2c
1000753e:	e450      	b.n	10006de2 <_vsnprintf+0x38e>
10007540:	9b09      	ldr	r3, [sp, #36]	; 0x24
10007542:	cb04      	ldmia	r3!, {r2}
10007544:	4693      	mov	fp, r2
10007546:	9309      	str	r3, [sp, #36]	; 0x24
10007548:	e559      	b.n	10006ffe <_vsnprintf+0x5aa>
1000754a:	002f      	movs	r7, r5
1000754c:	e5bb      	b.n	100070c6 <_vsnprintf+0x672>
1000754e:	930b      	str	r3, [sp, #44]	; 0x2c
10007550:	e601      	b.n	10007156 <_vsnprintf+0x702>
10007552:	3b06      	subs	r3, #6
10007554:	930c      	str	r3, [sp, #48]	; 0x30
10007556:	e69a      	b.n	1000728e <_vsnprintf+0x83a>

10007558 <vfctprintf>:
10007558:	b500      	push	{lr}
1000755a:	b085      	sub	sp, #20
1000755c:	9103      	str	r1, [sp, #12]
1000755e:	2101      	movs	r1, #1
10007560:	9002      	str	r0, [sp, #8]
10007562:	9300      	str	r3, [sp, #0]
10007564:	4803      	ldr	r0, [pc, #12]	; (10007574 <vfctprintf+0x1c>)
10007566:	0013      	movs	r3, r2
10007568:	424a      	negs	r2, r1
1000756a:	a902      	add	r1, sp, #8
1000756c:	f7ff fa72 	bl	10006a54 <_vsnprintf>
10007570:	b005      	add	sp, #20
10007572:	bd00      	pop	{pc}
10007574:	10006261 	.word	0x10006261

10007578 <weak_raw_vprintf>:
10007578:	b510      	push	{r4, lr}
1000757a:	4a09      	ldr	r2, [pc, #36]	; (100075a0 <weak_raw_vprintf+0x28>)
1000757c:	0003      	movs	r3, r0
1000757e:	6814      	ldr	r4, [r2, #0]
10007580:	b084      	sub	sp, #16
10007582:	2c00      	cmp	r4, #0
10007584:	d008      	beq.n	10007598 <weak_raw_vprintf+0x20>
10007586:	2201      	movs	r2, #1
10007588:	9100      	str	r1, [sp, #0]
1000758a:	4806      	ldr	r0, [pc, #24]	; (100075a4 <weak_raw_vprintf+0x2c>)
1000758c:	4252      	negs	r2, r2
1000758e:	a903      	add	r1, sp, #12
10007590:	47a0      	blx	r4
10007592:	2001      	movs	r0, #1
10007594:	b004      	add	sp, #16
10007596:	bd10      	pop	{r4, pc}
10007598:	f001 f864 	bl	10008664 <__wrap_puts>
1000759c:	2000      	movs	r0, #0
1000759e:	e7f9      	b.n	10007594 <weak_raw_vprintf+0x1c>
100075a0:	20009e7c 	.word	0x20009e7c
100075a4:	10006251 	.word	0x10006251

100075a8 <__aeabi_bits_init>:
100075a8:	4801      	ldr	r0, [pc, #4]	; (100075b0 <__aeabi_bits_init+0x8>)
100075aa:	2104      	movs	r1, #4
100075ac:	4b01      	ldr	r3, [pc, #4]	; (100075b4 <__aeabi_bits_init+0xc>)
100075ae:	4718      	bx	r3
100075b0:	20000410 	.word	0x20000410
100075b4:	100075d9 	.word	0x100075d9

100075b8 <rom_func_lookup>:
100075b8:	2314      	movs	r3, #20
100075ba:	b510      	push	{r4, lr}
100075bc:	0001      	movs	r1, r0
100075be:	8818      	ldrh	r0, [r3, #0]
100075c0:	3304      	adds	r3, #4
100075c2:	881b      	ldrh	r3, [r3, #0]
100075c4:	4798      	blx	r3
100075c6:	bd10      	pop	{r4, pc}

100075c8 <rom_data_lookup>:
100075c8:	2316      	movs	r3, #22
100075ca:	b510      	push	{r4, lr}
100075cc:	0001      	movs	r1, r0
100075ce:	8818      	ldrh	r0, [r3, #0]
100075d0:	3302      	adds	r3, #2
100075d2:	881b      	ldrh	r3, [r3, #0]
100075d4:	4798      	blx	r3
100075d6:	bd10      	pop	{r4, pc}

100075d8 <rom_funcs_lookup>:
100075d8:	b5f8      	push	{r3, r4, r5, r6, r7, lr}
100075da:	4647      	mov	r7, r8
100075dc:	46ce      	mov	lr, r9
100075de:	b580      	push	{r7, lr}
100075e0:	1e0f      	subs	r7, r1, #0
100075e2:	d019      	beq.n	10007618 <rom_funcs_lookup+0x40>
100075e4:	2314      	movs	r3, #20
100075e6:	4699      	mov	r9, r3
100075e8:	3304      	adds	r3, #4
100075ea:	0004      	movs	r4, r0
100075ec:	2500      	movs	r5, #0
100075ee:	2601      	movs	r6, #1
100075f0:	4698      	mov	r8, r3
100075f2:	464b      	mov	r3, r9
100075f4:	8818      	ldrh	r0, [r3, #0]
100075f6:	4643      	mov	r3, r8
100075f8:	6821      	ldr	r1, [r4, #0]
100075fa:	881b      	ldrh	r3, [r3, #0]
100075fc:	4798      	blx	r3
100075fe:	c401      	stmia	r4!, {r0}
10007600:	1e43      	subs	r3, r0, #1
10007602:	4198      	sbcs	r0, r3
10007604:	3501      	adds	r5, #1
10007606:	4240      	negs	r0, r0
10007608:	4006      	ands	r6, r0
1000760a:	42af      	cmp	r7, r5
1000760c:	d1f1      	bne.n	100075f2 <rom_funcs_lookup+0x1a>
1000760e:	0030      	movs	r0, r6
10007610:	bcc0      	pop	{r6, r7}
10007612:	46b9      	mov	r9, r7
10007614:	46b0      	mov	r8, r6
10007616:	bdf8      	pop	{r3, r4, r5, r6, r7, pc}
10007618:	2601      	movs	r6, #1
1000761a:	e7f8      	b.n	1000760e <rom_funcs_lookup+0x36>

1000761c <__wrap___aeabi_idiv>:
1000761c:	4a12      	ldr	r2, [pc, #72]	; (10007668 <divmod_s32s32_savestate+0x18>)
1000761e:	6f93      	ldr	r3, [r2, #120]	; 0x78
10007620:	089b      	lsrs	r3, r3, #2
10007622:	d215      	bcs.n	10007650 <divmod_s32s32_savestate>

10007624 <divmod_s32s32_unsafe>:
10007624:	6690      	str	r0, [r2, #104]	; 0x68
10007626:	66d1      	str	r1, [r2, #108]	; 0x6c
10007628:	2900      	cmp	r1, #0
1000762a:	d005      	beq.n	10007638 <divmod_s32s32_unsafe+0x14>
1000762c:	e7ff      	b.n	1000762e <divmod_s32s32_unsafe+0xa>
1000762e:	e7ff      	b.n	10007630 <divmod_s32s32_unsafe+0xc>
10007630:	e7ff      	b.n	10007632 <divmod_s32s32_unsafe+0xe>
10007632:	6f51      	ldr	r1, [r2, #116]	; 0x74
10007634:	6f10      	ldr	r0, [r2, #112]	; 0x70
10007636:	4770      	bx	lr
10007638:	b504      	push	{r2, lr}
1000763a:	2180      	movs	r1, #128	; 0x80
1000763c:	0609      	lsls	r1, r1, #24
1000763e:	17c2      	asrs	r2, r0, #31
10007640:	4051      	eors	r1, r2
10007642:	2800      	cmp	r0, #0
10007644:	d000      	beq.n	10007648 <divmod_s32s32_unsafe+0x24>
10007646:	43c8      	mvns	r0, r1
10007648:	f003 fdf6 	bl	1000b238 <____aeabi_idiv0_veneer>
1000764c:	2100      	movs	r1, #0
1000764e:	bd04      	pop	{r2, pc}

10007650 <divmod_s32s32_savestate>:
10007650:	b5f0      	push	{r4, r5, r6, r7, lr}
10007652:	6e14      	ldr	r4, [r2, #96]	; 0x60
10007654:	6e55      	ldr	r5, [r2, #100]	; 0x64
10007656:	6f57      	ldr	r7, [r2, #116]	; 0x74
10007658:	6f16      	ldr	r6, [r2, #112]	; 0x70
1000765a:	f7ff ffe3 	bl	10007624 <divmod_s32s32_unsafe>
1000765e:	6614      	str	r4, [r2, #96]	; 0x60
10007660:	6655      	str	r5, [r2, #100]	; 0x64
10007662:	6757      	str	r7, [r2, #116]	; 0x74
10007664:	6716      	str	r6, [r2, #112]	; 0x70
10007666:	bdf0      	pop	{r4, r5, r6, r7, pc}
10007668:	d0000000 	.word	0xd0000000

1000766c <__wrap___aeabi_uidiv>:
1000766c:	4a11      	ldr	r2, [pc, #68]	; (100076b4 <divmod_u32u32_savestate+0x18>)
1000766e:	6f93      	ldr	r3, [r2, #120]	; 0x78
10007670:	089b      	lsrs	r3, r3, #2
10007672:	d213      	bcs.n	1000769c <divmod_u32u32_savestate>

10007674 <divmod_u32u32_unsafe>:
10007674:	6610      	str	r0, [r2, #96]	; 0x60
10007676:	6651      	str	r1, [r2, #100]	; 0x64
10007678:	2900      	cmp	r1, #0
1000767a:	d005      	beq.n	10007688 <divmod_u32u32_unsafe+0x14>
1000767c:	e7ff      	b.n	1000767e <divmod_u32u32_unsafe+0xa>
1000767e:	e7ff      	b.n	10007680 <divmod_u32u32_unsafe+0xc>
10007680:	e7ff      	b.n	10007682 <divmod_u32u32_unsafe+0xe>
10007682:	6f51      	ldr	r1, [r2, #116]	; 0x74
10007684:	6f10      	ldr	r0, [r2, #112]	; 0x70
10007686:	4770      	bx	lr
10007688:	b504      	push	{r2, lr}
1000768a:	2800      	cmp	r0, #0
1000768c:	d001      	beq.n	10007692 <divmod_u32u32_unsafe+0x1e>
1000768e:	2000      	movs	r0, #0
10007690:	43c0      	mvns	r0, r0
10007692:	f003 fdd1 	bl	1000b238 <____aeabi_idiv0_veneer>
10007696:	2100      	movs	r1, #0
10007698:	bd04      	pop	{r2, pc}
1000769a:	46c0      	nop			; (mov r8, r8)

1000769c <divmod_u32u32_savestate>:
1000769c:	b5f0      	push	{r4, r5, r6, r7, lr}
1000769e:	6e14      	ldr	r4, [r2, #96]	; 0x60
100076a0:	6e55      	ldr	r5, [r2, #100]	; 0x64
100076a2:	6f57      	ldr	r7, [r2, #116]	; 0x74
100076a4:	6f16      	ldr	r6, [r2, #112]	; 0x70
100076a6:	f7ff ffe5 	bl	10007674 <divmod_u32u32_unsafe>
100076aa:	6614      	str	r4, [r2, #96]	; 0x60
100076ac:	6655      	str	r5, [r2, #100]	; 0x64
100076ae:	6757      	str	r7, [r2, #116]	; 0x74
100076b0:	6716      	str	r6, [r2, #112]	; 0x70
100076b2:	bdf0      	pop	{r4, r5, r6, r7, pc}
100076b4:	d0000000 	.word	0xd0000000

100076b8 <__wrap___aeabi_ldivmod>:
100076b8:	4694      	mov	ip, r2
100076ba:	4a4e      	ldr	r2, [pc, #312]	; (100077f4 <udiv0+0x1a>)
100076bc:	6f92      	ldr	r2, [r2, #120]	; 0x78
100076be:	0892      	lsrs	r2, r2, #2
100076c0:	4662      	mov	r2, ip
100076c2:	d201      	bcs.n	100076c8 <divmod_s64s64_savestate>
100076c4:	e030      	b.n	10007728 <divmod_s64s64_unsafe>
100076c6:	46c0      	nop			; (mov r8, r8)

100076c8 <divmod_s64s64_savestate>:
100076c8:	b5f0      	push	{r4, r5, r6, r7, lr}
100076ca:	4e4a      	ldr	r6, [pc, #296]	; (100077f4 <udiv0+0x1a>)
100076cc:	6fb5      	ldr	r5, [r6, #120]	; 0x78
100076ce:	086d      	lsrs	r5, r5, #1
100076d0:	d3fc      	bcc.n	100076cc <divmod_s64s64_savestate+0x4>
100076d2:	6e34      	ldr	r4, [r6, #96]	; 0x60
100076d4:	6e75      	ldr	r5, [r6, #100]	; 0x64
100076d6:	6f77      	ldr	r7, [r6, #116]	; 0x74
100076d8:	6f36      	ldr	r6, [r6, #112]	; 0x70
100076da:	f000 f825 	bl	10007728 <divmod_s64s64_unsafe>
100076de:	4694      	mov	ip, r2
100076e0:	4a44      	ldr	r2, [pc, #272]	; (100077f4 <udiv0+0x1a>)
100076e2:	6614      	str	r4, [r2, #96]	; 0x60
100076e4:	6655      	str	r5, [r2, #100]	; 0x64
100076e6:	6757      	str	r7, [r2, #116]	; 0x74
100076e8:	6716      	str	r6, [r2, #112]	; 0x70
100076ea:	4662      	mov	r2, ip
100076ec:	bdf0      	pop	{r4, r5, r6, r7, pc}
100076ee:	46c0      	nop			; (mov r8, r8)

100076f0 <__wrap___aeabi_uldivmod>:
100076f0:	4694      	mov	ip, r2
100076f2:	4a40      	ldr	r2, [pc, #256]	; (100077f4 <udiv0+0x1a>)
100076f4:	6f92      	ldr	r2, [r2, #120]	; 0x78
100076f6:	0892      	lsrs	r2, r2, #2
100076f8:	4662      	mov	r2, ip
100076fa:	d201      	bcs.n	10007700 <divmod_u64u64_savestate>
100076fc:	e058      	b.n	100077b0 <divmod_u64u64_unsafe>
100076fe:	46c0      	nop			; (mov r8, r8)

10007700 <divmod_u64u64_savestate>:
10007700:	b5f0      	push	{r4, r5, r6, r7, lr}
10007702:	4e3c      	ldr	r6, [pc, #240]	; (100077f4 <udiv0+0x1a>)
10007704:	6fb5      	ldr	r5, [r6, #120]	; 0x78
10007706:	086d      	lsrs	r5, r5, #1
10007708:	d3fc      	bcc.n	10007704 <divmod_u64u64_savestate+0x4>
1000770a:	6e34      	ldr	r4, [r6, #96]	; 0x60
1000770c:	6e75      	ldr	r5, [r6, #100]	; 0x64
1000770e:	6f77      	ldr	r7, [r6, #116]	; 0x74
10007710:	6f36      	ldr	r6, [r6, #112]	; 0x70
10007712:	f000 f84d 	bl	100077b0 <divmod_u64u64_unsafe>
10007716:	4694      	mov	ip, r2
10007718:	4a36      	ldr	r2, [pc, #216]	; (100077f4 <udiv0+0x1a>)
1000771a:	6614      	str	r4, [r2, #96]	; 0x60
1000771c:	6655      	str	r5, [r2, #100]	; 0x64
1000771e:	6757      	str	r7, [r2, #116]	; 0x74
10007720:	6716      	str	r6, [r2, #112]	; 0x70
10007722:	4662      	mov	r2, ip
10007724:	bdf0      	pop	{r4, r5, r6, r7, pc}
10007726:	46c0      	nop			; (mov r8, r8)

10007728 <divmod_s64s64_unsafe>:
10007728:	2b00      	cmp	r3, #0
1000772a:	db24      	blt.n	10007776 <l41_1+0x26>
1000772c:	d011      	beq.n	10007752 <l41_1+0x2>
1000772e:	2900      	cmp	r1, #0
10007730:	da3e      	bge.n	100077b0 <divmod_u64u64_unsafe>
10007732:	b500      	push	{lr}
10007734:	43c9      	mvns	r1, r1
10007736:	4240      	negs	r0, r0
10007738:	d100      	bne.n	1000773c <l39_1>
1000773a:	3101      	adds	r1, #1

1000773c <l39_1>:
1000773c:	f000 f838 	bl	100077b0 <divmod_u64u64_unsafe>
10007740:	43c9      	mvns	r1, r1
10007742:	4240      	negs	r0, r0
10007744:	d100      	bne.n	10007748 <l40_1>
10007746:	3101      	adds	r1, #1

10007748 <l40_1>:
10007748:	43db      	mvns	r3, r3
1000774a:	4252      	negs	r2, r2
1000774c:	d100      	bne.n	10007750 <l41_1>
1000774e:	3301      	adds	r3, #1

10007750 <l41_1>:
10007750:	bd00      	pop	{pc}
10007752:	2a00      	cmp	r2, #0
10007754:	d1eb      	bne.n	1000772e <divmod_s64s64_unsafe+0x6>
10007756:	2800      	cmp	r0, #0
10007758:	d101      	bne.n	1000775e <l41_1+0xe>
1000775a:	2900      	cmp	r1, #0
1000775c:	d005      	beq.n	1000776a <l41_1+0x1a>
1000775e:	2000      	movs	r0, #0
10007760:	0fc9      	lsrs	r1, r1, #31
10007762:	07c9      	lsls	r1, r1, #31
10007764:	d101      	bne.n	1000776a <l41_1+0x1a>
10007766:	43c0      	mvns	r0, r0
10007768:	0841      	lsrs	r1, r0, #1
1000776a:	b500      	push	{lr}
1000776c:	f003 fd5c 	bl	1000b228 <____aeabi_ldiv0_veneer>
10007770:	2200      	movs	r2, #0
10007772:	2300      	movs	r3, #0
10007774:	bd00      	pop	{pc}
10007776:	b500      	push	{lr}
10007778:	2900      	cmp	r1, #0
1000777a:	db0a      	blt.n	10007792 <l43_1+0x2>
1000777c:	43db      	mvns	r3, r3
1000777e:	4252      	negs	r2, r2
10007780:	d100      	bne.n	10007784 <l42_1>
10007782:	3301      	adds	r3, #1

10007784 <l42_1>:
10007784:	f000 f814 	bl	100077b0 <divmod_u64u64_unsafe>
10007788:	43c9      	mvns	r1, r1
1000778a:	4240      	negs	r0, r0
1000778c:	d100      	bne.n	10007790 <l43_1>
1000778e:	3101      	adds	r1, #1

10007790 <l43_1>:
10007790:	bd00      	pop	{pc}
10007792:	43c9      	mvns	r1, r1
10007794:	4240      	negs	r0, r0
10007796:	d100      	bne.n	1000779a <l44_1>
10007798:	3101      	adds	r1, #1

1000779a <l44_1>:
1000779a:	43db      	mvns	r3, r3
1000779c:	4252      	negs	r2, r2
1000779e:	d100      	bne.n	100077a2 <l45_1>
100077a0:	3301      	adds	r3, #1

100077a2 <l45_1>:
100077a2:	f000 f805 	bl	100077b0 <divmod_u64u64_unsafe>
100077a6:	43db      	mvns	r3, r3
100077a8:	4252      	negs	r2, r2
100077aa:	d100      	bne.n	100077ae <l46_1>
100077ac:	3301      	adds	r3, #1

100077ae <l46_1>:
100077ae:	bd00      	pop	{pc}

100077b0 <divmod_u64u64_unsafe>:
100077b0:	2900      	cmp	r1, #0
100077b2:	d123      	bne.n	100077fc <y64>
100077b4:	2b00      	cmp	r3, #0
100077b6:	d118      	bne.n	100077ea <udiv0+0x10>
100077b8:	2a00      	cmp	r2, #0
100077ba:	d00c      	beq.n	100077d6 <divmod_u64u64_unsafe+0x26>
100077bc:	46bc      	mov	ip, r7
100077be:	4f0d      	ldr	r7, [pc, #52]	; (100077f4 <udiv0+0x1a>)
100077c0:	6638      	str	r0, [r7, #96]	; 0x60
100077c2:	667a      	str	r2, [r7, #100]	; 0x64
100077c4:	2100      	movs	r1, #0
100077c6:	2300      	movs	r3, #0
100077c8:	e7ff      	b.n	100077ca <divmod_u64u64_unsafe+0x1a>
100077ca:	e7ff      	b.n	100077cc <divmod_u64u64_unsafe+0x1c>
100077cc:	e7ff      	b.n	100077ce <divmod_u64u64_unsafe+0x1e>
100077ce:	6f7a      	ldr	r2, [r7, #116]	; 0x74
100077d0:	6f38      	ldr	r0, [r7, #112]	; 0x70
100077d2:	4667      	mov	r7, ip
100077d4:	4770      	bx	lr
100077d6:	2800      	cmp	r0, #0
100077d8:	d001      	beq.n	100077de <udiv0+0x4>

100077da <udiv0>:
100077da:	4807      	ldr	r0, [pc, #28]	; (100077f8 <udiv0+0x1e>)
100077dc:	0001      	movs	r1, r0
100077de:	b500      	push	{lr}
100077e0:	f003 fd22 	bl	1000b228 <____aeabi_ldiv0_veneer>
100077e4:	2200      	movs	r2, #0
100077e6:	2300      	movs	r3, #0
100077e8:	bd00      	pop	{pc}
100077ea:	0002      	movs	r2, r0
100077ec:	000b      	movs	r3, r1
100077ee:	2000      	movs	r0, #0
100077f0:	2100      	movs	r1, #0
100077f2:	4770      	bx	lr
100077f4:	d0000000 	.word	0xd0000000
100077f8:	ffffffff 	.word	0xffffffff

100077fc <y64>:
100077fc:	2b00      	cmp	r3, #0
100077fe:	d000      	beq.n	10007802 <y64+0x6>
10007800:	e0bf      	b.n	10007982 <y64_x48>
10007802:	0c13      	lsrs	r3, r2, #16
10007804:	d128      	bne.n	10007858 <y64_x32>
10007806:	2a00      	cmp	r2, #0
10007808:	d0e7      	beq.n	100077da <udiv0>
1000780a:	b480      	push	{r7}
1000780c:	4f11      	ldr	r7, [pc, #68]	; (10007854 <y64+0x58>)
1000780e:	6639      	str	r1, [r7, #96]	; 0x60
10007810:	667a      	str	r2, [r7, #100]	; 0x64
10007812:	e7ff      	b.n	10007814 <y64+0x18>
10007814:	e7ff      	b.n	10007816 <y64+0x1a>
10007816:	b430      	push	{r4, r5}
10007818:	0c04      	lsrs	r4, r0, #16
1000781a:	6f7b      	ldr	r3, [r7, #116]	; 0x74
1000781c:	6f39      	ldr	r1, [r7, #112]	; 0x70
1000781e:	041b      	lsls	r3, r3, #16
10007820:	4323      	orrs	r3, r4
10007822:	663b      	str	r3, [r7, #96]	; 0x60
10007824:	667a      	str	r2, [r7, #100]	; 0x64
10007826:	e7ff      	b.n	10007828 <y64+0x2c>
10007828:	e7ff      	b.n	1000782a <y64+0x2e>
1000782a:	e7ff      	b.n	1000782c <y64+0x30>
1000782c:	46c0      	nop			; (mov r8, r8)
1000782e:	b284      	uxth	r4, r0
10007830:	6f7b      	ldr	r3, [r7, #116]	; 0x74
10007832:	6f3d      	ldr	r5, [r7, #112]	; 0x70
10007834:	041b      	lsls	r3, r3, #16
10007836:	4323      	orrs	r3, r4
10007838:	663b      	str	r3, [r7, #96]	; 0x60
1000783a:	667a      	str	r2, [r7, #100]	; 0x64
1000783c:	e7ff      	b.n	1000783e <y64+0x42>
1000783e:	e7ff      	b.n	10007840 <y64+0x44>
10007840:	46c0      	nop			; (mov r8, r8)
10007842:	2300      	movs	r3, #0
10007844:	042c      	lsls	r4, r5, #16
10007846:	0c2d      	lsrs	r5, r5, #16
10007848:	6f7a      	ldr	r2, [r7, #116]	; 0x74
1000784a:	6f38      	ldr	r0, [r7, #112]	; 0x70
1000784c:	1900      	adds	r0, r0, r4
1000784e:	4169      	adcs	r1, r5
10007850:	bcb0      	pop	{r4, r5, r7}
10007852:	4770      	bx	lr
10007854:	d0000000 	.word	0xd0000000

10007858 <y64_x32>:
10007858:	b5f0      	push	{r4, r5, r6, r7, lr}
1000785a:	4694      	mov	ip, r2
1000785c:	2500      	movs	r5, #0
1000785e:	0e14      	lsrs	r4, r2, #24
10007860:	d101      	bne.n	10007866 <y64_x32+0xe>
10007862:	0212      	lsls	r2, r2, #8
10007864:	3508      	adds	r5, #8
10007866:	0f14      	lsrs	r4, r2, #28
10007868:	d101      	bne.n	1000786e <y64_x32+0x16>
1000786a:	0112      	lsls	r2, r2, #4
1000786c:	3504      	adds	r5, #4
1000786e:	0f94      	lsrs	r4, r2, #30
10007870:	d101      	bne.n	10007876 <y64_x32+0x1e>
10007872:	0092      	lsls	r2, r2, #2
10007874:	3502      	adds	r5, #2
10007876:	0fd4      	lsrs	r4, r2, #31
10007878:	d101      	bne.n	1000787e <y64_x32+0x26>
1000787a:	0052      	lsls	r2, r2, #1
1000787c:	3501      	adds	r5, #1
1000787e:	0bd4      	lsrs	r4, r2, #15
10007880:	3401      	adds	r4, #1
10007882:	4f25      	ldr	r7, [pc, #148]	; (10007918 <y64_x32+0xc0>)
10007884:	667c      	str	r4, [r7, #100]	; 0x64
10007886:	4c25      	ldr	r4, [pc, #148]	; (1000791c <y64_x32+0xc4>)
10007888:	663c      	str	r4, [r7, #96]	; 0x60
1000788a:	0c0e      	lsrs	r6, r1, #16
1000788c:	b293      	uxth	r3, r2
1000788e:	e7ff      	b.n	10007890 <y64_x32+0x38>
10007890:	e7ff      	b.n	10007892 <y64_x32+0x3a>
10007892:	e7ff      	b.n	10007894 <y64_x32+0x3c>
10007894:	6f3c      	ldr	r4, [r7, #112]	; 0x70
10007896:	4366      	muls	r6, r4
10007898:	0c36      	lsrs	r6, r6, #16
1000789a:	0377      	lsls	r7, r6, #13
1000789c:	46be      	mov	lr, r7
1000789e:	4373      	muls	r3, r6
100078a0:	0bdf      	lsrs	r7, r3, #15
100078a2:	045b      	lsls	r3, r3, #17
100078a4:	1ac0      	subs	r0, r0, r3
100078a6:	41b9      	sbcs	r1, r7
100078a8:	0c13      	lsrs	r3, r2, #16
100078aa:	4373      	muls	r3, r6
100078ac:	18db      	adds	r3, r3, r3
100078ae:	1ac9      	subs	r1, r1, r3
100078b0:	08ce      	lsrs	r6, r1, #3
100078b2:	4366      	muls	r6, r4
100078b4:	0c36      	lsrs	r6, r6, #16
100078b6:	44b6      	add	lr, r6
100078b8:	b293      	uxth	r3, r2
100078ba:	4373      	muls	r3, r6
100078bc:	0f1f      	lsrs	r7, r3, #28
100078be:	011b      	lsls	r3, r3, #4
100078c0:	1ac0      	subs	r0, r0, r3
100078c2:	41b9      	sbcs	r1, r7
100078c4:	0c13      	lsrs	r3, r2, #16
100078c6:	4373      	muls	r3, r6
100078c8:	0b1f      	lsrs	r7, r3, #12
100078ca:	051b      	lsls	r3, r3, #20
100078cc:	1ac0      	subs	r0, r0, r3
100078ce:	41b9      	sbcs	r1, r7
100078d0:	0d86      	lsrs	r6, r0, #22
100078d2:	028f      	lsls	r7, r1, #10
100078d4:	433e      	orrs	r6, r7
100078d6:	4366      	muls	r6, r4
100078d8:	0c36      	lsrs	r6, r6, #16
100078da:	2d09      	cmp	r5, #9
100078dc:	db24      	blt.n	10007928 <last0>
100078de:	0a52      	lsrs	r2, r2, #9
100078e0:	4372      	muls	r2, r6
100078e2:	1a80      	subs	r0, r0, r2
100078e4:	0377      	lsls	r7, r6, #13
100078e6:	0a46      	lsrs	r6, r0, #9
100078e8:	4366      	muls	r6, r4
100078ea:	0c36      	lsrs	r6, r6, #16
100078ec:	2316      	movs	r3, #22
100078ee:	1b5b      	subs	r3, r3, r5
100078f0:	40de      	lsrs	r6, r3
100078f2:	40df      	lsrs	r7, r3
100078f4:	19bf      	adds	r7, r7, r6
100078f6:	4664      	mov	r4, ip
100078f8:	4366      	muls	r6, r4
100078fa:	1b82      	subs	r2, r0, r6
100078fc:	4670      	mov	r0, lr
100078fe:	3504      	adds	r5, #4
10007900:	3306      	adds	r3, #6
10007902:	0001      	movs	r1, r0
10007904:	40d9      	lsrs	r1, r3
10007906:	40a8      	lsls	r0, r5
10007908:	19c0      	adds	r0, r0, r7
1000790a:	d300      	bcc.n	1000790e <y64_x32+0xb6>
1000790c:	3101      	adds	r1, #1
1000790e:	42a2      	cmp	r2, r4
10007910:	d206      	bcs.n	10007920 <y64_x32+0xc8>
10007912:	2300      	movs	r3, #0
10007914:	bdf0      	pop	{r4, r5, r6, r7, pc}
10007916:	0000      	.short	0x0000
10007918:	d0000000 	.word	0xd0000000
1000791c:	ffffffff 	.word	0xffffffff
10007920:	1b12      	subs	r2, r2, r4
10007922:	3001      	adds	r0, #1
10007924:	d3f3      	bcc.n	1000790e <y64_x32+0xb6>
10007926:	e7f1      	b.n	1000790c <y64_x32+0xb4>

10007928 <last0>:
10007928:	2709      	movs	r7, #9
1000792a:	1b7f      	subs	r7, r7, r5
1000792c:	40fe      	lsrs	r6, r7
1000792e:	4664      	mov	r4, ip
10007930:	b2a2      	uxth	r2, r4
10007932:	4372      	muls	r2, r6
10007934:	1a80      	subs	r0, r0, r2
10007936:	d200      	bcs.n	1000793a <last0+0x12>
10007938:	3901      	subs	r1, #1
1000793a:	0c22      	lsrs	r2, r4, #16
1000793c:	4372      	muls	r2, r6
1000793e:	0c13      	lsrs	r3, r2, #16
10007940:	0412      	lsls	r2, r2, #16
10007942:	1a82      	subs	r2, r0, r2
10007944:	4199      	sbcs	r1, r3
10007946:	000b      	movs	r3, r1
10007948:	4670      	mov	r0, lr
1000794a:	3504      	adds	r5, #4
1000794c:	3713      	adds	r7, #19
1000794e:	0001      	movs	r1, r0
10007950:	40f9      	lsrs	r1, r7
10007952:	40a8      	lsls	r0, r5
10007954:	1980      	adds	r0, r0, r6
10007956:	d300      	bcc.n	1000795a <last0+0x32>
10007958:	3101      	adds	r1, #1
1000795a:	2b00      	cmp	r3, #0
1000795c:	d102      	bne.n	10007964 <last0+0x3c>
1000795e:	42a2      	cmp	r2, r4
10007960:	d20a      	bcs.n	10007978 <last0+0x50>
10007962:	bdf0      	pop	{r4, r5, r6, r7, pc}
10007964:	3001      	adds	r0, #1
10007966:	d300      	bcc.n	1000796a <last0+0x42>
10007968:	3101      	adds	r1, #1
1000796a:	1b12      	subs	r2, r2, r4
1000796c:	d2fa      	bcs.n	10007964 <last0+0x3c>
1000796e:	3b01      	subs	r3, #1
10007970:	d1f8      	bne.n	10007964 <last0+0x3c>
10007972:	42a2      	cmp	r2, r4
10007974:	d200      	bcs.n	10007978 <last0+0x50>
10007976:	bdf0      	pop	{r4, r5, r6, r7, pc}
10007978:	3001      	adds	r0, #1
1000797a:	d300      	bcc.n	1000797e <last0+0x56>
1000797c:	3101      	adds	r1, #1
1000797e:	1b12      	subs	r2, r2, r4
10007980:	e7f7      	b.n	10007972 <last0+0x4a>

10007982 <y64_x48>:
10007982:	b5f0      	push	{r4, r5, r6, r7, lr}
10007984:	0c1c      	lsrs	r4, r3, #16
10007986:	d000      	beq.n	1000798a <y64_x48+0x8>
10007988:	e080      	b.n	10007a8c <y64_x64>
1000798a:	b40c      	push	{r2, r3}
1000798c:	2500      	movs	r5, #0
1000798e:	0a1c      	lsrs	r4, r3, #8
10007990:	d104      	bne.n	1000799c <y64_x48+0x1a>
10007992:	021b      	lsls	r3, r3, #8
10007994:	0e16      	lsrs	r6, r2, #24
10007996:	4333      	orrs	r3, r6
10007998:	0212      	lsls	r2, r2, #8
1000799a:	3508      	adds	r5, #8
1000799c:	0b1c      	lsrs	r4, r3, #12
1000799e:	d104      	bne.n	100079aa <y64_x48+0x28>
100079a0:	011b      	lsls	r3, r3, #4
100079a2:	0f16      	lsrs	r6, r2, #28
100079a4:	4333      	orrs	r3, r6
100079a6:	0112      	lsls	r2, r2, #4
100079a8:	3504      	adds	r5, #4
100079aa:	0b9c      	lsrs	r4, r3, #14
100079ac:	d104      	bne.n	100079b8 <y64_x48+0x36>
100079ae:	009b      	lsls	r3, r3, #2
100079b0:	0f96      	lsrs	r6, r2, #30
100079b2:	4333      	orrs	r3, r6
100079b4:	0092      	lsls	r2, r2, #2
100079b6:	3502      	adds	r5, #2
100079b8:	0bdc      	lsrs	r4, r3, #15
100079ba:	d102      	bne.n	100079c2 <y64_x48+0x40>
100079bc:	1892      	adds	r2, r2, r2
100079be:	415b      	adcs	r3, r3
100079c0:	3501      	adds	r5, #1
100079c2:	001c      	movs	r4, r3
100079c4:	1897      	adds	r7, r2, r2
100079c6:	4164      	adcs	r4, r4
100079c8:	3401      	adds	r4, #1
100079ca:	4f46      	ldr	r7, [pc, #280]	; (10007ae4 <y64_x64+0x58>)
100079cc:	667c      	str	r4, [r7, #100]	; 0x64
100079ce:	4c46      	ldr	r4, [pc, #280]	; (10007ae8 <y64_x64+0x5c>)
100079d0:	663c      	str	r4, [r7, #96]	; 0x60
100079d2:	0c0e      	lsrs	r6, r1, #16
100079d4:	e7ff      	b.n	100079d6 <y64_x48+0x54>
100079d6:	e7ff      	b.n	100079d8 <y64_x48+0x56>
100079d8:	e7ff      	b.n	100079da <y64_x48+0x58>
100079da:	46c0      	nop			; (mov r8, r8)
100079dc:	6f3c      	ldr	r4, [r7, #112]	; 0x70
100079de:	4366      	muls	r6, r4
100079e0:	0c36      	lsrs	r6, r6, #16
100079e2:	0377      	lsls	r7, r6, #13
100079e4:	46be      	mov	lr, r7
100079e6:	b297      	uxth	r7, r2
100079e8:	4377      	muls	r7, r6
100079ea:	1bc0      	subs	r0, r0, r7
100079ec:	d200      	bcs.n	100079f0 <y64_x48+0x6e>
100079ee:	3901      	subs	r1, #1
100079f0:	1bc0      	subs	r0, r0, r7
100079f2:	d200      	bcs.n	100079f6 <y64_x48+0x74>
100079f4:	3901      	subs	r1, #1
100079f6:	b29f      	uxth	r7, r3
100079f8:	4377      	muls	r7, r6
100079fa:	1bc9      	subs	r1, r1, r7
100079fc:	1bc9      	subs	r1, r1, r7
100079fe:	0c17      	lsrs	r7, r2, #16
10007a00:	4377      	muls	r7, r6
10007a02:	047e      	lsls	r6, r7, #17
10007a04:	0bff      	lsrs	r7, r7, #15
10007a06:	1b80      	subs	r0, r0, r6
10007a08:	41b9      	sbcs	r1, r7
10007a0a:	08ce      	lsrs	r6, r1, #3
10007a0c:	4366      	muls	r6, r4
10007a0e:	0c36      	lsrs	r6, r6, #16
10007a10:	2d0c      	cmp	r5, #12
10007a12:	db33      	blt.n	10007a7c <last1>
10007a14:	44b6      	add	lr, r6
10007a16:	0b12      	lsrs	r2, r2, #12
10007a18:	051f      	lsls	r7, r3, #20
10007a1a:	433a      	orrs	r2, r7
10007a1c:	0b1b      	lsrs	r3, r3, #12
10007a1e:	b297      	uxth	r7, r2
10007a20:	4377      	muls	r7, r6
10007a22:	1bc0      	subs	r0, r0, r7
10007a24:	d200      	bcs.n	10007a28 <y64_x48+0xa6>
10007a26:	3901      	subs	r1, #1
10007a28:	b29f      	uxth	r7, r3
10007a2a:	4377      	muls	r7, r6
10007a2c:	1bc9      	subs	r1, r1, r7
10007a2e:	0c17      	lsrs	r7, r2, #16
10007a30:	4377      	muls	r7, r6
10007a32:	043e      	lsls	r6, r7, #16
10007a34:	0c3f      	lsrs	r7, r7, #16
10007a36:	1b80      	subs	r0, r0, r6
10007a38:	41b9      	sbcs	r1, r7
10007a3a:	0d86      	lsrs	r6, r0, #22
10007a3c:	028f      	lsls	r7, r1, #10
10007a3e:	433e      	orrs	r6, r7
10007a40:	4366      	muls	r6, r4
10007a42:	2729      	movs	r7, #41	; 0x29
10007a44:	1b7f      	subs	r7, r7, r5
10007a46:	40fe      	lsrs	r6, r7
10007a48:	3d0c      	subs	r5, #12
10007a4a:	4677      	mov	r7, lr
10007a4c:	40af      	lsls	r7, r5
10007a4e:	19bf      	adds	r7, r7, r6
10007a50:	bc30      	pop	{r4, r5}
10007a52:	b2a2      	uxth	r2, r4
10007a54:	b2ab      	uxth	r3, r5
10007a56:	4372      	muls	r2, r6
10007a58:	4373      	muls	r3, r6
10007a5a:	1a80      	subs	r0, r0, r2
10007a5c:	4199      	sbcs	r1, r3
10007a5e:	0c22      	lsrs	r2, r4, #16
10007a60:	4372      	muls	r2, r6
10007a62:	0c13      	lsrs	r3, r2, #16
10007a64:	0412      	lsls	r2, r2, #16
10007a66:	1a80      	subs	r0, r0, r2
10007a68:	4199      	sbcs	r1, r3
10007a6a:	0002      	movs	r2, r0
10007a6c:	000b      	movs	r3, r1
10007a6e:	3701      	adds	r7, #1
10007a70:	1b00      	subs	r0, r0, r4
10007a72:	41a9      	sbcs	r1, r5
10007a74:	d2f9      	bcs.n	10007a6a <y64_x48+0xe8>
10007a76:	1e78      	subs	r0, r7, #1
10007a78:	2100      	movs	r1, #0
10007a7a:	bdf0      	pop	{r4, r5, r6, r7, pc}

10007a7c <last1>:
10007a7c:	270c      	movs	r7, #12
10007a7e:	1b7f      	subs	r7, r7, r5
10007a80:	40fe      	lsrs	r6, r7
10007a82:	4677      	mov	r7, lr
10007a84:	0b7f      	lsrs	r7, r7, #13
10007a86:	40af      	lsls	r7, r5
10007a88:	19ff      	adds	r7, r7, r7
10007a8a:	e7e0      	b.n	10007a4e <y64_x48+0xcc>

10007a8c <y64_x64>:
10007a8c:	2400      	movs	r4, #0
10007a8e:	1c5d      	adds	r5, r3, #1
10007a90:	d007      	beq.n	10007aa2 <y64_x64+0x16>
10007a92:	4f14      	ldr	r7, [pc, #80]	; (10007ae4 <y64_x64+0x58>)
10007a94:	667d      	str	r5, [r7, #100]	; 0x64
10007a96:	6639      	str	r1, [r7, #96]	; 0x60
10007a98:	e7ff      	b.n	10007a9a <y64_x64+0xe>
10007a9a:	e7ff      	b.n	10007a9c <y64_x64+0x10>
10007a9c:	e7ff      	b.n	10007a9e <y64_x64+0x12>
10007a9e:	e7ff      	b.n	10007aa0 <y64_x64+0x14>
10007aa0:	6f3c      	ldr	r4, [r7, #112]	; 0x70
10007aa2:	b295      	uxth	r5, r2
10007aa4:	b29e      	uxth	r6, r3
10007aa6:	4365      	muls	r5, r4
10007aa8:	4366      	muls	r6, r4
10007aaa:	1b40      	subs	r0, r0, r5
10007aac:	41b1      	sbcs	r1, r6
10007aae:	0c15      	lsrs	r5, r2, #16
10007ab0:	0c1e      	lsrs	r6, r3, #16
10007ab2:	4365      	muls	r5, r4
10007ab4:	4366      	muls	r6, r4
10007ab6:	0436      	lsls	r6, r6, #16
10007ab8:	0c2f      	lsrs	r7, r5, #16
10007aba:	433e      	orrs	r6, r7
10007abc:	042d      	lsls	r5, r5, #16
10007abe:	1b40      	subs	r0, r0, r5
10007ac0:	41b1      	sbcs	r1, r6
10007ac2:	4299      	cmp	r1, r3
10007ac4:	d204      	bcs.n	10007ad0 <y64_x64+0x44>
10007ac6:	0002      	movs	r2, r0
10007ac8:	000b      	movs	r3, r1
10007aca:	0020      	movs	r0, r4
10007acc:	2100      	movs	r1, #0
10007ace:	bdf0      	pop	{r4, r5, r6, r7, pc}
10007ad0:	d101      	bne.n	10007ad6 <y64_x64+0x4a>
10007ad2:	4290      	cmp	r0, r2
10007ad4:	d3f7      	bcc.n	10007ac6 <y64_x64+0x3a>
10007ad6:	1a80      	subs	r0, r0, r2
10007ad8:	4199      	sbcs	r1, r3
10007ada:	3401      	adds	r4, #1
10007adc:	4299      	cmp	r1, r3
10007ade:	d3f2      	bcc.n	10007ac6 <y64_x64+0x3a>
10007ae0:	e7f6      	b.n	10007ad0 <y64_x64+0x44>
10007ae2:	0000      	.short	0x0000
10007ae4:	d0000000 	.word	0xd0000000
10007ae8:	ffffffff 	.word	0xffffffff

10007aec <__wrap___aeabi_drsub>:
10007aec:	4048      	eors	r0, r1
10007aee:	4041      	eors	r1, r0
10007af0:	4048      	eors	r0, r1

10007af2 <__wrap___aeabi_dsub>:
10007af2:	b418      	push	{r3, r4}
10007af4:	4b1b      	ldr	r3, [pc, #108]	; (10007b64 <__wrap___aeabi_dmul+0x12>)
10007af6:	685b      	ldr	r3, [r3, #4]
10007af8:	46fc      	mov	ip, pc
10007afa:	9301      	str	r3, [sp, #4]
10007afc:	bd08      	pop	{r3, pc}
10007afe:	df04      	.short	0xdf04
10007b00:	10007d8b 	.word	0x10007d8b

10007b04 <__wrap___aeabi_dadd>:
10007b04:	b418      	push	{r3, r4}
10007b06:	4b17      	ldr	r3, [pc, #92]	; (10007b64 <__wrap___aeabi_dmul+0x12>)
10007b08:	681b      	ldr	r3, [r3, #0]
10007b0a:	46fc      	mov	ip, pc
10007b0c:	9301      	str	r3, [sp, #4]
10007b0e:	bd08      	pop	{r3, pc}
10007b10:	7d95df00 	.word	0x7d95df00
10007b14:	1000      	.short	0x1000

10007b16 <__wrap___aeabi_ddiv>:
10007b16:	4694      	mov	ip, r2
10007b18:	4a13      	ldr	r2, [pc, #76]	; (10007b68 <__wrap___aeabi_dmul+0x16>)
10007b1a:	6f92      	ldr	r2, [r2, #120]	; 0x78
10007b1c:	0892      	lsrs	r2, r2, #2
10007b1e:	d209      	bcs.n	10007b34 <ddiv_save_state>
10007b20:	4662      	mov	r2, ip

10007b22 <ddiv_shim_call>:
10007b22:	b418      	push	{r3, r4}
10007b24:	4b0f      	ldr	r3, [pc, #60]	; (10007b64 <__wrap___aeabi_dmul+0x12>)
10007b26:	68db      	ldr	r3, [r3, #12]
10007b28:	46fc      	mov	ip, pc
10007b2a:	9301      	str	r3, [sp, #4]
10007b2c:	bd08      	pop	{r3, pc}
10007b2e:	df0c      	.short	0xdf0c
10007b30:	1000804d 	.word	0x1000804d

10007b34 <ddiv_save_state>:
10007b34:	4a0c      	ldr	r2, [pc, #48]	; (10007b68 <__wrap___aeabi_dmul+0x16>)
10007b36:	b5f0      	push	{r4, r5, r6, r7, lr}
10007b38:	6e14      	ldr	r4, [r2, #96]	; 0x60
10007b3a:	6e55      	ldr	r5, [r2, #100]	; 0x64
10007b3c:	6f57      	ldr	r7, [r2, #116]	; 0x74
10007b3e:	6f16      	ldr	r6, [r2, #112]	; 0x70
10007b40:	4662      	mov	r2, ip
10007b42:	f7ff ffee 	bl	10007b22 <ddiv_shim_call>
10007b46:	4a08      	ldr	r2, [pc, #32]	; (10007b68 <__wrap___aeabi_dmul+0x16>)
10007b48:	6614      	str	r4, [r2, #96]	; 0x60
10007b4a:	6655      	str	r5, [r2, #100]	; 0x64
10007b4c:	6757      	str	r7, [r2, #116]	; 0x74
10007b4e:	6716      	str	r6, [r2, #112]	; 0x70
10007b50:	bdf0      	pop	{r4, r5, r6, r7, pc}

10007b52 <__wrap___aeabi_dmul>:
10007b52:	b418      	push	{r3, r4}
10007b54:	4b03      	ldr	r3, [pc, #12]	; (10007b64 <__wrap___aeabi_dmul+0x12>)
10007b56:	689b      	ldr	r3, [r3, #8]
10007b58:	46fc      	mov	ip, pc
10007b5a:	9301      	str	r3, [sp, #4]
10007b5c:	bd08      	pop	{r3, pc}
10007b5e:	df08      	.short	0xdf08
10007b60:	10007ef1 	.word	0x10007ef1
10007b64:	200009d8 	.word	0x200009d8
10007b68:	d0000000 	.word	0xd0000000

10007b6c <__wrap___aeabi_cdrcmple>:
10007b6c:	b5ff      	push	{r0, r1, r2, r3, r4, r5, r6, r7, lr}
10007b6e:	4050      	eors	r0, r2
10007b70:	4042      	eors	r2, r0
10007b72:	4050      	eors	r0, r2
10007b74:	4059      	eors	r1, r3
10007b76:	404b      	eors	r3, r1
10007b78:	4059      	eors	r1, r3
10007b7a:	e000      	b.n	10007b7e <__aeabi_dfcmple_guts>

10007b7c <__wrap___aeabi_cdcmpeq>:
10007b7c:	b5ff      	push	{r0, r1, r2, r3, r4, r5, r6, r7, lr}

10007b7e <__aeabi_dfcmple_guts>:
10007b7e:	4f15      	ldr	r7, [pc, #84]	; (10007bd4 <__aeabi_dfcmple_guts+0x56>)
10007b80:	004c      	lsls	r4, r1, #1
10007b82:	0d64      	lsrs	r4, r4, #21
10007b84:	d003      	beq.n	10007b8e <__aeabi_dfcmple_guts+0x10>
10007b86:	42bc      	cmp	r4, r7
10007b88:	d104      	bne.n	10007b94 <__aeabi_dfcmple_guts+0x16>
10007b8a:	030c      	lsls	r4, r1, #12
10007b8c:	d814      	bhi.n	10007bb8 <__aeabi_dfcmple_guts+0x3a>
10007b8e:	2000      	movs	r0, #0
10007b90:	0d09      	lsrs	r1, r1, #20
10007b92:	0509      	lsls	r1, r1, #20
10007b94:	005c      	lsls	r4, r3, #1
10007b96:	0d64      	lsrs	r4, r4, #21
10007b98:	d003      	beq.n	10007ba2 <__aeabi_dfcmple_guts+0x24>
10007b9a:	42bc      	cmp	r4, r7
10007b9c:	d104      	bne.n	10007ba8 <__aeabi_dfcmple_guts+0x2a>
10007b9e:	031c      	lsls	r4, r3, #12
10007ba0:	d80a      	bhi.n	10007bb8 <__aeabi_dfcmple_guts+0x3a>
10007ba2:	2200      	movs	r2, #0
10007ba4:	0d1b      	lsrs	r3, r3, #20
10007ba6:	051b      	lsls	r3, r3, #20
10007ba8:	2601      	movs	r6, #1
10007baa:	404b      	eors	r3, r1
10007bac:	d409      	bmi.n	10007bc2 <__aeabi_dfcmple_guts+0x44>
10007bae:	404b      	eors	r3, r1
10007bb0:	d503      	bpl.n	10007bba <__aeabi_dfcmple_guts+0x3c>
10007bb2:	428b      	cmp	r3, r1
10007bb4:	d100      	bne.n	10007bb8 <__aeabi_dfcmple_guts+0x3a>
10007bb6:	4282      	cmp	r2, r0
10007bb8:	bdff      	pop	{r0, r1, r2, r3, r4, r5, r6, r7, pc}
10007bba:	4299      	cmp	r1, r3
10007bbc:	d1fc      	bne.n	10007bb8 <__aeabi_dfcmple_guts+0x3a>
10007bbe:	4290      	cmp	r0, r2
10007bc0:	bdff      	pop	{r0, r1, r2, r3, r4, r5, r6, r7, pc}
10007bc2:	430b      	orrs	r3, r1
10007bc4:	18db      	adds	r3, r3, r3
10007bc6:	4303      	orrs	r3, r0
10007bc8:	4313      	orrs	r3, r2
10007bca:	d0f5      	beq.n	10007bb8 <__aeabi_dfcmple_guts+0x3a>
10007bcc:	43c9      	mvns	r1, r1
10007bce:	1849      	adds	r1, r1, r1
10007bd0:	bdff      	pop	{r0, r1, r2, r3, r4, r5, r6, r7, pc}
10007bd2:	0000      	.short	0x0000
10007bd4:	000007ff 	.word	0x000007ff

10007bd8 <__wrap___aeabi_dcmplt>:
10007bd8:	b500      	push	{lr}
10007bda:	f7ff ffcf 	bl	10007b7c <__wrap___aeabi_cdcmpeq>
10007bde:	4180      	sbcs	r0, r0
10007be0:	bd00      	pop	{pc}
10007be2:	46c0      	nop			; (mov r8, r8)

10007be4 <__wrap___aeabi_dcmple>:
10007be4:	b500      	push	{lr}
10007be6:	f7ff ffc9 	bl	10007b7c <__wrap___aeabi_cdcmpeq>
10007bea:	d901      	bls.n	10007bf0 <__wrap___aeabi_dcmple+0xc>
10007bec:	2000      	movs	r0, #0
10007bee:	bd00      	pop	{pc}
10007bf0:	2001      	movs	r0, #1
10007bf2:	bd00      	pop	{pc}

10007bf4 <__wrap___aeabi_dcmpge>:
10007bf4:	b500      	push	{lr}
10007bf6:	f7ff ffb9 	bl	10007b6c <__wrap___aeabi_cdrcmple>
10007bfa:	d901      	bls.n	10007c00 <__wrap___aeabi_dcmpge+0xc>
10007bfc:	2000      	movs	r0, #0
10007bfe:	bd00      	pop	{pc}
10007c00:	2001      	movs	r0, #1
10007c02:	bd00      	pop	{pc}

10007c04 <__wrap___aeabi_dcmpgt>:
10007c04:	b500      	push	{lr}
10007c06:	f7ff ffb1 	bl	10007b6c <__wrap___aeabi_cdrcmple>
10007c0a:	4180      	sbcs	r0, r0
10007c0c:	bd00      	pop	{pc}

10007c0e <__wrap___aeabi_dcmpun>:
10007c0e:	2001      	movs	r0, #1
10007c10:	0540      	lsls	r0, r0, #21
10007c12:	004a      	lsls	r2, r1, #1
10007c14:	1812      	adds	r2, r2, r0
10007c16:	d804      	bhi.n	10007c22 <__wrap___aeabi_dcmpun+0x14>
10007c18:	005a      	lsls	r2, r3, #1
10007c1a:	1812      	adds	r2, r2, r0
10007c1c:	d801      	bhi.n	10007c22 <__wrap___aeabi_dcmpun+0x14>
10007c1e:	2000      	movs	r0, #0
10007c20:	4770      	bx	lr
10007c22:	2001      	movs	r0, #1
10007c24:	4770      	bx	lr
10007c26:	2000      	movs	r0, #0
10007c28:	4770      	bx	lr
	...

10007c2c <__wrap___aeabi_ui2d>:
10007c2c:	2100      	movs	r1, #0
10007c2e:	2800      	cmp	r0, #0
10007c30:	d105      	bne.n	10007c3e <__wrap___aeabi_i2d+0xa>
10007c32:	4770      	bx	lr

10007c34 <__wrap___aeabi_i2d>:
10007c34:	17c1      	asrs	r1, r0, #31
10007c36:	4048      	eors	r0, r1
10007c38:	1a40      	subs	r0, r0, r1
10007c3a:	d0fa      	beq.n	10007c32 <__wrap___aeabi_ui2d+0x6>
10007c3c:	07c9      	lsls	r1, r1, #31
10007c3e:	b513      	push	{r0, r1, r4, lr}
10007c40:	4b06      	ldr	r3, [pc, #24]	; (10007c5c <__wrap___aeabi_i2d+0x28>)
10007c42:	681b      	ldr	r3, [r3, #0]
10007c44:	4798      	blx	r3
10007c46:	bc0c      	pop	{r2, r3}
10007c48:	1c44      	adds	r4, r0, #1
10007c4a:	40a2      	lsls	r2, r4
10007c4c:	0510      	lsls	r0, r2, #20
10007c4e:	0b12      	lsrs	r2, r2, #12
10007c50:	4903      	ldr	r1, [pc, #12]	; (10007c60 <__wrap___aeabi_i2d+0x2c>)
10007c52:	1b09      	subs	r1, r1, r4
10007c54:	0509      	lsls	r1, r1, #20
10007c56:	4319      	orrs	r1, r3
10007c58:	4311      	orrs	r1, r2
10007c5a:	bd10      	pop	{r4, pc}
10007c5c:	2000afa0 	.word	0x2000afa0
10007c60:	0000041f 	.word	0x0000041f

10007c64 <__wrap___aeabi_d2iz>:
10007c64:	b510      	push	{r4, lr}
10007c66:	004c      	lsls	r4, r1, #1
10007c68:	0d62      	lsrs	r2, r4, #21
10007c6a:	2380      	movs	r3, #128	; 0x80
10007c6c:	18d2      	adds	r2, r2, r3
10007c6e:	00db      	lsls	r3, r3, #3
10007c70:	1ad2      	subs	r2, r2, r3
10007c72:	055b      	lsls	r3, r3, #21
10007c74:	2a7e      	cmp	r2, #126	; 0x7e
10007c76:	dd10      	ble.n	10007c9a <__wrap___aeabi_d2iz+0x36>
10007c78:	3a9e      	subs	r2, #158	; 0x9e
10007c7a:	da13      	bge.n	10007ca4 <__wrap___aeabi_d2iz+0x40>
10007c7c:	17cc      	asrs	r4, r1, #31
10007c7e:	0309      	lsls	r1, r1, #12
10007c80:	0849      	lsrs	r1, r1, #1
10007c82:	4319      	orrs	r1, r3
10007c84:	4252      	negs	r2, r2
10007c86:	40d1      	lsrs	r1, r2
10007c88:	0064      	lsls	r4, r4, #1
10007c8a:	3401      	adds	r4, #1
10007c8c:	3215      	adds	r2, #21
10007c8e:	2a20      	cmp	r2, #32
10007c90:	da05      	bge.n	10007c9e <__wrap___aeabi_d2iz+0x3a>
10007c92:	40d0      	lsrs	r0, r2
10007c94:	4308      	orrs	r0, r1
10007c96:	4360      	muls	r0, r4
10007c98:	bd10      	pop	{r4, pc}
10007c9a:	2000      	movs	r0, #0
10007c9c:	bd10      	pop	{r4, pc}
10007c9e:	4608      	mov	r0, r1
10007ca0:	4360      	muls	r0, r4
10007ca2:	bd10      	pop	{r4, pc}
10007ca4:	0fc8      	lsrs	r0, r1, #31
10007ca6:	18c0      	adds	r0, r0, r3
10007ca8:	3801      	subs	r0, #1
10007caa:	bd10      	pop	{r4, pc}

10007cac <__wrap___aeabi_d2uiz>:
10007cac:	b418      	push	{r3, r4}
10007cae:	4b04      	ldr	r3, [pc, #16]	; (10007cc0 <__wrap___aeabi_d2uiz+0x14>)
10007cb0:	6a5b      	ldr	r3, [r3, #36]	; 0x24
10007cb2:	46fc      	mov	ip, pc
10007cb4:	9301      	str	r3, [sp, #4]
10007cb6:	bd08      	pop	{r3, pc}
10007cb8:	81fddf24 	.word	0x81fddf24
10007cbc:	00001000 	.word	0x00001000
10007cc0:	200009d8 	.word	0x200009d8

10007cc4 <__aeabi_double_init>:
10007cc4:	2313      	movs	r3, #19
10007cc6:	b570      	push	{r4, r5, r6, lr}
10007cc8:	781d      	ldrb	r5, [r3, #0]
10007cca:	2d01      	cmp	r5, #1
10007ccc:	d015      	beq.n	10007cfa <__aeabi_double_init+0x36>
10007cce:	dd10      	ble.n	10007cf2 <__aeabi_double_init+0x2e>
10007cd0:	481c      	ldr	r0, [pc, #112]	; (10007d44 <__aeabi_double_init+0x80>)
10007cd2:	f7ff fc79 	bl	100075c8 <rom_data_lookup>
10007cd6:	4c1c      	ldr	r4, [pc, #112]	; (10007d48 <__aeabi_double_init+0x84>)
10007cd8:	0001      	movs	r1, r0
10007cda:	2280      	movs	r2, #128	; 0x80
10007cdc:	0020      	movs	r0, r4
10007cde:	f000 fb5b 	bl	10008398 <__wrap___aeabi_memcpy>
10007ce2:	2d02      	cmp	r5, #2
10007ce4:	d006      	beq.n	10007cf4 <__aeabi_double_init+0x30>
10007ce6:	4819      	ldr	r0, [pc, #100]	; (10007d4c <__aeabi_double_init+0x88>)
10007ce8:	f7ff fc66 	bl	100075b8 <rom_func_lookup>
10007cec:	4b18      	ldr	r3, [pc, #96]	; (10007d50 <__aeabi_double_init+0x8c>)
10007cee:	6018      	str	r0, [r3, #0]
10007cf0:	bd70      	pop	{r4, r5, r6, pc}
10007cf2:	4c15      	ldr	r4, [pc, #84]	; (10007d48 <__aeabi_double_init+0x84>)
10007cf4:	4b17      	ldr	r3, [pc, #92]	; (10007d54 <__aeabi_double_init+0x90>)
10007cf6:	64a3      	str	r3, [r4, #72]	; 0x48
10007cf8:	e7f5      	b.n	10007ce6 <__aeabi_double_init+0x22>
10007cfa:	4b16      	ldr	r3, [pc, #88]	; (10007d54 <__aeabi_double_init+0x90>)
10007cfc:	4c12      	ldr	r4, [pc, #72]	; (10007d48 <__aeabi_double_init+0x84>)
10007cfe:	6023      	str	r3, [r4, #0]
10007d00:	6063      	str	r3, [r4, #4]
10007d02:	60a3      	str	r3, [r4, #8]
10007d04:	60e3      	str	r3, [r4, #12]
10007d06:	6123      	str	r3, [r4, #16]
10007d08:	6163      	str	r3, [r4, #20]
10007d0a:	61a3      	str	r3, [r4, #24]
10007d0c:	61e3      	str	r3, [r4, #28]
10007d0e:	6223      	str	r3, [r4, #32]
10007d10:	6263      	str	r3, [r4, #36]	; 0x24
10007d12:	62a3      	str	r3, [r4, #40]	; 0x28
10007d14:	62e3      	str	r3, [r4, #44]	; 0x2c
10007d16:	6323      	str	r3, [r4, #48]	; 0x30
10007d18:	6363      	str	r3, [r4, #52]	; 0x34
10007d1a:	63a3      	str	r3, [r4, #56]	; 0x38
10007d1c:	63e3      	str	r3, [r4, #60]	; 0x3c
10007d1e:	6423      	str	r3, [r4, #64]	; 0x40
10007d20:	6463      	str	r3, [r4, #68]	; 0x44
10007d22:	64a3      	str	r3, [r4, #72]	; 0x48
10007d24:	64e3      	str	r3, [r4, #76]	; 0x4c
10007d26:	6523      	str	r3, [r4, #80]	; 0x50
10007d28:	6563      	str	r3, [r4, #84]	; 0x54
10007d2a:	65a3      	str	r3, [r4, #88]	; 0x58
10007d2c:	65e3      	str	r3, [r4, #92]	; 0x5c
10007d2e:	6623      	str	r3, [r4, #96]	; 0x60
10007d30:	6663      	str	r3, [r4, #100]	; 0x64
10007d32:	66a3      	str	r3, [r4, #104]	; 0x68
10007d34:	66e3      	str	r3, [r4, #108]	; 0x6c
10007d36:	6723      	str	r3, [r4, #112]	; 0x70
10007d38:	6763      	str	r3, [r4, #116]	; 0x74
10007d3a:	67a3      	str	r3, [r4, #120]	; 0x78
10007d3c:	67e3      	str	r3, [r4, #124]	; 0x7c
10007d3e:	64a3      	str	r3, [r4, #72]	; 0x48
10007d40:	e7d1      	b.n	10007ce6 <__aeabi_double_init+0x22>
10007d42:	46c0      	nop			; (mov r8, r8)
10007d44:	00004453 	.word	0x00004453
10007d48:	200009d8 	.word	0x200009d8
10007d4c:	0000334c 	.word	0x0000334c
10007d50:	2000afa0 	.word	0x2000afa0
10007d54:	10007d59 	.word	0x10007d59

10007d58 <double_table_shim_on_use_helper>:
10007d58:	b507      	push	{r0, r1, r2, lr}
10007d5a:	4660      	mov	r0, ip
10007d5c:	8801      	ldrh	r1, [r0, #0]
10007d5e:	0a0a      	lsrs	r2, r1, #8
10007d60:	3002      	adds	r0, #2
10007d62:	2adf      	cmp	r2, #223	; 0xdf
10007d64:	d1fa      	bne.n	10007d5c <double_table_shim_on_use_helper+0x4>
10007d66:	b2c9      	uxtb	r1, r1
10007d68:	0882      	lsrs	r2, r0, #2
10007d6a:	d304      	bcc.n	10007d76 <double_table_shim_on_use_helper+0x1e>
10007d6c:	8802      	ldrh	r2, [r0, #0]
10007d6e:	8840      	ldrh	r0, [r0, #2]
10007d70:	0400      	lsls	r0, r0, #16
10007d72:	4310      	orrs	r0, r2
10007d74:	e000      	b.n	10007d78 <double_table_shim_on_use_helper+0x20>
10007d76:	6800      	ldr	r0, [r0, #0]
10007d78:	4a01      	ldr	r2, [pc, #4]	; (10007d80 <double_table_shim_on_use_helper+0x28>)
10007d7a:	5050      	str	r0, [r2, r1]
10007d7c:	9003      	str	r0, [sp, #12]
10007d7e:	bd07      	pop	{r0, r1, r2, pc}
10007d80:	200009d8 	.word	0x200009d8

10007d84 <drsub_shim>:
10007d84:	b40f      	push	{r0, r1, r2, r3}
10007d86:	bc03      	pop	{r0, r1}
10007d88:	bc0c      	pop	{r2, r3}

10007d8a <dsub_shim>:
10007d8a:	b5f0      	push	{r4, r5, r6, r7, lr}
10007d8c:	2401      	movs	r4, #1
10007d8e:	07e4      	lsls	r4, r4, #31
10007d90:	4063      	eors	r3, r4
10007d92:	e000      	b.n	10007d96 <da_entry>

10007d94 <dadd_shim>:
10007d94:	b5f0      	push	{r4, r5, r6, r7, lr}

10007d96 <da_entry>:
10007d96:	0d0c      	lsrs	r4, r1, #20
10007d98:	0fcf      	lsrs	r7, r1, #31
10007d9a:	1e66      	subs	r6, r4, #1
10007d9c:	0536      	lsls	r6, r6, #20
10007d9e:	1b89      	subs	r1, r1, r6
10007da0:	0564      	lsls	r4, r4, #21
10007da2:	d303      	bcc.n	10007dac <l7_1>
10007da4:	43c9      	mvns	r1, r1
10007da6:	4240      	negs	r0, r0
10007da8:	d300      	bcc.n	10007dac <l7_1>
10007daa:	3101      	adds	r1, #1

10007dac <l7_1>:
10007dac:	0d64      	lsrs	r4, r4, #21
10007dae:	d003      	beq.n	10007db8 <l7_2>
10007db0:	1c66      	adds	r6, r4, #1
10007db2:	0af6      	lsrs	r6, r6, #11
10007db4:	d007      	beq.n	10007dc6 <l7_3>
10007db6:	1be4      	subs	r4, r4, r7

10007db8 <l7_2>:
10007db8:	2000      	movs	r0, #0
10007dba:	007f      	lsls	r7, r7, #1
10007dbc:	1c79      	adds	r1, r7, #1
10007dbe:	0789      	lsls	r1, r1, #30
10007dc0:	1289      	asrs	r1, r1, #10
10007dc2:	3c80      	subs	r4, #128	; 0x80
10007dc4:	0324      	lsls	r4, r4, #12

10007dc6 <l7_3>:
10007dc6:	0d1d      	lsrs	r5, r3, #20
10007dc8:	0fdf      	lsrs	r7, r3, #31
10007dca:	1e6e      	subs	r6, r5, #1
10007dcc:	0536      	lsls	r6, r6, #20
10007dce:	1b9b      	subs	r3, r3, r6
10007dd0:	056d      	lsls	r5, r5, #21
10007dd2:	d303      	bcc.n	10007ddc <l8_1>
10007dd4:	43db      	mvns	r3, r3
10007dd6:	4252      	negs	r2, r2
10007dd8:	d300      	bcc.n	10007ddc <l8_1>
10007dda:	3301      	adds	r3, #1

10007ddc <l8_1>:
10007ddc:	0d6d      	lsrs	r5, r5, #21
10007dde:	d003      	beq.n	10007de8 <l8_2>
10007de0:	1c6e      	adds	r6, r5, #1
10007de2:	0af6      	lsrs	r6, r6, #11
10007de4:	d007      	beq.n	10007df6 <l8_3>
10007de6:	1bed      	subs	r5, r5, r7

10007de8 <l8_2>:
10007de8:	2200      	movs	r2, #0
10007dea:	007f      	lsls	r7, r7, #1
10007dec:	1c7b      	adds	r3, r7, #1
10007dee:	079b      	lsls	r3, r3, #30
10007df0:	129b      	asrs	r3, r3, #10
10007df2:	3d80      	subs	r5, #128	; 0x80
10007df4:	032d      	lsls	r5, r5, #12

10007df6 <l8_3>:
10007df6:	1b2f      	subs	r7, r5, r4
10007df8:	1b66      	subs	r6, r4, r5
10007dfa:	d458      	bmi.n	10007eae <da_ygtx>
10007dfc:	46a4      	mov	ip, r4
10007dfe:	2e20      	cmp	r6, #32
10007e00:	da46      	bge.n	10007e90 <da_xrgty>
10007e02:	3720      	adds	r7, #32
10007e04:	0014      	movs	r4, r2
10007e06:	40bc      	lsls	r4, r7

10007e08 <da_xgty0>:
10007e08:	001d      	movs	r5, r3
10007e0a:	40bd      	lsls	r5, r7
10007e0c:	40f2      	lsrs	r2, r6
10007e0e:	4133      	asrs	r3, r6
10007e10:	432a      	orrs	r2, r5

10007e12 <da_add>:
10007e12:	1880      	adds	r0, r0, r2
10007e14:	4159      	adcs	r1, r3

10007e16 <da_pack>:
10007e16:	0fcb      	lsrs	r3, r1, #31
10007e18:	d005      	beq.n	10007e26 <da_pack+0x10>
10007e1a:	43c9      	mvns	r1, r1
10007e1c:	43c0      	mvns	r0, r0
10007e1e:	2200      	movs	r2, #0
10007e20:	4264      	negs	r4, r4
10007e22:	4150      	adcs	r0, r2
10007e24:	4151      	adcs	r1, r2
10007e26:	4662      	mov	r2, ip
10007e28:	0d4d      	lsrs	r5, r1, #21
10007e2a:	d128      	bne.n	10007e7e <da_0>
10007e2c:	0d0d      	lsrs	r5, r1, #20
10007e2e:	d107      	bne.n	10007e40 <da_1>
10007e30:	2800      	cmp	r0, #0
10007e32:	d01f      	beq.n	10007e74 <da_5>

10007e34 <da_2>:
10007e34:	1924      	adds	r4, r4, r4
10007e36:	4140      	adcs	r0, r0
10007e38:	4149      	adcs	r1, r1
10007e3a:	3a01      	subs	r2, #1
10007e3c:	0d0d      	lsrs	r5, r1, #20
10007e3e:	d0f9      	beq.n	10007e34 <da_2>

10007e40 <da_1>:
10007e40:	0064      	lsls	r4, r4, #1
10007e42:	d306      	bcc.n	10007e52 <da_3>

10007e44 <da_4>:
10007e44:	3001      	adds	r0, #1
10007e46:	d300      	bcc.n	10007e4a <da_4+0x6>
10007e48:	3101      	adds	r1, #1
10007e4a:	2c00      	cmp	r4, #0
10007e4c:	d101      	bne.n	10007e52 <da_3>
10007e4e:	0840      	lsrs	r0, r0, #1
10007e50:	0040      	lsls	r0, r0, #1

10007e52 <da_3>:
10007e52:	3a01      	subs	r2, #1
10007e54:	d40b      	bmi.n	10007e6e <da_6>
10007e56:	1c94      	adds	r4, r2, #2
10007e58:	0ae4      	lsrs	r4, r4, #11
10007e5a:	d104      	bne.n	10007e66 <da_7>
10007e5c:	0512      	lsls	r2, r2, #20
10007e5e:	4411      	add	r1, r2
10007e60:	07db      	lsls	r3, r3, #31
10007e62:	4419      	add	r1, r3
10007e64:	bdf0      	pop	{r4, r5, r6, r7, pc}

10007e66 <da_7>:
10007e66:	07d9      	lsls	r1, r3, #31
10007e68:	4b20      	ldr	r3, [pc, #128]	; (10007eec <da_xmgty+0x4>)
10007e6a:	4319      	orrs	r1, r3
10007e6c:	e000      	b.n	10007e70 <da_6+0x2>

10007e6e <da_6>:
10007e6e:	07d9      	lsls	r1, r3, #31
10007e70:	2000      	movs	r0, #0
10007e72:	bdf0      	pop	{r4, r5, r6, r7, pc}

10007e74 <da_5>:
10007e74:	2900      	cmp	r1, #0
10007e76:	d1dd      	bne.n	10007e34 <da_2>
10007e78:	2c00      	cmp	r4, #0
10007e7a:	d1db      	bne.n	10007e34 <da_2>
10007e7c:	bdf0      	pop	{r4, r5, r6, r7, pc}

10007e7e <da_0>:
10007e7e:	3201      	adds	r2, #1
10007e80:	07c6      	lsls	r6, r0, #31
10007e82:	0840      	lsrs	r0, r0, #1
10007e84:	07cd      	lsls	r5, r1, #31
10007e86:	4328      	orrs	r0, r5
10007e88:	0849      	lsrs	r1, r1, #1
10007e8a:	2e00      	cmp	r6, #0
10007e8c:	d0e1      	beq.n	10007e52 <da_3>
10007e8e:	e7d9      	b.n	10007e44 <da_4>

10007e90 <da_xrgty>:
10007e90:	2e3c      	cmp	r6, #60	; 0x3c
10007e92:	da29      	bge.n	10007ee8 <da_xmgty>
10007e94:	3e20      	subs	r6, #32
10007e96:	3740      	adds	r7, #64	; 0x40
10007e98:	0014      	movs	r4, r2
10007e9a:	40bc      	lsls	r4, r7
10007e9c:	d000      	beq.n	10007ea0 <da_xrgty+0x10>
10007e9e:	2401      	movs	r4, #1
10007ea0:	40f2      	lsrs	r2, r6
10007ea2:	4314      	orrs	r4, r2
10007ea4:	001a      	movs	r2, r3
10007ea6:	40bb      	lsls	r3, r7
10007ea8:	431c      	orrs	r4, r3
10007eaa:	17d3      	asrs	r3, r2, #31
10007eac:	e7ac      	b.n	10007e08 <da_xgty0>

10007eae <da_ygtx>:
10007eae:	46ac      	mov	ip, r5
10007eb0:	2f20      	cmp	r7, #32
10007eb2:	da08      	bge.n	10007ec6 <da_yrgtx>
10007eb4:	3620      	adds	r6, #32
10007eb6:	0004      	movs	r4, r0
10007eb8:	40b4      	lsls	r4, r6

10007eba <da_ygtx0>:
10007eba:	000d      	movs	r5, r1
10007ebc:	40b5      	lsls	r5, r6
10007ebe:	40f8      	lsrs	r0, r7
10007ec0:	4139      	asrs	r1, r7
10007ec2:	4328      	orrs	r0, r5
10007ec4:	e7a5      	b.n	10007e12 <da_add>

10007ec6 <da_yrgtx>:
10007ec6:	2f3c      	cmp	r7, #60	; 0x3c
10007ec8:	da0c      	bge.n	10007ee4 <da_ymgtx>
10007eca:	3f20      	subs	r7, #32
10007ecc:	3640      	adds	r6, #64	; 0x40
10007ece:	0004      	movs	r4, r0
10007ed0:	40b4      	lsls	r4, r6
10007ed2:	d000      	beq.n	10007ed6 <da_yrgtx+0x10>
10007ed4:	2401      	movs	r4, #1
10007ed6:	40f8      	lsrs	r0, r7
10007ed8:	4304      	orrs	r4, r0
10007eda:	0008      	movs	r0, r1
10007edc:	40b1      	lsls	r1, r6
10007ede:	430c      	orrs	r4, r1
10007ee0:	17c1      	asrs	r1, r0, #31
10007ee2:	e7ea      	b.n	10007eba <da_ygtx0>

10007ee4 <da_ymgtx>:
10007ee4:	0010      	movs	r0, r2
10007ee6:	0019      	movs	r1, r3

10007ee8 <da_xmgty>:
10007ee8:	2400      	movs	r4, #0
10007eea:	e794      	b.n	10007e16 <da_pack>
10007eec:	7ff00000 	.word	0x7ff00000

10007ef0 <dmul_shim>:
10007ef0:	b5f0      	push	{r4, r5, r6, r7, lr}
10007ef2:	0d0c      	lsrs	r4, r1, #20
10007ef4:	1e66      	subs	r6, r4, #1
10007ef6:	0536      	lsls	r6, r6, #20
10007ef8:	1b89      	subs	r1, r1, r6
10007efa:	0ae6      	lsrs	r6, r4, #11
10007efc:	0564      	lsls	r4, r4, #21
10007efe:	0d64      	lsrs	r4, r4, #21
10007f00:	d002      	beq.n	10007f08 <l11_1>
10007f02:	1c65      	adds	r5, r4, #1
10007f04:	0aed      	lsrs	r5, r5, #11
10007f06:	d004      	beq.n	10007f12 <l11_2>

10007f08 <l11_1>:
10007f08:	2000      	movs	r0, #0
10007f0a:	2101      	movs	r1, #1
10007f0c:	0509      	lsls	r1, r1, #20
10007f0e:	3c80      	subs	r4, #128	; 0x80
10007f10:	0324      	lsls	r4, r4, #12

10007f12 <l11_2>:
10007f12:	46a4      	mov	ip, r4
10007f14:	0d1c      	lsrs	r4, r3, #20
10007f16:	1e67      	subs	r7, r4, #1
10007f18:	053f      	lsls	r7, r7, #20
10007f1a:	1bdb      	subs	r3, r3, r7
10007f1c:	0ae7      	lsrs	r7, r4, #11
10007f1e:	0564      	lsls	r4, r4, #21
10007f20:	0d64      	lsrs	r4, r4, #21
10007f22:	d002      	beq.n	10007f2a <l12_1>
10007f24:	1c65      	adds	r5, r4, #1
10007f26:	0aed      	lsrs	r5, r5, #11
10007f28:	d004      	beq.n	10007f34 <l12_2>

10007f2a <l12_1>:
10007f2a:	2200      	movs	r2, #0
10007f2c:	2301      	movs	r3, #1
10007f2e:	051b      	lsls	r3, r3, #20
10007f30:	3c80      	subs	r4, #128	; 0x80
10007f32:	0324      	lsls	r4, r4, #12

10007f34 <l12_2>:
10007f34:	4077      	eors	r7, r6
10007f36:	4464      	add	r4, ip
10007f38:	b497      	push	{r0, r1, r2, r4, r7}
10007f3a:	b284      	uxth	r4, r0
10007f3c:	b296      	uxth	r6, r2
10007f3e:	4374      	muls	r4, r6
10007f40:	0c07      	lsrs	r7, r0, #16
10007f42:	437e      	muls	r6, r7
10007f44:	0c15      	lsrs	r5, r2, #16
10007f46:	436f      	muls	r7, r5
10007f48:	b280      	uxth	r0, r0
10007f4a:	4368      	muls	r0, r5
10007f4c:	1836      	adds	r6, r6, r0
10007f4e:	d302      	bcc.n	10007f56 <l13_1>
10007f50:	2001      	movs	r0, #1
10007f52:	0400      	lsls	r0, r0, #16
10007f54:	183f      	adds	r7, r7, r0

10007f56 <l13_1>:
10007f56:	0430      	lsls	r0, r6, #16
10007f58:	0c35      	lsrs	r5, r6, #16
10007f5a:	1900      	adds	r0, r0, r4
10007f5c:	417d      	adcs	r5, r7
10007f5e:	4684      	mov	ip, r0
10007f60:	b288      	uxth	r0, r1
10007f62:	b29a      	uxth	r2, r3
10007f64:	4350      	muls	r0, r2
10007f66:	0c0c      	lsrs	r4, r1, #16
10007f68:	4362      	muls	r2, r4
10007f6a:	0c1f      	lsrs	r7, r3, #16
10007f6c:	437c      	muls	r4, r7
10007f6e:	b28e      	uxth	r6, r1
10007f70:	437e      	muls	r6, r7
10007f72:	1992      	adds	r2, r2, r6
10007f74:	d302      	bcc.n	10007f7c <l14_1>
10007f76:	2601      	movs	r6, #1
10007f78:	0436      	lsls	r6, r6, #16
10007f7a:	19a4      	adds	r4, r4, r6

10007f7c <l14_1>:
10007f7c:	0416      	lsls	r6, r2, #16
10007f7e:	0c17      	lsrs	r7, r2, #16
10007f80:	1836      	adds	r6, r6, r0
10007f82:	4167      	adcs	r7, r4
10007f84:	bc01      	pop	{r0}
10007f86:	b281      	uxth	r1, r0
10007f88:	b29a      	uxth	r2, r3
10007f8a:	4351      	muls	r1, r2
10007f8c:	0c04      	lsrs	r4, r0, #16
10007f8e:	4362      	muls	r2, r4
10007f90:	0c1b      	lsrs	r3, r3, #16
10007f92:	435c      	muls	r4, r3
10007f94:	b280      	uxth	r0, r0
10007f96:	4358      	muls	r0, r3
10007f98:	1812      	adds	r2, r2, r0
10007f9a:	d302      	bcc.n	10007fa2 <l15_1>
10007f9c:	2001      	movs	r0, #1
10007f9e:	0400      	lsls	r0, r0, #16
10007fa0:	1824      	adds	r4, r4, r0

10007fa2 <l15_1>:
10007fa2:	0410      	lsls	r0, r2, #16
10007fa4:	0c13      	lsrs	r3, r2, #16
10007fa6:	1840      	adds	r0, r0, r1
10007fa8:	4163      	adcs	r3, r4
10007faa:	182d      	adds	r5, r5, r0
10007fac:	415e      	adcs	r6, r3
10007fae:	2000      	movs	r0, #0
10007fb0:	4147      	adcs	r7, r0
10007fb2:	bc06      	pop	{r1, r2}
10007fb4:	b288      	uxth	r0, r1
10007fb6:	b293      	uxth	r3, r2
10007fb8:	4358      	muls	r0, r3
10007fba:	0c0c      	lsrs	r4, r1, #16
10007fbc:	4363      	muls	r3, r4
10007fbe:	0c12      	lsrs	r2, r2, #16
10007fc0:	4354      	muls	r4, r2
10007fc2:	b289      	uxth	r1, r1
10007fc4:	4351      	muls	r1, r2
10007fc6:	185b      	adds	r3, r3, r1
10007fc8:	d302      	bcc.n	10007fd0 <l16_1>
10007fca:	2101      	movs	r1, #1
10007fcc:	0409      	lsls	r1, r1, #16
10007fce:	1864      	adds	r4, r4, r1

10007fd0 <l16_1>:
10007fd0:	0419      	lsls	r1, r3, #16
10007fd2:	0c1a      	lsrs	r2, r3, #16
10007fd4:	1809      	adds	r1, r1, r0
10007fd6:	4162      	adcs	r2, r4
10007fd8:	186d      	adds	r5, r5, r1
10007fda:	4156      	adcs	r6, r2
10007fdc:	2000      	movs	r0, #0
10007fde:	4147      	adcs	r7, r0
10007fe0:	bc18      	pop	{r3, r4}
10007fe2:	02f9      	lsls	r1, r7, #11
10007fe4:	0d72      	lsrs	r2, r6, #21
10007fe6:	4311      	orrs	r1, r2
10007fe8:	02f0      	lsls	r0, r6, #11
10007fea:	0d6a      	lsrs	r2, r5, #21
10007fec:	4310      	orrs	r0, r2
10007fee:	02ed      	lsls	r5, r5, #11
10007ff0:	0d0a      	lsrs	r2, r1, #20
10007ff2:	d103      	bne.n	10007ffc <l16_1+0x2c>
10007ff4:	196d      	adds	r5, r5, r5
10007ff6:	4140      	adcs	r0, r0
10007ff8:	4149      	adcs	r1, r1
10007ffa:	3b01      	subs	r3, #1
10007ffc:	4e12      	ldr	r6, [pc, #72]	; (10008048 <dm_1+0xa>)
10007ffe:	1b9b      	subs	r3, r3, r6
10008000:	0076      	lsls	r6, r6, #1
10008002:	42b3      	cmp	r3, r6
10008004:	d20e      	bcs.n	10008024 <dm_0>
10008006:	006d      	lsls	r5, r5, #1
10008008:	d307      	bcc.n	1000801a <l16_1+0x4a>
1000800a:	3001      	adds	r0, #1
1000800c:	2600      	movs	r6, #0
1000800e:	4171      	adcs	r1, r6
10008010:	4666      	mov	r6, ip
10008012:	4335      	orrs	r5, r6
10008014:	d101      	bne.n	1000801a <l16_1+0x4a>
10008016:	0840      	lsrs	r0, r0, #1
10008018:	0040      	lsls	r0, r0, #1
1000801a:	051b      	lsls	r3, r3, #20
1000801c:	18c9      	adds	r1, r1, r3

1000801e <dm_2>:
1000801e:	07e4      	lsls	r4, r4, #31
10008020:	4421      	add	r1, r4
10008022:	bdf0      	pop	{r4, r5, r6, r7, pc}

10008024 <dm_0>:
10008024:	da0b      	bge.n	1000803e <dm_1>
10008026:	3301      	adds	r3, #1
10008028:	d106      	bne.n	10008038 <dm_0+0x14>
1000802a:	3001      	adds	r0, #1
1000802c:	d104      	bne.n	10008038 <dm_0+0x14>
1000802e:	3101      	adds	r1, #1
10008030:	0d4f      	lsrs	r7, r1, #21
10008032:	d001      	beq.n	10008038 <dm_0+0x14>
10008034:	0849      	lsrs	r1, r1, #1
10008036:	e7f2      	b.n	1000801e <dm_2>
10008038:	07e1      	lsls	r1, r4, #31
1000803a:	2000      	movs	r0, #0
1000803c:	bdf0      	pop	{r4, r5, r6, r7, pc}

1000803e <dm_1>:
1000803e:	3601      	adds	r6, #1
10008040:	0531      	lsls	r1, r6, #20
10008042:	2000      	movs	r0, #0
10008044:	e7eb      	b.n	1000801e <dm_2>
10008046:	0000      	.short	0x0000
10008048:	000003ff 	.word	0x000003ff

1000804c <ddiv_shim>:
1000804c:	b5f0      	push	{r4, r5, r6, r7, lr}

1000804e <ddiv0>:
1000804e:	0d1c      	lsrs	r4, r3, #20
10008050:	1e67      	subs	r7, r4, #1
10008052:	053f      	lsls	r7, r7, #20
10008054:	1bdb      	subs	r3, r3, r7
10008056:	0ae7      	lsrs	r7, r4, #11
10008058:	0564      	lsls	r4, r4, #21
1000805a:	0d64      	lsrs	r4, r4, #21
1000805c:	d002      	beq.n	10008064 <l19_1>
1000805e:	1c66      	adds	r6, r4, #1
10008060:	0af6      	lsrs	r6, r6, #11
10008062:	d004      	beq.n	1000806e <l19_2>

10008064 <l19_1>:
10008064:	2200      	movs	r2, #0
10008066:	2301      	movs	r3, #1
10008068:	051b      	lsls	r3, r3, #20
1000806a:	3c80      	subs	r4, #128	; 0x80
1000806c:	0324      	lsls	r4, r4, #12

1000806e <l19_2>:
1000806e:	25d0      	movs	r5, #208	; 0xd0
10008070:	062d      	lsls	r5, r5, #24
10008072:	2600      	movs	r6, #0
10008074:	43f6      	mvns	r6, r6
10008076:	662e      	str	r6, [r5, #96]	; 0x60
10008078:	091e      	lsrs	r6, r3, #4
1000807a:	666e      	str	r6, [r5, #100]	; 0x64
1000807c:	0fce      	lsrs	r6, r1, #31
1000807e:	19f6      	adds	r6, r6, r7
10008080:	46b4      	mov	ip, r6
10008082:	0049      	lsls	r1, r1, #1
10008084:	0d4f      	lsrs	r7, r1, #21
10008086:	d002      	beq.n	1000808e <l19_2+0x20>
10008088:	1c7e      	adds	r6, r7, #1
1000808a:	0af6      	lsrs	r6, r6, #11
1000808c:	d003      	beq.n	10008096 <l19_2+0x28>
1000808e:	2000      	movs	r0, #0
10008090:	2100      	movs	r1, #0
10008092:	3f40      	subs	r7, #64	; 0x40
10008094:	033f      	lsls	r7, r7, #12
10008096:	1b3e      	subs	r6, r7, r4
10008098:	00b6      	lsls	r6, r6, #2
1000809a:	44b4      	add	ip, r6
1000809c:	3f01      	subs	r7, #1
1000809e:	057f      	lsls	r7, r7, #21
100080a0:	1bc9      	subs	r1, r1, r7
100080a2:	0849      	lsrs	r1, r1, #1
100080a4:	6f2e      	ldr	r6, [r5, #112]	; 0x70
100080a6:	3601      	adds	r6, #1
100080a8:	0876      	lsrs	r6, r6, #1
100080aa:	029c      	lsls	r4, r3, #10
100080ac:	0d95      	lsrs	r5, r2, #22
100080ae:	4325      	orrs	r5, r4
100080b0:	4375      	muls	r5, r6
100080b2:	13ed      	asrs	r5, r5, #15
100080b4:	4375      	muls	r5, r6
100080b6:	13ad      	asrs	r5, r5, #14
100080b8:	3501      	adds	r5, #1
100080ba:	106d      	asrs	r5, r5, #1
100080bc:	03f6      	lsls	r6, r6, #15
100080be:	1b76      	subs	r6, r6, r5
100080c0:	b40c      	push	{r2, r3}
100080c2:	02cc      	lsls	r4, r1, #11
100080c4:	0d45      	lsrs	r5, r0, #21
100080c6:	432c      	orrs	r4, r5
100080c8:	b2a2      	uxth	r2, r4
100080ca:	b2b3      	uxth	r3, r6
100080cc:	435a      	muls	r2, r3
100080ce:	0c27      	lsrs	r7, r4, #16
100080d0:	437b      	muls	r3, r7
100080d2:	0c35      	lsrs	r5, r6, #16
100080d4:	436f      	muls	r7, r5
100080d6:	b2a4      	uxth	r4, r4
100080d8:	436c      	muls	r4, r5
100080da:	191b      	adds	r3, r3, r4
100080dc:	d302      	bcc.n	100080e4 <l20_1>
100080de:	2401      	movs	r4, #1
100080e0:	0424      	lsls	r4, r4, #16
100080e2:	193f      	adds	r7, r7, r4

100080e4 <l20_1>:
100080e4:	041c      	lsls	r4, r3, #16
100080e6:	0c1d      	lsrs	r5, r3, #16
100080e8:	18a4      	adds	r4, r4, r2
100080ea:	417d      	adcs	r5, r7
100080ec:	1924      	adds	r4, r4, r4
100080ee:	416d      	adcs	r5, r5
100080f0:	9a00      	ldr	r2, [sp, #0]
100080f2:	b291      	uxth	r1, r2
100080f4:	b2ac      	uxth	r4, r5
100080f6:	4361      	muls	r1, r4
100080f8:	0c17      	lsrs	r7, r2, #16
100080fa:	437c      	muls	r4, r7
100080fc:	0c2b      	lsrs	r3, r5, #16
100080fe:	435f      	muls	r7, r3
10008100:	b292      	uxth	r2, r2
10008102:	435a      	muls	r2, r3
10008104:	18a4      	adds	r4, r4, r2
10008106:	d302      	bcc.n	1000810e <l21_1>
10008108:	2201      	movs	r2, #1
1000810a:	0412      	lsls	r2, r2, #16
1000810c:	18bf      	adds	r7, r7, r2

1000810e <l21_1>:
1000810e:	0422      	lsls	r2, r4, #16
10008110:	0c23      	lsrs	r3, r4, #16
10008112:	1852      	adds	r2, r2, r1
10008114:	417b      	adcs	r3, r7
10008116:	9c01      	ldr	r4, [sp, #4]
10008118:	436c      	muls	r4, r5
1000811a:	191b      	adds	r3, r3, r4
1000811c:	0e52      	lsrs	r2, r2, #25
1000811e:	01d9      	lsls	r1, r3, #7
10008120:	430a      	orrs	r2, r1
10008122:	0144      	lsls	r4, r0, #5
10008124:	1aa0      	subs	r0, r4, r2
10008126:	b281      	uxth	r1, r0
10008128:	b2b2      	uxth	r2, r6
1000812a:	4351      	muls	r1, r2
1000812c:	1403      	asrs	r3, r0, #16
1000812e:	435a      	muls	r2, r3
10008130:	0c36      	lsrs	r6, r6, #16
10008132:	4373      	muls	r3, r6
10008134:	b287      	uxth	r7, r0
10008136:	4377      	muls	r7, r6
10008138:	17d6      	asrs	r6, r2, #31
1000813a:	19d2      	adds	r2, r2, r7
1000813c:	2700      	movs	r7, #0
1000813e:	417e      	adcs	r6, r7
10008140:	0436      	lsls	r6, r6, #16
10008142:	199b      	adds	r3, r3, r6
10008144:	0417      	lsls	r7, r2, #16
10008146:	0c16      	lsrs	r6, r2, #16
10008148:	187f      	adds	r7, r7, r1
1000814a:	415e      	adcs	r6, r3
1000814c:	1673      	asrs	r3, r6, #25
1000814e:	18ed      	adds	r5, r5, r3
10008150:	01f3      	lsls	r3, r6, #7
10008152:	2600      	movs	r6, #0
10008154:	3380      	adds	r3, #128	; 0x80
10008156:	4175      	adcs	r5, r6
10008158:	0fa9      	lsrs	r1, r5, #30
1000815a:	d106      	bne.n	1000816a <dd_0>
1000815c:	0064      	lsls	r4, r4, #1
1000815e:	0a69      	lsrs	r1, r5, #9
10008160:	05e8      	lsls	r0, r5, #23
10008162:	0a5b      	lsrs	r3, r3, #9
10008164:	4318      	orrs	r0, r3
10008166:	d209      	bcs.n	1000817c <dd_1>
10008168:	e02f      	b.n	100081ca <dd_2>

1000816a <dd_0>:
1000816a:	2204      	movs	r2, #4
1000816c:	4494      	add	ip, r2
1000816e:	3380      	adds	r3, #128	; 0x80
10008170:	4175      	adcs	r5, r6
10008172:	0aa9      	lsrs	r1, r5, #10
10008174:	05a8      	lsls	r0, r5, #22
10008176:	0a9b      	lsrs	r3, r3, #10
10008178:	4318      	orrs	r0, r3
1000817a:	d326      	bcc.n	100081ca <dd_2>

1000817c <dd_1>:
1000817c:	4140      	adcs	r0, r0
1000817e:	4149      	adcs	r1, r1
10008180:	0424      	lsls	r4, r4, #16
10008182:	9a00      	ldr	r2, [sp, #0]
10008184:	9b01      	ldr	r3, [sp, #4]
10008186:	000d      	movs	r5, r1
10008188:	4355      	muls	r5, r2
1000818a:	1b64      	subs	r4, r4, r5
1000818c:	4343      	muls	r3, r0
1000818e:	1ae4      	subs	r4, r4, r3
10008190:	b295      	uxth	r5, r2
10008192:	b286      	uxth	r6, r0
10008194:	4375      	muls	r5, r6
10008196:	0c17      	lsrs	r7, r2, #16
10008198:	437e      	muls	r6, r7
1000819a:	0c03      	lsrs	r3, r0, #16
1000819c:	435f      	muls	r7, r3
1000819e:	b292      	uxth	r2, r2
100081a0:	435a      	muls	r2, r3
100081a2:	18b6      	adds	r6, r6, r2
100081a4:	d302      	bcc.n	100081ac <l23_1>
100081a6:	2201      	movs	r2, #1
100081a8:	0412      	lsls	r2, r2, #16
100081aa:	18bf      	adds	r7, r7, r2

100081ac <l23_1>:
100081ac:	0432      	lsls	r2, r6, #16
100081ae:	0c33      	lsrs	r3, r6, #16
100081b0:	1952      	adds	r2, r2, r5
100081b2:	417b      	adcs	r3, r7
100081b4:	4252      	negs	r2, r2
100081b6:	419c      	sbcs	r4, r3
100081b8:	2c00      	cmp	r4, #0
100081ba:	d402      	bmi.n	100081c2 <l23_1+0x16>
100081bc:	2200      	movs	r2, #0
100081be:	3001      	adds	r0, #1
100081c0:	4151      	adcs	r1, r2
100081c2:	0840      	lsrs	r0, r0, #1
100081c4:	07ca      	lsls	r2, r1, #31
100081c6:	4310      	orrs	r0, r2
100081c8:	0849      	lsrs	r1, r1, #1

100081ca <dd_2>:
100081ca:	b002      	add	sp, #8
100081cc:	4662      	mov	r2, ip
100081ce:	07d7      	lsls	r7, r2, #31
100081d0:	1092      	asrs	r2, r2, #2
100081d2:	4b08      	ldr	r3, [pc, #32]	; (100081f4 <dd_4+0x6>)
100081d4:	18d2      	adds	r2, r2, r3
100081d6:	4b08      	ldr	r3, [pc, #32]	; (100081f8 <dd_4+0xa>)
100081d8:	429a      	cmp	r2, r3
100081da:	d203      	bcs.n	100081e4 <dd_3>
100081dc:	0512      	lsls	r2, r2, #20
100081de:	1889      	adds	r1, r1, r2

100081e0 <dd_5>:
100081e0:	19c9      	adds	r1, r1, r7
100081e2:	bdf0      	pop	{r4, r5, r6, r7, pc}

100081e4 <dd_3>:
100081e4:	2000      	movs	r0, #0
100081e6:	2a00      	cmp	r2, #0
100081e8:	dc01      	bgt.n	100081ee <dd_4>
100081ea:	0039      	movs	r1, r7
100081ec:	bdf0      	pop	{r4, r5, r6, r7, pc}

100081ee <dd_4>:
100081ee:	3301      	adds	r3, #1
100081f0:	0519      	lsls	r1, r3, #20
100081f2:	e7f5      	b.n	100081e0 <dd_5>
100081f4:	000003fd 	.word	0x000003fd
100081f8:	000007fe 	.word	0x000007fe

100081fc <double2uint_shim>:
100081fc:	2200      	movs	r2, #0

100081fe <double2ufix_shim>:
100081fe:	b500      	push	{lr}
10008200:	3220      	adds	r2, #32
10008202:	f000 f804 	bl	1000820e <double2ufix64_shim>
10008206:	0008      	movs	r0, r1
10008208:	bd00      	pop	{pc}
	...

1000820c <double2uint64_shim>:
1000820c:	2200      	movs	r2, #0

1000820e <double2ufix64_shim>:
1000820e:	150b      	asrs	r3, r1, #20
10008210:	d40a      	bmi.n	10008228 <ret_dzero>

10008212 <d2fix>:
10008212:	b510      	push	{r4, lr}
10008214:	4694      	mov	ip, r2
10008216:	f000 f831 	bl	1000827c <dunpacks>
1000821a:	1414      	asrs	r4, r2, #16
1000821c:	3401      	adds	r4, #1
1000821e:	da00      	bge.n	10008222 <d2fix+0x10>
10008220:	2100      	movs	r1, #0
10008222:	17cb      	asrs	r3, r1, #31
10008224:	4c14      	ldr	r4, [pc, #80]	; (10008278 <d2fix_a+0x4a>)
10008226:	4720      	bx	r4

10008228 <ret_dzero>:
10008228:	2000      	movs	r0, #0
1000822a:	2100      	movs	r1, #0
1000822c:	4770      	bx	lr

1000822e <d2fix_a>:
1000822e:	4462      	add	r2, ip
10008230:	3a34      	subs	r2, #52	; 0x34
10008232:	d40c      	bmi.n	1000824e <d2fix_a+0x20>
10008234:	2a0c      	cmp	r2, #12
10008236:	da07      	bge.n	10008248 <d2fix_a+0x1a>
10008238:	0004      	movs	r4, r0
1000823a:	4091      	lsls	r1, r2
1000823c:	4090      	lsls	r0, r2
1000823e:	4252      	negs	r2, r2
10008240:	3220      	adds	r2, #32
10008242:	40d4      	lsrs	r4, r2
10008244:	4321      	orrs	r1, r4
10008246:	bd10      	pop	{r4, pc}
10008248:	43d8      	mvns	r0, r3
1000824a:	43d9      	mvns	r1, r3
1000824c:	bd10      	pop	{r4, pc}
1000824e:	3220      	adds	r2, #32
10008250:	d407      	bmi.n	10008262 <d2fix_a+0x34>
10008252:	460c      	mov	r4, r1
10008254:	4094      	lsls	r4, r2
10008256:	4252      	negs	r2, r2
10008258:	3220      	adds	r2, #32
1000825a:	4111      	asrs	r1, r2
1000825c:	40d0      	lsrs	r0, r2
1000825e:	4320      	orrs	r0, r4
10008260:	bd10      	pop	{r4, pc}
10008262:	0008      	movs	r0, r1
10008264:	17c9      	asrs	r1, r1, #31
10008266:	3220      	adds	r2, #32
10008268:	d403      	bmi.n	10008272 <d2fix_a+0x44>
1000826a:	4252      	negs	r2, r2
1000826c:	3220      	adds	r2, #32
1000826e:	4110      	asrs	r0, r2
10008270:	bd10      	pop	{r4, pc}
10008272:	0018      	movs	r0, r3
10008274:	0019      	movs	r1, r3
10008276:	bd10      	pop	{r4, pc}
10008278:	1000822f 	.word	0x1000822f

1000827c <dunpacks>:
1000827c:	0d0a      	lsrs	r2, r1, #20
1000827e:	0fcc      	lsrs	r4, r1, #31
10008280:	1e53      	subs	r3, r2, #1
10008282:	051b      	lsls	r3, r3, #20
10008284:	1ac9      	subs	r1, r1, r3
10008286:	0552      	lsls	r2, r2, #21
10008288:	d303      	bcc.n	10008292 <l59_1>
1000828a:	43c9      	mvns	r1, r1
1000828c:	4240      	negs	r0, r0
1000828e:	d300      	bcc.n	10008292 <l59_1>
10008290:	3101      	adds	r1, #1

10008292 <l59_1>:
10008292:	0d52      	lsrs	r2, r2, #21
10008294:	d003      	beq.n	1000829e <l59_2>
10008296:	1c53      	adds	r3, r2, #1
10008298:	0adb      	lsrs	r3, r3, #11
1000829a:	d007      	beq.n	100082ac <l59_3>
1000829c:	1b12      	subs	r2, r2, r4

1000829e <l59_2>:
1000829e:	2000      	movs	r0, #0
100082a0:	0064      	lsls	r4, r4, #1
100082a2:	1c61      	adds	r1, r4, #1
100082a4:	0789      	lsls	r1, r1, #30
100082a6:	1289      	asrs	r1, r1, #10
100082a8:	3a80      	subs	r2, #128	; 0x80
100082aa:	0312      	lsls	r2, r2, #12

100082ac <l59_3>:
100082ac:	4b01      	ldr	r3, [pc, #4]	; (100082b4 <l59_3+0x8>)
100082ae:	1ad2      	subs	r2, r2, r3
100082b0:	4770      	bx	lr
100082b2:	0000      	.short	0x0000
100082b4:	000003ff 	.word	0x000003ff

100082b8 <__wrap___aeabi_lmul>:
100082b8:	4351      	muls	r1, r2
100082ba:	4343      	muls	r3, r0
100082bc:	18c9      	adds	r1, r1, r3
100082be:	468c      	mov	ip, r1
100082c0:	0c11      	lsrs	r1, r2, #16
100082c2:	b283      	uxth	r3, r0
100082c4:	434b      	muls	r3, r1
100082c6:	b410      	push	{r4}
100082c8:	0c04      	lsrs	r4, r0, #16
100082ca:	4361      	muls	r1, r4
100082cc:	b292      	uxth	r2, r2
100082ce:	b280      	uxth	r0, r0
100082d0:	4350      	muls	r0, r2
100082d2:	4362      	muls	r2, r4
100082d4:	041c      	lsls	r4, r3, #16
100082d6:	0c1b      	lsrs	r3, r3, #16
100082d8:	1900      	adds	r0, r0, r4
100082da:	bc10      	pop	{r4}
100082dc:	4159      	adcs	r1, r3
100082de:	0413      	lsls	r3, r2, #16
100082e0:	0c12      	lsrs	r2, r2, #16
100082e2:	18c0      	adds	r0, r0, r3
100082e4:	4151      	adcs	r1, r2
100082e6:	4461      	add	r1, ip
100082e8:	4770      	bx	lr
	...

100082ec <__aeabi_float_init>:
100082ec:	2313      	movs	r3, #19
100082ee:	b510      	push	{r4, lr}
100082f0:	4812      	ldr	r0, [pc, #72]	; (1000833c <__aeabi_float_init+0x50>)
100082f2:	781c      	ldrb	r4, [r3, #0]
100082f4:	f7ff f968 	bl	100075c8 <rom_data_lookup>
100082f8:	0001      	movs	r1, r0
100082fa:	2c01      	cmp	r4, #1
100082fc:	d00a      	beq.n	10008314 <__aeabi_float_init+0x28>
100082fe:	dd03      	ble.n	10008308 <__aeabi_float_init+0x1c>
10008300:	2280      	movs	r2, #128	; 0x80
10008302:	480f      	ldr	r0, [pc, #60]	; (10008340 <__aeabi_float_init+0x54>)
10008304:	f000 f848 	bl	10008398 <__wrap___aeabi_memcpy>
10008308:	480e      	ldr	r0, [pc, #56]	; (10008344 <__aeabi_float_init+0x58>)
1000830a:	f7ff f955 	bl	100075b8 <rom_func_lookup>
1000830e:	4b0e      	ldr	r3, [pc, #56]	; (10008348 <__aeabi_float_init+0x5c>)
10008310:	6018      	str	r0, [r3, #0]
10008312:	bd10      	pop	{r4, pc}
10008314:	4c0a      	ldr	r4, [pc, #40]	; (10008340 <__aeabi_float_init+0x54>)
10008316:	2254      	movs	r2, #84	; 0x54
10008318:	0020      	movs	r0, r4
1000831a:	f000 f83d 	bl	10008398 <__wrap___aeabi_memcpy>
1000831e:	4b0b      	ldr	r3, [pc, #44]	; (1000834c <__aeabi_float_init+0x60>)
10008320:	6563      	str	r3, [r4, #84]	; 0x54
10008322:	65a3      	str	r3, [r4, #88]	; 0x58
10008324:	65e3      	str	r3, [r4, #92]	; 0x5c
10008326:	6623      	str	r3, [r4, #96]	; 0x60
10008328:	6663      	str	r3, [r4, #100]	; 0x64
1000832a:	66a3      	str	r3, [r4, #104]	; 0x68
1000832c:	66e3      	str	r3, [r4, #108]	; 0x6c
1000832e:	6723      	str	r3, [r4, #112]	; 0x70
10008330:	6763      	str	r3, [r4, #116]	; 0x74
10008332:	67a3      	str	r3, [r4, #120]	; 0x78
10008334:	67e3      	str	r3, [r4, #124]	; 0x7c
10008336:	6223      	str	r3, [r4, #32]
10008338:	61e3      	str	r3, [r4, #28]
1000833a:	e7e5      	b.n	10008308 <__aeabi_float_init+0x1c>
1000833c:	00004653 	.word	0x00004653
10008340:	20000ad8 	.word	0x20000ad8
10008344:	0000334c 	.word	0x0000334c
10008348:	2000afa0 	.word	0x2000afa0
1000834c:	10008351 	.word	0x10008351

10008350 <float_table_shim_on_use_helper>:
10008350:	b507      	push	{r0, r1, r2, lr}
10008352:	4660      	mov	r0, ip
10008354:	8801      	ldrh	r1, [r0, #0]
10008356:	0a0a      	lsrs	r2, r1, #8
10008358:	3002      	adds	r0, #2
1000835a:	2adf      	cmp	r2, #223	; 0xdf
1000835c:	d1fa      	bne.n	10008354 <float_table_shim_on_use_helper+0x4>
1000835e:	b2c9      	uxtb	r1, r1
10008360:	0882      	lsrs	r2, r0, #2
10008362:	d304      	bcc.n	1000836e <float_table_shim_on_use_helper+0x1e>
10008364:	8802      	ldrh	r2, [r0, #0]
10008366:	8840      	ldrh	r0, [r0, #2]
10008368:	0400      	lsls	r0, r0, #16
1000836a:	4310      	orrs	r0, r2
1000836c:	e000      	b.n	10008370 <float_table_shim_on_use_helper+0x20>
1000836e:	6800      	ldr	r0, [r0, #0]
10008370:	4a01      	ldr	r2, [pc, #4]	; (10008378 <float_table_shim_on_use_helper+0x28>)
10008372:	5050      	str	r0, [r2, r1]
10008374:	9003      	str	r0, [sp, #12]
10008376:	bd07      	pop	{r0, r1, r2, pc}
10008378:	20000ad8 	.word	0x20000ad8

1000837c <__aeabi_mem_init>:
1000837c:	4801      	ldr	r0, [pc, #4]	; (10008384 <__aeabi_mem_init+0x8>)
1000837e:	2104      	movs	r1, #4
10008380:	4b01      	ldr	r3, [pc, #4]	; (10008388 <__aeabi_mem_init+0xc>)
10008382:	4718      	bx	r3
10008384:	20000420 	.word	0x20000420
10008388:	100075d9 	.word	0x100075d9

1000838c <__wrap_memset>:
1000838c:	4b01      	ldr	r3, [pc, #4]	; (10008394 <__wrap_memset+0x8>)
1000838e:	681b      	ldr	r3, [r3, #0]
10008390:	4718      	bx	r3
10008392:	0000      	.short	0x0000
10008394:	20000420 	.word	0x20000420

10008398 <__wrap___aeabi_memcpy>:
10008398:	4b01      	ldr	r3, [pc, #4]	; (100083a0 <__wrap___aeabi_memcpy+0x8>)
1000839a:	685b      	ldr	r3, [r3, #4]
1000839c:	4718      	bx	r3
1000839e:	0000      	.short	0x0000
100083a0:	20000420 	.word	0x20000420

100083a4 <stdio_out_chars_no_crlf>:
100083a4:	0003      	movs	r3, r0
100083a6:	b510      	push	{r4, lr}
100083a8:	0008      	movs	r0, r1
100083aa:	0011      	movs	r1, r2
100083ac:	681b      	ldr	r3, [r3, #0]
100083ae:	4798      	blx	r3
100083b0:	bd10      	pop	{r4, pc}
100083b2:	46c0      	nop			; (mov r8, r8)

100083b4 <stdio_out_chars_crlf>:
100083b4:	b5f0      	push	{r4, r5, r6, r7, lr}
100083b6:	4646      	mov	r6, r8
100083b8:	464f      	mov	r7, r9
100083ba:	46d6      	mov	lr, sl
100083bc:	b5c0      	push	{r6, r7, lr}
100083be:	7c43      	ldrb	r3, [r0, #17]
100083c0:	4680      	mov	r8, r0
100083c2:	000e      	movs	r6, r1
100083c4:	0017      	movs	r7, r2
100083c6:	2b00      	cmp	r3, #0
100083c8:	d046      	beq.n	10008458 <stdio_out_chars_crlf+0xa4>
100083ca:	2a00      	cmp	r2, #0
100083cc:	dd3f      	ble.n	1000844e <stdio_out_chars_crlf+0x9a>
100083ce:	1e4b      	subs	r3, r1, #1
100083d0:	4699      	mov	r9, r3
100083d2:	4b24      	ldr	r3, [pc, #144]	; (10008464 <stdio_out_chars_crlf+0xb0>)
100083d4:	2501      	movs	r5, #1
100083d6:	2400      	movs	r4, #0
100083d8:	2000      	movs	r0, #0
100083da:	469a      	mov	sl, r3
100083dc:	e00d      	b.n	100083fa <stdio_out_chars_crlf+0x46>
100083de:	464b      	mov	r3, r9
100083e0:	5d1b      	ldrb	r3, [r3, r4]
100083e2:	3b0d      	subs	r3, #13
100083e4:	425a      	negs	r2, r3
100083e6:	4153      	adcs	r3, r2
100083e8:	5d32      	ldrb	r2, [r6, r4]
100083ea:	b2db      	uxtb	r3, r3
100083ec:	2a0a      	cmp	r2, #10
100083ee:	d00b      	beq.n	10008408 <stdio_out_chars_crlf+0x54>
100083f0:	002b      	movs	r3, r5
100083f2:	3401      	adds	r4, #1
100083f4:	3501      	adds	r5, #1
100083f6:	429f      	cmp	r7, r3
100083f8:	dd1a      	ble.n	10008430 <stdio_out_chars_crlf+0x7c>
100083fa:	2c00      	cmp	r4, #0
100083fc:	d1ef      	bne.n	100083de <stdio_out_chars_crlf+0x2a>
100083fe:	4643      	mov	r3, r8
10008400:	5d32      	ldrb	r2, [r6, r4]
10008402:	7c1b      	ldrb	r3, [r3, #16]
10008404:	2a0a      	cmp	r2, #10
10008406:	d1f3      	bne.n	100083f0 <stdio_out_chars_crlf+0x3c>
10008408:	2b00      	cmp	r3, #0
1000840a:	d1f1      	bne.n	100083f0 <stdio_out_chars_crlf+0x3c>
1000840c:	42a0      	cmp	r0, r4
1000840e:	da04      	bge.n	1000841a <stdio_out_chars_crlf+0x66>
10008410:	4643      	mov	r3, r8
10008412:	1a21      	subs	r1, r4, r0
10008414:	681b      	ldr	r3, [r3, #0]
10008416:	1830      	adds	r0, r6, r0
10008418:	4798      	blx	r3
1000841a:	4643      	mov	r3, r8
1000841c:	4650      	mov	r0, sl
1000841e:	681b      	ldr	r3, [r3, #0]
10008420:	2102      	movs	r1, #2
10008422:	4798      	blx	r3
10008424:	3401      	adds	r4, #1
10008426:	0028      	movs	r0, r5
10008428:	002b      	movs	r3, r5
1000842a:	3501      	adds	r5, #1
1000842c:	429f      	cmp	r7, r3
1000842e:	dce4      	bgt.n	100083fa <stdio_out_chars_crlf+0x46>
10008430:	4287      	cmp	r7, r0
10008432:	dd04      	ble.n	1000843e <stdio_out_chars_crlf+0x8a>
10008434:	4643      	mov	r3, r8
10008436:	1a39      	subs	r1, r7, r0
10008438:	681b      	ldr	r3, [r3, #0]
1000843a:	1830      	adds	r0, r6, r0
1000843c:	4798      	blx	r3
1000843e:	19f6      	adds	r6, r6, r7
10008440:	3e01      	subs	r6, #1
10008442:	7833      	ldrb	r3, [r6, #0]
10008444:	3b0d      	subs	r3, #13
10008446:	425a      	negs	r2, r3
10008448:	4153      	adcs	r3, r2
1000844a:	4642      	mov	r2, r8
1000844c:	7413      	strb	r3, [r2, #16]
1000844e:	bce0      	pop	{r5, r6, r7}
10008450:	46ba      	mov	sl, r7
10008452:	46b1      	mov	r9, r6
10008454:	46a8      	mov	r8, r5
10008456:	bdf0      	pop	{r4, r5, r6, r7, pc}
10008458:	6803      	ldr	r3, [r0, #0]
1000845a:	0011      	movs	r1, r2
1000845c:	0030      	movs	r0, r6
1000845e:	4798      	blx	r3
10008460:	e7f5      	b.n	1000844e <stdio_out_chars_crlf+0x9a>
10008462:	46c0      	nop			; (mov r8, r8)
10008464:	1000b754 	.word	0x1000b754

10008468 <stdio_buffered_printer>:
10008468:	b5f0      	push	{r4, r5, r6, r7, lr}
1000846a:	46c6      	mov	lr, r8
1000846c:	000c      	movs	r4, r1
1000846e:	6809      	ldr	r1, [r1, #0]
10008470:	0006      	movs	r6, r0
10008472:	b500      	push	{lr}
10008474:	2980      	cmp	r1, #128	; 0x80
10008476:	d006      	beq.n	10008486 <stdio_buffered_printer+0x1e>
10008478:	1c4b      	adds	r3, r1, #1
1000847a:	6023      	str	r3, [r4, #0]
1000847c:	1864      	adds	r4, r4, r1
1000847e:	7126      	strb	r6, [r4, #4]
10008480:	bc80      	pop	{r7}
10008482:	46b8      	mov	r8, r7
10008484:	bdf0      	pop	{r4, r5, r6, r7, pc}
10008486:	4b0f      	ldr	r3, [pc, #60]	; (100084c4 <stdio_buffered_printer+0x5c>)
10008488:	681d      	ldr	r5, [r3, #0]
1000848a:	2d00      	cmp	r5, #0
1000848c:	d016      	beq.n	100084bc <stdio_buffered_printer+0x54>
1000848e:	1d23      	adds	r3, r4, #4
10008490:	4698      	mov	r8, r3
10008492:	4f0d      	ldr	r7, [pc, #52]	; (100084c8 <stdio_buffered_printer+0x60>)
10008494:	e002      	b.n	1000849c <stdio_buffered_printer+0x34>
10008496:	68ed      	ldr	r5, [r5, #12]
10008498:	2d00      	cmp	r5, #0
1000849a:	d00f      	beq.n	100084bc <stdio_buffered_printer+0x54>
1000849c:	682b      	ldr	r3, [r5, #0]
1000849e:	2b00      	cmp	r3, #0
100084a0:	d0f9      	beq.n	10008496 <stdio_buffered_printer+0x2e>
100084a2:	683b      	ldr	r3, [r7, #0]
100084a4:	2b00      	cmp	r3, #0
100084a6:	d001      	beq.n	100084ac <stdio_buffered_printer+0x44>
100084a8:	42ab      	cmp	r3, r5
100084aa:	d1f4      	bne.n	10008496 <stdio_buffered_printer+0x2e>
100084ac:	0028      	movs	r0, r5
100084ae:	4641      	mov	r1, r8
100084b0:	6822      	ldr	r2, [r4, #0]
100084b2:	f7ff ff7f 	bl	100083b4 <stdio_out_chars_crlf>
100084b6:	68ed      	ldr	r5, [r5, #12]
100084b8:	2d00      	cmp	r5, #0
100084ba:	d1ef      	bne.n	1000849c <stdio_buffered_printer+0x34>
100084bc:	2301      	movs	r3, #1
100084be:	2100      	movs	r1, #0
100084c0:	e7db      	b.n	1000847a <stdio_buffered_printer+0x12>
100084c2:	46c0      	nop			; (mov r8, r8)
100084c4:	20005a70 	.word	0x20005a70
100084c8:	20005a74 	.word	0x20005a74

100084cc <stdio_put_string.isra.0>:
100084cc:	b5f0      	push	{r4, r5, r6, r7, lr}
100084ce:	46de      	mov	lr, fp
100084d0:	4657      	mov	r7, sl
100084d2:	464e      	mov	r6, r9
100084d4:	4645      	mov	r5, r8
100084d6:	b5e0      	push	{r5, r6, r7, lr}
100084d8:	b083      	sub	sp, #12
100084da:	000d      	movs	r5, r1
100084dc:	4691      	mov	r9, r2
100084de:	001c      	movs	r4, r3
100084e0:	0006      	movs	r6, r0
100084e2:	f7fa ff6b 	bl	100033bc <ulPortLockGetCurrentOwnerId>
100084e6:	4b32      	ldr	r3, [pc, #200]	; (100085b0 <stdio_put_string.isra.0+0xe4>)
100084e8:	0007      	movs	r7, r0
100084ea:	a901      	add	r1, sp, #4
100084ec:	0018      	movs	r0, r3
100084ee:	469a      	mov	sl, r3
100084f0:	f002 feaa 	bl	1000b248 <__mutex_try_enter_veneer>
100084f4:	4680      	mov	r8, r0
100084f6:	2800      	cmp	r0, #0
100084f8:	d107      	bne.n	1000850a <stdio_put_string.isra.0+0x3e>
100084fa:	9b01      	ldr	r3, [sp, #4]
100084fc:	429f      	cmp	r7, r3
100084fe:	d004      	beq.n	1000850a <stdio_put_string.isra.0+0x3e>
10008500:	4650      	mov	r0, sl
10008502:	f002 feb1 	bl	1000b268 <__mutex_enter_blocking_veneer>
10008506:	2301      	movs	r3, #1
10008508:	4698      	mov	r8, r3
1000850a:	1c6b      	adds	r3, r5, #1
1000850c:	d103      	bne.n	10008516 <stdio_put_string.isra.0+0x4a>
1000850e:	0030      	movs	r0, r6
10008510:	f002 fe48 	bl	1000b1a4 <strlen>
10008514:	0005      	movs	r5, r0
10008516:	2c00      	cmp	r4, #0
10008518:	d127      	bne.n	1000856a <stdio_put_string.isra.0+0x9e>
1000851a:	4f26      	ldr	r7, [pc, #152]	; (100085b4 <stdio_put_string.isra.0+0xe8>)
1000851c:	4b26      	ldr	r3, [pc, #152]	; (100085b8 <stdio_put_string.isra.0+0xec>)
1000851e:	681c      	ldr	r4, [r3, #0]
10008520:	2c00      	cmp	r4, #0
10008522:	d018      	beq.n	10008556 <stdio_put_string.isra.0+0x8a>
10008524:	464b      	mov	r3, r9
10008526:	2b00      	cmp	r3, #0
10008528:	d121      	bne.n	1000856e <stdio_put_string.isra.0+0xa2>
1000852a:	4b24      	ldr	r3, [pc, #144]	; (100085bc <stdio_put_string.isra.0+0xf0>)
1000852c:	4699      	mov	r9, r3
1000852e:	e002      	b.n	10008536 <stdio_put_string.isra.0+0x6a>
10008530:	68e4      	ldr	r4, [r4, #12]
10008532:	2c00      	cmp	r4, #0
10008534:	d00f      	beq.n	10008556 <stdio_put_string.isra.0+0x8a>
10008536:	6823      	ldr	r3, [r4, #0]
10008538:	2b00      	cmp	r3, #0
1000853a:	d0f9      	beq.n	10008530 <stdio_put_string.isra.0+0x64>
1000853c:	464b      	mov	r3, r9
1000853e:	681b      	ldr	r3, [r3, #0]
10008540:	2b00      	cmp	r3, #0
10008542:	d001      	beq.n	10008548 <stdio_put_string.isra.0+0x7c>
10008544:	42a3      	cmp	r3, r4
10008546:	d1f3      	bne.n	10008530 <stdio_put_string.isra.0+0x64>
10008548:	0020      	movs	r0, r4
1000854a:	002a      	movs	r2, r5
1000854c:	0031      	movs	r1, r6
1000854e:	47b8      	blx	r7
10008550:	68e4      	ldr	r4, [r4, #12]
10008552:	2c00      	cmp	r4, #0
10008554:	d1ef      	bne.n	10008536 <stdio_put_string.isra.0+0x6a>
10008556:	4643      	mov	r3, r8
10008558:	2b00      	cmp	r3, #0
1000855a:	d125      	bne.n	100085a8 <stdio_put_string.isra.0+0xdc>
1000855c:	b003      	add	sp, #12
1000855e:	bcf0      	pop	{r4, r5, r6, r7}
10008560:	46bb      	mov	fp, r7
10008562:	46b2      	mov	sl, r6
10008564:	46a9      	mov	r9, r5
10008566:	46a0      	mov	r8, r4
10008568:	bdf0      	pop	{r4, r5, r6, r7, pc}
1000856a:	4f15      	ldr	r7, [pc, #84]	; (100085c0 <stdio_put_string.isra.0+0xf4>)
1000856c:	e7d6      	b.n	1000851c <stdio_put_string.isra.0+0x50>
1000856e:	4b13      	ldr	r3, [pc, #76]	; (100085bc <stdio_put_string.isra.0+0xf0>)
10008570:	4699      	mov	r9, r3
10008572:	230a      	movs	r3, #10
10008574:	469b      	mov	fp, r3
10008576:	e002      	b.n	1000857e <stdio_put_string.isra.0+0xb2>
10008578:	68e4      	ldr	r4, [r4, #12]
1000857a:	2c00      	cmp	r4, #0
1000857c:	d0eb      	beq.n	10008556 <stdio_put_string.isra.0+0x8a>
1000857e:	6823      	ldr	r3, [r4, #0]
10008580:	2b00      	cmp	r3, #0
10008582:	d0f9      	beq.n	10008578 <stdio_put_string.isra.0+0xac>
10008584:	464b      	mov	r3, r9
10008586:	681b      	ldr	r3, [r3, #0]
10008588:	2b00      	cmp	r3, #0
1000858a:	d001      	beq.n	10008590 <stdio_put_string.isra.0+0xc4>
1000858c:	42a3      	cmp	r3, r4
1000858e:	d1f3      	bne.n	10008578 <stdio_put_string.isra.0+0xac>
10008590:	002a      	movs	r2, r5
10008592:	0031      	movs	r1, r6
10008594:	0020      	movs	r0, r4
10008596:	47b8      	blx	r7
10008598:	465a      	mov	r2, fp
1000859a:	466b      	mov	r3, sp
1000859c:	0020      	movs	r0, r4
1000859e:	711a      	strb	r2, [r3, #4]
100085a0:	a901      	add	r1, sp, #4
100085a2:	2201      	movs	r2, #1
100085a4:	47b8      	blx	r7
100085a6:	e7e7      	b.n	10008578 <stdio_put_string.isra.0+0xac>
100085a8:	4650      	mov	r0, sl
100085aa:	f002 fe35 	bl	1000b218 <__mutex_exit_veneer>
100085ae:	e7d5      	b.n	1000855c <stdio_put_string.isra.0+0x90>
100085b0:	200008a8 	.word	0x200008a8
100085b4:	100083b5 	.word	0x100083b5
100085b8:	20005a70 	.word	0x20005a70
100085bc:	20005a74 	.word	0x20005a74
100085c0:	100083a5 	.word	0x100083a5

100085c4 <__wrap_putchar>:
100085c4:	b5f0      	push	{r4, r5, r6, r7, lr}
100085c6:	46ce      	mov	lr, r9
100085c8:	4647      	mov	r7, r8
100085ca:	b580      	push	{r7, lr}
100085cc:	b083      	sub	sp, #12
100085ce:	466b      	mov	r3, sp
100085d0:	4680      	mov	r8, r0
100085d2:	1cde      	adds	r6, r3, #3
100085d4:	7030      	strb	r0, [r6, #0]
100085d6:	f7fa fef1 	bl	100033bc <ulPortLockGetCurrentOwnerId>
100085da:	4b1f      	ldr	r3, [pc, #124]	; (10008658 <__wrap_putchar+0x94>)
100085dc:	0004      	movs	r4, r0
100085de:	a901      	add	r1, sp, #4
100085e0:	0018      	movs	r0, r3
100085e2:	4699      	mov	r9, r3
100085e4:	f002 fe30 	bl	1000b248 <__mutex_try_enter_veneer>
100085e8:	1e07      	subs	r7, r0, #0
100085ea:	d020      	beq.n	1000862e <__wrap_putchar+0x6a>
100085ec:	4b1b      	ldr	r3, [pc, #108]	; (1000865c <__wrap_putchar+0x98>)
100085ee:	681c      	ldr	r4, [r3, #0]
100085f0:	2c00      	cmp	r4, #0
100085f2:	d027      	beq.n	10008644 <__wrap_putchar+0x80>
100085f4:	4d1a      	ldr	r5, [pc, #104]	; (10008660 <__wrap_putchar+0x9c>)
100085f6:	e002      	b.n	100085fe <__wrap_putchar+0x3a>
100085f8:	68e4      	ldr	r4, [r4, #12]
100085fa:	2c00      	cmp	r4, #0
100085fc:	d00f      	beq.n	1000861e <__wrap_putchar+0x5a>
100085fe:	6823      	ldr	r3, [r4, #0]
10008600:	2b00      	cmp	r3, #0
10008602:	d0f9      	beq.n	100085f8 <__wrap_putchar+0x34>
10008604:	682b      	ldr	r3, [r5, #0]
10008606:	2b00      	cmp	r3, #0
10008608:	d001      	beq.n	1000860e <__wrap_putchar+0x4a>
1000860a:	42a3      	cmp	r3, r4
1000860c:	d1f4      	bne.n	100085f8 <__wrap_putchar+0x34>
1000860e:	0020      	movs	r0, r4
10008610:	2201      	movs	r2, #1
10008612:	0031      	movs	r1, r6
10008614:	f7ff fece 	bl	100083b4 <stdio_out_chars_crlf>
10008618:	68e4      	ldr	r4, [r4, #12]
1000861a:	2c00      	cmp	r4, #0
1000861c:	d1ef      	bne.n	100085fe <__wrap_putchar+0x3a>
1000861e:	2f00      	cmp	r7, #0
10008620:	d110      	bne.n	10008644 <__wrap_putchar+0x80>
10008622:	4640      	mov	r0, r8
10008624:	b003      	add	sp, #12
10008626:	bcc0      	pop	{r6, r7}
10008628:	46b9      	mov	r9, r7
1000862a:	46b0      	mov	r8, r6
1000862c:	bdf0      	pop	{r4, r5, r6, r7, pc}
1000862e:	9b01      	ldr	r3, [sp, #4]
10008630:	429c      	cmp	r4, r3
10008632:	d00b      	beq.n	1000864c <__wrap_putchar+0x88>
10008634:	4648      	mov	r0, r9
10008636:	f002 fe17 	bl	1000b268 <__mutex_enter_blocking_veneer>
1000863a:	4b08      	ldr	r3, [pc, #32]	; (1000865c <__wrap_putchar+0x98>)
1000863c:	2701      	movs	r7, #1
1000863e:	681c      	ldr	r4, [r3, #0]
10008640:	2c00      	cmp	r4, #0
10008642:	d1d7      	bne.n	100085f4 <__wrap_putchar+0x30>
10008644:	4648      	mov	r0, r9
10008646:	f002 fde7 	bl	1000b218 <__mutex_exit_veneer>
1000864a:	e7ea      	b.n	10008622 <__wrap_putchar+0x5e>
1000864c:	4b03      	ldr	r3, [pc, #12]	; (1000865c <__wrap_putchar+0x98>)
1000864e:	681c      	ldr	r4, [r3, #0]
10008650:	2c00      	cmp	r4, #0
10008652:	d1cf      	bne.n	100085f4 <__wrap_putchar+0x30>
10008654:	e7e5      	b.n	10008622 <__wrap_putchar+0x5e>
10008656:	46c0      	nop			; (mov r8, r8)
10008658:	200008a8 	.word	0x200008a8
1000865c:	20005a70 	.word	0x20005a70
10008660:	20005a74 	.word	0x20005a74

10008664 <__wrap_puts>:
10008664:	b570      	push	{r4, r5, r6, lr}
10008666:	0004      	movs	r4, r0
10008668:	f002 fd9c 	bl	1000b1a4 <strlen>
1000866c:	2300      	movs	r3, #0
1000866e:	0001      	movs	r1, r0
10008670:	0005      	movs	r5, r0
10008672:	2201      	movs	r2, #1
10008674:	0020      	movs	r0, r4
10008676:	f7ff ff29 	bl	100084cc <stdio_put_string.isra.0>
1000867a:	4b08      	ldr	r3, [pc, #32]	; (1000869c <__wrap_puts+0x38>)
1000867c:	681c      	ldr	r4, [r3, #0]
1000867e:	2c00      	cmp	r4, #0
10008680:	d006      	beq.n	10008690 <__wrap_puts+0x2c>
10008682:	6863      	ldr	r3, [r4, #4]
10008684:	2b00      	cmp	r3, #0
10008686:	d005      	beq.n	10008694 <__wrap_puts+0x30>
10008688:	4798      	blx	r3
1000868a:	68e4      	ldr	r4, [r4, #12]
1000868c:	2c00      	cmp	r4, #0
1000868e:	d1f8      	bne.n	10008682 <__wrap_puts+0x1e>
10008690:	0028      	movs	r0, r5
10008692:	bd70      	pop	{r4, r5, r6, pc}
10008694:	68e4      	ldr	r4, [r4, #12]
10008696:	2c00      	cmp	r4, #0
10008698:	d1f3      	bne.n	10008682 <__wrap_puts+0x1e>
1000869a:	e7f9      	b.n	10008690 <__wrap_puts+0x2c>
1000869c:	20005a70 	.word	0x20005a70

100086a0 <stdio_set_driver_enabled>:
100086a0:	4a0a      	ldr	r2, [pc, #40]	; (100086cc <stdio_set_driver_enabled+0x2c>)
100086a2:	6813      	ldr	r3, [r2, #0]
100086a4:	2b00      	cmp	r3, #0
100086a6:	d105      	bne.n	100086b4 <stdio_set_driver_enabled+0x14>
100086a8:	e00c      	b.n	100086c4 <stdio_set_driver_enabled+0x24>
100086aa:	001a      	movs	r2, r3
100086ac:	68db      	ldr	r3, [r3, #12]
100086ae:	320c      	adds	r2, #12
100086b0:	2b00      	cmp	r3, #0
100086b2:	d007      	beq.n	100086c4 <stdio_set_driver_enabled+0x24>
100086b4:	4298      	cmp	r0, r3
100086b6:	d1f8      	bne.n	100086aa <stdio_set_driver_enabled+0xa>
100086b8:	2900      	cmp	r1, #0
100086ba:	d102      	bne.n	100086c2 <stdio_set_driver_enabled+0x22>
100086bc:	68c3      	ldr	r3, [r0, #12]
100086be:	6013      	str	r3, [r2, #0]
100086c0:	60c1      	str	r1, [r0, #12]
100086c2:	4770      	bx	lr
100086c4:	2900      	cmp	r1, #0
100086c6:	d0fc      	beq.n	100086c2 <stdio_set_driver_enabled+0x22>
100086c8:	6010      	str	r0, [r2, #0]
100086ca:	e7fa      	b.n	100086c2 <stdio_set_driver_enabled+0x22>
100086cc:	20005a70 	.word	0x20005a70

100086d0 <__wrap_vprintf>:
100086d0:	b5f0      	push	{r4, r5, r6, r7, lr}
100086d2:	46ce      	mov	lr, r9
100086d4:	4647      	mov	r7, r8
100086d6:	b580      	push	{r7, lr}
100086d8:	b0a5      	sub	sp, #148	; 0x94
100086da:	000d      	movs	r5, r1
100086dc:	0004      	movs	r4, r0
100086de:	f7fa fe6d 	bl	100033bc <ulPortLockGetCurrentOwnerId>
100086e2:	4b2d      	ldr	r3, [pc, #180]	; (10008798 <__wrap_vprintf+0xc8>)
100086e4:	0007      	movs	r7, r0
100086e6:	a903      	add	r1, sp, #12
100086e8:	0018      	movs	r0, r3
100086ea:	4698      	mov	r8, r3
100086ec:	f002 fdac 	bl	1000b248 <__mutex_try_enter_veneer>
100086f0:	1e06      	subs	r6, r0, #0
100086f2:	d106      	bne.n	10008702 <__wrap_vprintf+0x32>
100086f4:	9b03      	ldr	r3, [sp, #12]
100086f6:	429f      	cmp	r7, r3
100086f8:	d003      	beq.n	10008702 <__wrap_vprintf+0x32>
100086fa:	4640      	mov	r0, r8
100086fc:	f002 fdb4 	bl	1000b268 <__mutex_enter_blocking_veneer>
10008700:	3601      	adds	r6, #1
10008702:	2284      	movs	r2, #132	; 0x84
10008704:	2100      	movs	r1, #0
10008706:	a803      	add	r0, sp, #12
10008708:	f7ff fe40 	bl	1000838c <__wrap_memset>
1000870c:	002b      	movs	r3, r5
1000870e:	0022      	movs	r2, r4
10008710:	4822      	ldr	r0, [pc, #136]	; (1000879c <__wrap_vprintf+0xcc>)
10008712:	a903      	add	r1, sp, #12
10008714:	f7fe ff20 	bl	10007558 <vfctprintf>
10008718:	9b03      	ldr	r3, [sp, #12]
1000871a:	0007      	movs	r7, r0
1000871c:	2b00      	cmp	r3, #0
1000871e:	d114      	bne.n	1000874a <__wrap_vprintf+0x7a>
10008720:	4b1f      	ldr	r3, [pc, #124]	; (100087a0 <__wrap_vprintf+0xd0>)
10008722:	681c      	ldr	r4, [r3, #0]
10008724:	2c00      	cmp	r4, #0
10008726:	d006      	beq.n	10008736 <__wrap_vprintf+0x66>
10008728:	6863      	ldr	r3, [r4, #4]
1000872a:	2b00      	cmp	r3, #0
1000872c:	d00b      	beq.n	10008746 <__wrap_vprintf+0x76>
1000872e:	4798      	blx	r3
10008730:	68e4      	ldr	r4, [r4, #12]
10008732:	2c00      	cmp	r4, #0
10008734:	d1f8      	bne.n	10008728 <__wrap_vprintf+0x58>
10008736:	2e00      	cmp	r6, #0
10008738:	d127      	bne.n	1000878a <__wrap_vprintf+0xba>
1000873a:	0038      	movs	r0, r7
1000873c:	b025      	add	sp, #148	; 0x94
1000873e:	bcc0      	pop	{r6, r7}
10008740:	46b9      	mov	r9, r7
10008742:	46b0      	mov	r8, r6
10008744:	bdf0      	pop	{r4, r5, r6, r7, pc}
10008746:	68e4      	ldr	r4, [r4, #12]
10008748:	e7ec      	b.n	10008724 <__wrap_vprintf+0x54>
1000874a:	4b15      	ldr	r3, [pc, #84]	; (100087a0 <__wrap_vprintf+0xd0>)
1000874c:	681d      	ldr	r5, [r3, #0]
1000874e:	4699      	mov	r9, r3
10008750:	2d00      	cmp	r5, #0
10008752:	d01e      	beq.n	10008792 <__wrap_vprintf+0xc2>
10008754:	4c13      	ldr	r4, [pc, #76]	; (100087a4 <__wrap_vprintf+0xd4>)
10008756:	e002      	b.n	1000875e <__wrap_vprintf+0x8e>
10008758:	68ed      	ldr	r5, [r5, #12]
1000875a:	2d00      	cmp	r5, #0
1000875c:	d011      	beq.n	10008782 <__wrap_vprintf+0xb2>
1000875e:	682b      	ldr	r3, [r5, #0]
10008760:	2b00      	cmp	r3, #0
10008762:	d0f9      	beq.n	10008758 <__wrap_vprintf+0x88>
10008764:	6823      	ldr	r3, [r4, #0]
10008766:	2b00      	cmp	r3, #0
10008768:	d001      	beq.n	1000876e <__wrap_vprintf+0x9e>
1000876a:	42ab      	cmp	r3, r5
1000876c:	d1f4      	bne.n	10008758 <__wrap_vprintf+0x88>
1000876e:	9b03      	ldr	r3, [sp, #12]
10008770:	0028      	movs	r0, r5
10008772:	001a      	movs	r2, r3
10008774:	a904      	add	r1, sp, #16
10008776:	9301      	str	r3, [sp, #4]
10008778:	f7ff fe1c 	bl	100083b4 <stdio_out_chars_crlf>
1000877c:	68ed      	ldr	r5, [r5, #12]
1000877e:	2d00      	cmp	r5, #0
10008780:	d1ed      	bne.n	1000875e <__wrap_vprintf+0x8e>
10008782:	464b      	mov	r3, r9
10008784:	9503      	str	r5, [sp, #12]
10008786:	681c      	ldr	r4, [r3, #0]
10008788:	e7cc      	b.n	10008724 <__wrap_vprintf+0x54>
1000878a:	4640      	mov	r0, r8
1000878c:	f002 fd44 	bl	1000b218 <__mutex_exit_veneer>
10008790:	e7d3      	b.n	1000873a <__wrap_vprintf+0x6a>
10008792:	9503      	str	r5, [sp, #12]
10008794:	e7cf      	b.n	10008736 <__wrap_vprintf+0x66>
10008796:	46c0      	nop			; (mov r8, r8)
10008798:	200008a8 	.word	0x200008a8
1000879c:	10008469 	.word	0x10008469
100087a0:	20005a70 	.word	0x20005a70
100087a4:	20005a74 	.word	0x20005a74

100087a8 <__wrap_printf>:
100087a8:	b40f      	push	{r0, r1, r2, r3}
100087aa:	b500      	push	{lr}
100087ac:	b083      	sub	sp, #12
100087ae:	a904      	add	r1, sp, #16
100087b0:	c901      	ldmia	r1!, {r0}
100087b2:	9101      	str	r1, [sp, #4]
100087b4:	f7ff ff8c 	bl	100086d0 <__wrap_vprintf>
100087b8:	b003      	add	sp, #12
100087ba:	bc08      	pop	{r3}
100087bc:	b004      	add	sp, #16
100087be:	4718      	bx	r3

100087c0 <stdio_init_all>:
100087c0:	b510      	push	{r4, lr}
100087c2:	f000 f93d 	bl	10008a40 <stdio_usb_init>
100087c6:	bd10      	pop	{r4, pc}

100087c8 <resetd_init>:
100087c8:	4770      	bx	lr
100087ca:	46c0      	nop			; (mov r8, r8)

100087cc <resetd_reset>:
100087cc:	2200      	movs	r2, #0
100087ce:	4b01      	ldr	r3, [pc, #4]	; (100087d4 <resetd_reset+0x8>)
100087d0:	701a      	strb	r2, [r3, #0]
100087d2:	4770      	bx	lr
100087d4:	20012dbe 	.word	0x20012dbe

100087d8 <resetd_open>:
100087d8:	794b      	ldrb	r3, [r1, #5]
100087da:	2000      	movs	r0, #0
100087dc:	2bff      	cmp	r3, #255	; 0xff
100087de:	d10b      	bne.n	100087f8 <resetd_open+0x20>
100087e0:	798b      	ldrb	r3, [r1, #6]
100087e2:	2b00      	cmp	r3, #0
100087e4:	d108      	bne.n	100087f8 <resetd_open+0x20>
100087e6:	79cb      	ldrb	r3, [r1, #7]
100087e8:	2b01      	cmp	r3, #1
100087ea:	d105      	bne.n	100087f8 <resetd_open+0x20>
100087ec:	2a08      	cmp	r2, #8
100087ee:	d903      	bls.n	100087f8 <resetd_open+0x20>
100087f0:	788a      	ldrb	r2, [r1, #2]
100087f2:	4b02      	ldr	r3, [pc, #8]	; (100087fc <resetd_open+0x24>)
100087f4:	3009      	adds	r0, #9
100087f6:	701a      	strb	r2, [r3, #0]
100087f8:	4770      	bx	lr
100087fa:	46c0      	nop			; (mov r8, r8)
100087fc:	20012dbe 	.word	0x20012dbe

10008800 <resetd_xfer_cb>:
10008800:	2001      	movs	r0, #1
10008802:	4770      	bx	lr

10008804 <resetd_control_xfer_cb>:
10008804:	b570      	push	{r4, r5, r6, lr}
10008806:	2900      	cmp	r1, #0
10008808:	d115      	bne.n	10008836 <resetd_control_xfer_cb+0x32>
1000880a:	4915      	ldr	r1, [pc, #84]	; (10008860 <resetd_control_xfer_cb+0x5c>)
1000880c:	7953      	ldrb	r3, [r2, #5]
1000880e:	7910      	ldrb	r0, [r2, #4]
10008810:	7809      	ldrb	r1, [r1, #0]
10008812:	021b      	lsls	r3, r3, #8
10008814:	4303      	orrs	r3, r0
10008816:	2000      	movs	r0, #0
10008818:	4299      	cmp	r1, r3
1000881a:	d000      	beq.n	1000881e <resetd_control_xfer_cb+0x1a>
1000881c:	bd70      	pop	{r4, r5, r6, pc}
1000881e:	7853      	ldrb	r3, [r2, #1]
10008820:	2b01      	cmp	r3, #1
10008822:	d00a      	beq.n	1000883a <resetd_control_xfer_cb+0x36>
10008824:	2b02      	cmp	r3, #2
10008826:	d1f9      	bne.n	1000881c <resetd_control_xfer_cb+0x18>
10008828:	2000      	movs	r0, #0
1000882a:	2264      	movs	r2, #100	; 0x64
1000882c:	2100      	movs	r1, #0
1000882e:	f7fd fb79 	bl	10005f24 <watchdog_reboot>
10008832:	2001      	movs	r0, #1
10008834:	e7f2      	b.n	1000881c <resetd_control_xfer_cb+0x18>
10008836:	2001      	movs	r0, #1
10008838:	e7f0      	b.n	1000881c <resetd_control_xfer_cb+0x18>
1000883a:	7894      	ldrb	r4, [r2, #2]
1000883c:	78d2      	ldrb	r2, [r2, #3]
1000883e:	0005      	movs	r5, r0
10008840:	0212      	lsls	r2, r2, #8
10008842:	4314      	orrs	r4, r2
10008844:	05d2      	lsls	r2, r2, #23
10008846:	d502      	bpl.n	1000884e <resetd_control_xfer_cb+0x4a>
10008848:	0a62      	lsrs	r2, r4, #9
1000884a:	4093      	lsls	r3, r2
1000884c:	001d      	movs	r5, r3
1000884e:	4805      	ldr	r0, [pc, #20]	; (10008864 <resetd_control_xfer_cb+0x60>)
10008850:	f7fe feb2 	bl	100075b8 <rom_func_lookup>
10008854:	217f      	movs	r1, #127	; 0x7f
10008856:	0003      	movs	r3, r0
10008858:	4021      	ands	r1, r4
1000885a:	0028      	movs	r0, r5
1000885c:	4798      	blx	r3
1000885e:	46c0      	nop			; (mov r8, r8)
10008860:	20012dbe 	.word	0x20012dbe
10008864:	00004255 	.word	0x00004255

10008868 <usbd_app_driver_get_cb>:
10008868:	2301      	movs	r3, #1
1000886a:	7003      	strb	r3, [r0, #0]
1000886c:	4800      	ldr	r0, [pc, #0]	; (10008870 <usbd_app_driver_get_cb+0x8>)
1000886e:	4770      	bx	lr
10008870:	1000b758 	.word	0x1000b758

10008874 <tud_cdc_line_coding_cb>:
10008874:	7848      	ldrb	r0, [r1, #1]
10008876:	780b      	ldrb	r3, [r1, #0]
10008878:	788a      	ldrb	r2, [r1, #2]
1000887a:	0200      	lsls	r0, r0, #8
1000887c:	4318      	orrs	r0, r3
1000887e:	0412      	lsls	r2, r2, #16
10008880:	4310      	orrs	r0, r2
10008882:	2296      	movs	r2, #150	; 0x96
10008884:	78cb      	ldrb	r3, [r1, #3]
10008886:	b510      	push	{r4, lr}
10008888:	061b      	lsls	r3, r3, #24
1000888a:	4303      	orrs	r3, r0
1000888c:	00d2      	lsls	r2, r2, #3
1000888e:	4293      	cmp	r3, r2
10008890:	d000      	beq.n	10008894 <tud_cdc_line_coding_cb+0x20>
10008892:	bd10      	pop	{r4, pc}
10008894:	4803      	ldr	r0, [pc, #12]	; (100088a4 <tud_cdc_line_coding_cb+0x30>)
10008896:	f7fe fe8f 	bl	100075b8 <rom_func_lookup>
1000889a:	2100      	movs	r1, #0
1000889c:	0003      	movs	r3, r0
1000889e:	0008      	movs	r0, r1
100088a0:	4798      	blx	r3
100088a2:	46c0      	nop			; (mov r8, r8)
100088a4:	00004255 	.word	0x00004255

100088a8 <stdio_usb_in_chars>:
100088a8:	b570      	push	{r4, r5, r6, lr}
100088aa:	4c18      	ldr	r4, [pc, #96]	; (1000890c <stdio_usb_in_chars+0x64>)
100088ac:	b082      	sub	sp, #8
100088ae:	0006      	movs	r6, r0
100088b0:	000d      	movs	r5, r1
100088b2:	0020      	movs	r0, r4
100088b4:	a901      	add	r1, sp, #4
100088b6:	f002 fcc7 	bl	1000b248 <__mutex_try_enter_veneer>
100088ba:	2800      	cmp	r0, #0
100088bc:	d108      	bne.n	100088d0 <stdio_usb_in_chars+0x28>
100088be:	23d0      	movs	r3, #208	; 0xd0
100088c0:	061b      	lsls	r3, r3, #24
100088c2:	681b      	ldr	r3, [r3, #0]
100088c4:	9a01      	ldr	r2, [sp, #4]
100088c6:	429a      	cmp	r2, r3
100088c8:	d01c      	beq.n	10008904 <stdio_usb_in_chars+0x5c>
100088ca:	0020      	movs	r0, r4
100088cc:	f002 fccc 	bl	1000b268 <__mutex_enter_blocking_veneer>
100088d0:	2000      	movs	r0, #0
100088d2:	f001 fe1f 	bl	1000a514 <tud_cdc_n_connected>
100088d6:	2800      	cmp	r0, #0
100088d8:	d107      	bne.n	100088ea <stdio_usb_in_chars+0x42>
100088da:	2503      	movs	r5, #3
100088dc:	426d      	negs	r5, r5
100088de:	0020      	movs	r0, r4
100088e0:	f002 fc9a 	bl	1000b218 <__mutex_exit_veneer>
100088e4:	0028      	movs	r0, r5
100088e6:	b002      	add	sp, #8
100088e8:	bd70      	pop	{r4, r5, r6, pc}
100088ea:	2000      	movs	r0, #0
100088ec:	f001 fe2a 	bl	1000a544 <tud_cdc_n_available>
100088f0:	2800      	cmp	r0, #0
100088f2:	d0f2      	beq.n	100088da <stdio_usb_in_chars+0x32>
100088f4:	002a      	movs	r2, r5
100088f6:	0031      	movs	r1, r6
100088f8:	2000      	movs	r0, #0
100088fa:	f001 fe2f 	bl	1000a55c <tud_cdc_n_read>
100088fe:	1e05      	subs	r5, r0, #0
10008900:	d0eb      	beq.n	100088da <stdio_usb_in_chars+0x32>
10008902:	e7ec      	b.n	100088de <stdio_usb_in_chars+0x36>
10008904:	2503      	movs	r5, #3
10008906:	426d      	negs	r5, r5
10008908:	e7ec      	b.n	100088e4 <stdio_usb_in_chars+0x3c>
1000890a:	46c0      	nop			; (mov r8, r8)
1000890c:	2000afa8 	.word	0x2000afa8

10008910 <stdio_usb_out_chars>:
10008910:	b5f0      	push	{r4, r5, r6, r7, lr}
10008912:	46de      	mov	lr, fp
10008914:	464f      	mov	r7, r9
10008916:	4646      	mov	r6, r8
10008918:	b5c0      	push	{r6, r7, lr}
1000891a:	4b33      	ldr	r3, [pc, #204]	; (100089e8 <stdio_usb_out_chars+0xd8>)
1000891c:	b082      	sub	sp, #8
1000891e:	4681      	mov	r9, r0
10008920:	000d      	movs	r5, r1
10008922:	0018      	movs	r0, r3
10008924:	a901      	add	r1, sp, #4
10008926:	469b      	mov	fp, r3
10008928:	f002 fc8e 	bl	1000b248 <__mutex_try_enter_veneer>
1000892c:	2800      	cmp	r0, #0
1000892e:	d108      	bne.n	10008942 <stdio_usb_out_chars+0x32>
10008930:	23d0      	movs	r3, #208	; 0xd0
10008932:	061b      	lsls	r3, r3, #24
10008934:	681b      	ldr	r3, [r3, #0]
10008936:	9a01      	ldr	r2, [sp, #4]
10008938:	429a      	cmp	r2, r3
1000893a:	d04f      	beq.n	100089dc <stdio_usb_out_chars+0xcc>
1000893c:	4658      	mov	r0, fp
1000893e:	f002 fc93 	bl	1000b268 <__mutex_enter_blocking_veneer>
10008942:	2000      	movs	r0, #0
10008944:	f001 fde6 	bl	1000a514 <tud_cdc_n_connected>
10008948:	2800      	cmp	r0, #0
1000894a:	d03f      	beq.n	100089cc <stdio_usb_out_chars+0xbc>
1000894c:	2400      	movs	r4, #0
1000894e:	2d00      	cmp	r5, #0
10008950:	dd41      	ble.n	100089d6 <stdio_usb_out_chars+0xc6>
10008952:	4e26      	ldr	r6, [pc, #152]	; (100089ec <stdio_usb_out_chars+0xdc>)
10008954:	e011      	b.n	1000897a <stdio_usb_out_chars+0x6a>
10008956:	464b      	mov	r3, r9
10008958:	2000      	movs	r0, #0
1000895a:	1919      	adds	r1, r3, r4
1000895c:	f001 fe72 	bl	1000a644 <tud_cdc_n_write>
10008960:	4680      	mov	r8, r0
10008962:	f000 fe65 	bl	10009630 <tud_task>
10008966:	2000      	movs	r0, #0
10008968:	f001 fe30 	bl	1000a5cc <tud_cdc_n_write_flush>
1000896c:	f7fa f8c8 	bl	10002b00 <time_us_64>
10008970:	6030      	str	r0, [r6, #0]
10008972:	6071      	str	r1, [r6, #4]
10008974:	4444      	add	r4, r8
10008976:	42ac      	cmp	r4, r5
10008978:	da2d      	bge.n	100089d6 <stdio_usb_out_chars+0xc6>
1000897a:	2000      	movs	r0, #0
1000897c:	f001 fe7c 	bl	1000a678 <tud_cdc_n_write_available>
10008980:	1b2f      	subs	r7, r5, r4
10008982:	0002      	movs	r2, r0
10008984:	42b8      	cmp	r0, r7
10008986:	dd00      	ble.n	1000898a <stdio_usb_out_chars+0x7a>
10008988:	003a      	movs	r2, r7
1000898a:	2a00      	cmp	r2, #0
1000898c:	d1e3      	bne.n	10008956 <stdio_usb_out_chars+0x46>
1000898e:	f000 fe4f 	bl	10009630 <tud_task>
10008992:	2000      	movs	r0, #0
10008994:	f001 fe1a 	bl	1000a5cc <tud_cdc_n_write_flush>
10008998:	2000      	movs	r0, #0
1000899a:	f001 fdbb 	bl	1000a514 <tud_cdc_n_connected>
1000899e:	2800      	cmp	r0, #0
100089a0:	d019      	beq.n	100089d6 <stdio_usb_out_chars+0xc6>
100089a2:	2000      	movs	r0, #0
100089a4:	f001 fe68 	bl	1000a678 <tud_cdc_n_write_available>
100089a8:	2800      	cmp	r0, #0
100089aa:	d1e4      	bne.n	10008976 <stdio_usb_out_chars+0x66>
100089ac:	f7fa f8a8 	bl	10002b00 <time_us_64>
100089b0:	6832      	ldr	r2, [r6, #0]
100089b2:	6873      	ldr	r3, [r6, #4]
100089b4:	000f      	movs	r7, r1
100089b6:	2100      	movs	r1, #0
100089b8:	4684      	mov	ip, r0
100089ba:	480d      	ldr	r0, [pc, #52]	; (100089f0 <stdio_usb_out_chars+0xe0>)
100089bc:	1812      	adds	r2, r2, r0
100089be:	414b      	adcs	r3, r1
100089c0:	429f      	cmp	r7, r3
100089c2:	d808      	bhi.n	100089d6 <stdio_usb_out_chars+0xc6>
100089c4:	d1d7      	bne.n	10008976 <stdio_usb_out_chars+0x66>
100089c6:	4594      	cmp	ip, r2
100089c8:	d9d5      	bls.n	10008976 <stdio_usb_out_chars+0x66>
100089ca:	e004      	b.n	100089d6 <stdio_usb_out_chars+0xc6>
100089cc:	2000      	movs	r0, #0
100089ce:	2100      	movs	r1, #0
100089d0:	4b06      	ldr	r3, [pc, #24]	; (100089ec <stdio_usb_out_chars+0xdc>)
100089d2:	6018      	str	r0, [r3, #0]
100089d4:	6059      	str	r1, [r3, #4]
100089d6:	4658      	mov	r0, fp
100089d8:	f002 fc1e 	bl	1000b218 <__mutex_exit_veneer>
100089dc:	b002      	add	sp, #8
100089de:	bce0      	pop	{r5, r6, r7}
100089e0:	46bb      	mov	fp, r7
100089e2:	46b1      	mov	r9, r6
100089e4:	46a8      	mov	r8, r5
100089e6:	bdf0      	pop	{r4, r5, r6, r7, pc}
100089e8:	2000afa8 	.word	0x2000afa8
100089ec:	200009d0 	.word	0x200009d0
100089f0:	0007a120 	.word	0x0007a120

100089f4 <timer_task>:
100089f4:	b510      	push	{r4, lr}
100089f6:	4b04      	ldr	r3, [pc, #16]	; (10008a08 <timer_task+0x14>)
100089f8:	7818      	ldrb	r0, [r3, #0]
100089fa:	f7f9 f9d5 	bl	10001da8 <irq_set_pending>
100089fe:	20fa      	movs	r0, #250	; 0xfa
10008a00:	2100      	movs	r1, #0
10008a02:	0080      	lsls	r0, r0, #2
10008a04:	bd10      	pop	{r4, pc}
10008a06:	46c0      	nop			; (mov r8, r8)
10008a08:	20012dbf 	.word	0x20012dbf

10008a0c <usb_irq>:
10008a0c:	b510      	push	{r4, lr}
10008a0e:	4b02      	ldr	r3, [pc, #8]	; (10008a18 <usb_irq+0xc>)
10008a10:	7818      	ldrb	r0, [r3, #0]
10008a12:	f7f9 f9c9 	bl	10001da8 <irq_set_pending>
10008a16:	bd10      	pop	{r4, pc}
10008a18:	20012dbf 	.word	0x20012dbf

10008a1c <low_priority_worker_irq>:
10008a1c:	b510      	push	{r4, lr}
10008a1e:	4c07      	ldr	r4, [pc, #28]	; (10008a3c <low_priority_worker_irq+0x20>)
10008a20:	2100      	movs	r1, #0
10008a22:	0020      	movs	r0, r4
10008a24:	f002 fc10 	bl	1000b248 <__mutex_try_enter_veneer>
10008a28:	2800      	cmp	r0, #0
10008a2a:	d100      	bne.n	10008a2e <low_priority_worker_irq+0x12>
10008a2c:	bd10      	pop	{r4, pc}
10008a2e:	f000 fdff 	bl	10009630 <tud_task>
10008a32:	0020      	movs	r0, r4
10008a34:	f002 fbf0 	bl	1000b218 <__mutex_exit_veneer>
10008a38:	e7f8      	b.n	10008a2c <low_priority_worker_irq+0x10>
10008a3a:	46c0      	nop			; (mov r8, r8)
10008a3c:	2000afa8 	.word	0x2000afa8

10008a40 <stdio_usb_init>:
10008a40:	b5f0      	push	{r4, r5, r6, r7, lr}
10008a42:	4b24      	ldr	r3, [pc, #144]	; (10008ad4 <stdio_usb_init+0x94>)
10008a44:	b085      	sub	sp, #20
10008a46:	781b      	ldrb	r3, [r3, #0]
10008a48:	f001 fffe 	bl	1000aa48 <tusb_init>
10008a4c:	4822      	ldr	r0, [pc, #136]	; (10008ad8 <stdio_usb_init+0x98>)
10008a4e:	f7fa fb07 	bl	10003060 <mutex_init>
10008a52:	2001      	movs	r0, #1
10008a54:	f7f9 fc44 	bl	100022e0 <user_irq_claim_unused>
10008a58:	23ff      	movs	r3, #255	; 0xff
10008a5a:	4c20      	ldr	r4, [pc, #128]	; (10008adc <stdio_usb_init+0x9c>)
10008a5c:	4920      	ldr	r1, [pc, #128]	; (10008ae0 <stdio_usb_init+0xa0>)
10008a5e:	7020      	strb	r0, [r4, #0]
10008a60:	4018      	ands	r0, r3
10008a62:	f7f9 f9c7 	bl	10001df4 <irq_set_exclusive_handler>
10008a66:	7820      	ldrb	r0, [r4, #0]
10008a68:	2101      	movs	r1, #1
10008a6a:	f7f9 f98b 	bl	10001d84 <irq_set_enabled>
10008a6e:	2005      	movs	r0, #5
10008a70:	f7f9 f9a2 	bl	10001db8 <irq_has_shared_handler>
10008a74:	1e04      	subs	r4, r0, #0
10008a76:	d00c      	beq.n	10008a92 <stdio_usb_init+0x52>
10008a78:	2200      	movs	r2, #0
10008a7a:	2005      	movs	r0, #5
10008a7c:	4919      	ldr	r1, [pc, #100]	; (10008ae4 <stdio_usb_init+0xa4>)
10008a7e:	f7f9 f9e3 	bl	10001e48 <irq_add_shared_handler>
10008a82:	2101      	movs	r1, #1
10008a84:	4818      	ldr	r0, [pc, #96]	; (10008ae8 <stdio_usb_init+0xa8>)
10008a86:	f7ff fe0b 	bl	100086a0 <stdio_set_driver_enabled>
10008a8a:	2401      	movs	r4, #1
10008a8c:	0020      	movs	r0, r4
10008a8e:	b005      	add	sp, #20
10008a90:	bdf0      	pop	{r4, r5, r6, r7, pc}
10008a92:	f7f9 fe95 	bl	100027c0 <alarm_pool_get_default>
10008a96:	0005      	movs	r5, r0
10008a98:	f7fa f832 	bl	10002b00 <time_us_64>
10008a9c:	22fa      	movs	r2, #250	; 0xfa
10008a9e:	0006      	movs	r6, r0
10008aa0:	000f      	movs	r7, r1
10008aa2:	2300      	movs	r3, #0
10008aa4:	0092      	lsls	r2, r2, #2
10008aa6:	1992      	adds	r2, r2, r6
10008aa8:	417b      	adcs	r3, r7
10008aaa:	4299      	cmp	r1, r3
10008aac:	d80e      	bhi.n	10008acc <stdio_usb_init+0x8c>
10008aae:	d00b      	beq.n	10008ac8 <stdio_usb_init+0x88>
10008ab0:	2101      	movs	r1, #1
10008ab2:	9102      	str	r1, [sp, #8]
10008ab4:	2100      	movs	r1, #0
10008ab6:	9101      	str	r1, [sp, #4]
10008ab8:	490c      	ldr	r1, [pc, #48]	; (10008aec <stdio_usb_init+0xac>)
10008aba:	0028      	movs	r0, r5
10008abc:	9100      	str	r1, [sp, #0]
10008abe:	f7f9 fe83 	bl	100027c8 <alarm_pool_add_alarm_at>
10008ac2:	2800      	cmp	r0, #0
10008ac4:	d0e2      	beq.n	10008a8c <stdio_usb_init+0x4c>
10008ac6:	e7dc      	b.n	10008a82 <stdio_usb_init+0x42>
10008ac8:	4290      	cmp	r0, r2
10008aca:	d9f1      	bls.n	10008ab0 <stdio_usb_init+0x70>
10008acc:	2201      	movs	r2, #1
10008ace:	4252      	negs	r2, r2
10008ad0:	17d3      	asrs	r3, r2, #31
10008ad2:	e7ed      	b.n	10008ab0 <stdio_usb_init+0x70>
10008ad4:	1000b964 	.word	0x1000b964
10008ad8:	2000afa8 	.word	0x2000afa8
10008adc:	20012dbf 	.word	0x20012dbf
10008ae0:	10008a1d 	.word	0x10008a1d
10008ae4:	10008a0d 	.word	0x10008a0d
10008ae8:	20000430 	.word	0x20000430
10008aec:	100089f5 	.word	0x100089f5

10008af0 <tud_descriptor_device_cb>:
10008af0:	4800      	ldr	r0, [pc, #0]	; (10008af4 <tud_descriptor_device_cb+0x4>)
10008af2:	4770      	bx	lr
10008af4:	1000b810 	.word	0x1000b810

10008af8 <tud_descriptor_configuration_cb>:
10008af8:	4800      	ldr	r0, [pc, #0]	; (10008afc <tud_descriptor_configuration_cb+0x4>)
10008afa:	4770      	bx	lr
10008afc:	1000b7bc 	.word	0x1000b7bc

10008b00 <tud_descriptor_string_cb>:
10008b00:	b570      	push	{r4, r5, r6, lr}
10008b02:	0004      	movs	r4, r0
10008b04:	4817      	ldr	r0, [pc, #92]	; (10008b64 <tud_descriptor_string_cb+0x64>)
10008b06:	7803      	ldrb	r3, [r0, #0]
10008b08:	2b00      	cmp	r3, #0
10008b0a:	d021      	beq.n	10008b50 <tud_descriptor_string_cb+0x50>
10008b0c:	2c00      	cmp	r4, #0
10008b0e:	d106      	bne.n	10008b1e <tud_descriptor_string_cb+0x1e>
10008b10:	24c1      	movs	r4, #193	; 0xc1
10008b12:	4815      	ldr	r0, [pc, #84]	; (10008b68 <tud_descriptor_string_cb+0x68>)
10008b14:	4b15      	ldr	r3, [pc, #84]	; (10008b6c <tud_descriptor_string_cb+0x6c>)
10008b16:	00a4      	lsls	r4, r4, #2
10008b18:	8043      	strh	r3, [r0, #2]
10008b1a:	8004      	strh	r4, [r0, #0]
10008b1c:	bd70      	pop	{r4, r5, r6, pc}
10008b1e:	2c05      	cmp	r4, #5
10008b20:	d81d      	bhi.n	10008b5e <tud_descriptor_string_cb+0x5e>
10008b22:	4b13      	ldr	r3, [pc, #76]	; (10008b70 <tud_descriptor_string_cb+0x70>)
10008b24:	4810      	ldr	r0, [pc, #64]	; (10008b68 <tud_descriptor_string_cb+0x68>)
10008b26:	00a4      	lsls	r4, r4, #2
10008b28:	58e5      	ldr	r5, [r4, r3]
10008b2a:	1c81      	adds	r1, r0, #2
10008b2c:	2300      	movs	r3, #0
10008b2e:	e004      	b.n	10008b3a <tud_descriptor_string_cb+0x3a>
10008b30:	3301      	adds	r3, #1
10008b32:	800a      	strh	r2, [r1, #0]
10008b34:	3102      	adds	r1, #2
10008b36:	2b13      	cmp	r3, #19
10008b38:	d00e      	beq.n	10008b58 <tud_descriptor_string_cb+0x58>
10008b3a:	5cea      	ldrb	r2, [r5, r3]
10008b3c:	b2dc      	uxtb	r4, r3
10008b3e:	2a00      	cmp	r2, #0
10008b40:	d1f6      	bne.n	10008b30 <tud_descriptor_string_cb+0x30>
10008b42:	23c0      	movs	r3, #192	; 0xc0
10008b44:	3401      	adds	r4, #1
10008b46:	b2e4      	uxtb	r4, r4
10008b48:	0064      	lsls	r4, r4, #1
10008b4a:	009b      	lsls	r3, r3, #2
10008b4c:	431c      	orrs	r4, r3
10008b4e:	e7e4      	b.n	10008b1a <tud_descriptor_string_cb+0x1a>
10008b50:	2111      	movs	r1, #17
10008b52:	f002 fa0f 	bl	1000af74 <pico_get_unique_board_id_string>
10008b56:	e7d9      	b.n	10008b0c <tud_descriptor_string_cb+0xc>
10008b58:	24ca      	movs	r4, #202	; 0xca
10008b5a:	00a4      	lsls	r4, r4, #2
10008b5c:	e7dd      	b.n	10008b1a <tud_descriptor_string_cb+0x1a>
10008b5e:	2000      	movs	r0, #0
10008b60:	e7dc      	b.n	10008b1c <tud_descriptor_string_cb+0x1c>
10008b62:	46c0      	nop			; (mov r8, r8)
10008b64:	20012cc4 	.word	0x20012cc4
10008b68:	20001a3c 	.word	0x20001a3c
10008b6c:	00000409 	.word	0x00000409
10008b70:	1000b824 	.word	0x1000b824

10008b74 <dcd_rp2040_irq>:
10008b74:	b5f0      	push	{r4, r5, r6, r7, lr}
10008b76:	2398      	movs	r3, #152	; 0x98
10008b78:	4657      	mov	r7, sl
10008b7a:	4645      	mov	r5, r8
10008b7c:	46de      	mov	lr, fp
10008b7e:	464e      	mov	r6, r9
10008b80:	4a6c      	ldr	r2, [pc, #432]	; (10008d34 <dcd_rp2040_irq+0x1c0>)
10008b82:	b5e0      	push	{r5, r6, r7, lr}
10008b84:	58d7      	ldr	r7, [r2, r3]
10008b86:	2580      	movs	r5, #128	; 0x80
10008b88:	003c      	movs	r4, r7
10008b8a:	026d      	lsls	r5, r5, #9
10008b8c:	3b88      	subs	r3, #136	; 0x88
10008b8e:	469a      	mov	sl, r3
10008b90:	b083      	sub	sp, #12
10008b92:	402c      	ands	r4, r5
10008b94:	422f      	tst	r7, r5
10008b96:	d00f      	beq.n	10008bb8 <dcd_rp2040_irq+0x44>
10008b98:	2201      	movs	r2, #1
10008b9a:	2123      	movs	r1, #35	; 0x23
10008b9c:	4b66      	ldr	r3, [pc, #408]	; (10008d38 <dcd_rp2040_irq+0x1c4>)
10008b9e:	2000      	movs	r0, #0
10008ba0:	545a      	strb	r2, [r3, r1]
10008ba2:	70da      	strb	r2, [r3, #3]
10008ba4:	4965      	ldr	r1, [pc, #404]	; (10008d3c <dcd_rp2040_irq+0x1c8>)
10008ba6:	f001 fa73 	bl	1000a090 <dcd_event_setup_received>
10008baa:	2280      	movs	r2, #128	; 0x80
10008bac:	4b64      	ldr	r3, [pc, #400]	; (10008d40 <dcd_rp2040_irq+0x1cc>)
10008bae:	0292      	lsls	r2, r2, #10
10008bb0:	651a      	str	r2, [r3, #80]	; 0x50
10008bb2:	4b64      	ldr	r3, [pc, #400]	; (10008d44 <dcd_rp2040_irq+0x1d0>)
10008bb4:	002c      	movs	r4, r5
10008bb6:	469a      	mov	sl, r3
10008bb8:	06fb      	lsls	r3, r7, #27
10008bba:	d417      	bmi.n	10008bec <dcd_rp2040_irq+0x78>
10008bbc:	2380      	movs	r3, #128	; 0x80
10008bbe:	015b      	lsls	r3, r3, #5
10008bc0:	421f      	tst	r7, r3
10008bc2:	d145      	bne.n	10008c50 <dcd_rp2040_irq+0xdc>
10008bc4:	2380      	movs	r3, #128	; 0x80
10008bc6:	01db      	lsls	r3, r3, #7
10008bc8:	421f      	tst	r7, r3
10008bca:	d000      	beq.n	10008bce <dcd_rp2040_irq+0x5a>
10008bcc:	e088      	b.n	10008ce0 <dcd_rp2040_irq+0x16c>
10008bce:	2380      	movs	r3, #128	; 0x80
10008bd0:	021b      	lsls	r3, r3, #8
10008bd2:	421f      	tst	r7, r3
10008bd4:	d000      	beq.n	10008bd8 <dcd_rp2040_irq+0x64>
10008bd6:	e091      	b.n	10008cfc <dcd_rp2040_irq+0x188>
10008bd8:	42bc      	cmp	r4, r7
10008bda:	d000      	beq.n	10008bde <dcd_rp2040_irq+0x6a>
10008bdc:	e0a5      	b.n	10008d2a <dcd_rp2040_irq+0x1b6>
10008bde:	b003      	add	sp, #12
10008be0:	bcf0      	pop	{r4, r5, r6, r7}
10008be2:	46bb      	mov	fp, r7
10008be4:	46b2      	mov	sl, r6
10008be6:	46a9      	mov	r9, r5
10008be8:	46a0      	mov	r8, r4
10008bea:	bdf0      	pop	{r4, r5, r6, r7, pc}
10008bec:	4b51      	ldr	r3, [pc, #324]	; (10008d34 <dcd_rp2040_irq+0x1c0>)
10008bee:	6d9b      	ldr	r3, [r3, #88]	; 0x58
10008bf0:	4698      	mov	r8, r3
10008bf2:	2b00      	cmp	r3, #0
10008bf4:	d027      	beq.n	10008c46 <dcd_rp2040_irq+0xd2>
10008bf6:	4b52      	ldr	r3, [pc, #328]	; (10008d40 <dcd_rp2040_irq+0x1cc>)
10008bf8:	2400      	movs	r4, #0
10008bfa:	469b      	mov	fp, r3
10008bfc:	2301      	movs	r3, #1
10008bfe:	4699      	mov	r9, r3
10008c00:	4643      	mov	r3, r8
10008c02:	2601      	movs	r6, #1
10008c04:	46b8      	mov	r8, r7
10008c06:	001f      	movs	r7, r3
10008c08:	e004      	b.n	10008c14 <dcd_rp2040_irq+0xa0>
10008c0a:	3401      	adds	r4, #1
10008c0c:	0076      	lsls	r6, r6, #1
10008c0e:	b2e4      	uxtb	r4, r4
10008c10:	2c20      	cmp	r4, #32
10008c12:	d017      	beq.n	10008c44 <dcd_rp2040_irq+0xd0>
10008c14:	4237      	tst	r7, r6
10008c16:	d0f8      	beq.n	10008c0a <dcd_rp2040_irq+0x96>
10008c18:	465b      	mov	r3, fp
10008c1a:	659e      	str	r6, [r3, #88]	; 0x58
10008c1c:	464b      	mov	r3, r9
10008c1e:	0865      	lsrs	r5, r4, #1
10008c20:	43a3      	bics	r3, r4
10008c22:	006d      	lsls	r5, r5, #1
10008c24:	18ed      	adds	r5, r5, r3
10008c26:	4b44      	ldr	r3, [pc, #272]	; (10008d38 <dcd_rp2040_irq+0x1c4>)
10008c28:	016d      	lsls	r5, r5, #5
10008c2a:	469c      	mov	ip, r3
10008c2c:	4465      	add	r5, ip
10008c2e:	0028      	movs	r0, r5
10008c30:	f000 fb8a 	bl	10009348 <hw_endpoint_xfer_continue>
10008c34:	2800      	cmp	r0, #0
10008c36:	d16c      	bne.n	10008d12 <dcd_rp2040_irq+0x19e>
10008c38:	3401      	adds	r4, #1
10008c3a:	43b7      	bics	r7, r6
10008c3c:	b2e4      	uxtb	r4, r4
10008c3e:	0076      	lsls	r6, r6, #1
10008c40:	2f00      	cmp	r7, #0
10008c42:	d1e5      	bne.n	10008c10 <dcd_rp2040_irq+0x9c>
10008c44:	4647      	mov	r7, r8
10008c46:	2380      	movs	r3, #128	; 0x80
10008c48:	015b      	lsls	r3, r3, #5
10008c4a:	4654      	mov	r4, sl
10008c4c:	421f      	tst	r7, r3
10008c4e:	d0b9      	beq.n	10008bc4 <dcd_rp2040_irq+0x50>
10008c50:	431c      	orrs	r4, r3
10008c52:	2300      	movs	r3, #0
10008c54:	4a37      	ldr	r2, [pc, #220]	; (10008d34 <dcd_rp2040_irq+0x1c0>)
10008c56:	2100      	movs	r1, #0
10008c58:	6013      	str	r3, [r2, #0]
10008c5a:	4a38      	ldr	r2, [pc, #224]	; (10008d3c <dcd_rp2040_irq+0x1c8>)
10008c5c:	483a      	ldr	r0, [pc, #232]	; (10008d48 <dcd_rp2040_irq+0x1d4>)
10008c5e:	6093      	str	r3, [r2, #8]
10008c60:	60d3      	str	r3, [r2, #12]
10008c62:	4a3a      	ldr	r2, [pc, #232]	; (10008d4c <dcd_rp2040_irq+0x1d8>)
10008c64:	6093      	str	r3, [r2, #8]
10008c66:	60d3      	str	r3, [r2, #12]
10008c68:	4a39      	ldr	r2, [pc, #228]	; (10008d50 <dcd_rp2040_irq+0x1dc>)
10008c6a:	6093      	str	r3, [r2, #8]
10008c6c:	60d3      	str	r3, [r2, #12]
10008c6e:	4a39      	ldr	r2, [pc, #228]	; (10008d54 <dcd_rp2040_irq+0x1e0>)
10008c70:	6093      	str	r3, [r2, #8]
10008c72:	60d3      	str	r3, [r2, #12]
10008c74:	4a38      	ldr	r2, [pc, #224]	; (10008d58 <dcd_rp2040_irq+0x1e4>)
10008c76:	6093      	str	r3, [r2, #8]
10008c78:	60d3      	str	r3, [r2, #12]
10008c7a:	4a38      	ldr	r2, [pc, #224]	; (10008d5c <dcd_rp2040_irq+0x1e8>)
10008c7c:	6093      	str	r3, [r2, #8]
10008c7e:	60d3      	str	r3, [r2, #12]
10008c80:	4a37      	ldr	r2, [pc, #220]	; (10008d60 <dcd_rp2040_irq+0x1ec>)
10008c82:	6093      	str	r3, [r2, #8]
10008c84:	60d3      	str	r3, [r2, #12]
10008c86:	4a37      	ldr	r2, [pc, #220]	; (10008d64 <dcd_rp2040_irq+0x1f0>)
10008c88:	6093      	str	r3, [r2, #8]
10008c8a:	60d3      	str	r3, [r2, #12]
10008c8c:	4a36      	ldr	r2, [pc, #216]	; (10008d68 <dcd_rp2040_irq+0x1f4>)
10008c8e:	6093      	str	r3, [r2, #8]
10008c90:	60d3      	str	r3, [r2, #12]
10008c92:	4a36      	ldr	r2, [pc, #216]	; (10008d6c <dcd_rp2040_irq+0x1f8>)
10008c94:	6093      	str	r3, [r2, #8]
10008c96:	60d3      	str	r3, [r2, #12]
10008c98:	4a35      	ldr	r2, [pc, #212]	; (10008d70 <dcd_rp2040_irq+0x1fc>)
10008c9a:	6093      	str	r3, [r2, #8]
10008c9c:	60d3      	str	r3, [r2, #12]
10008c9e:	4a35      	ldr	r2, [pc, #212]	; (10008d74 <dcd_rp2040_irq+0x200>)
10008ca0:	6093      	str	r3, [r2, #8]
10008ca2:	60d3      	str	r3, [r2, #12]
10008ca4:	4a34      	ldr	r2, [pc, #208]	; (10008d78 <dcd_rp2040_irq+0x204>)
10008ca6:	6093      	str	r3, [r2, #8]
10008ca8:	60d3      	str	r3, [r2, #12]
10008caa:	4a34      	ldr	r2, [pc, #208]	; (10008d7c <dcd_rp2040_irq+0x208>)
10008cac:	6093      	str	r3, [r2, #8]
10008cae:	60d3      	str	r3, [r2, #12]
10008cb0:	4a33      	ldr	r2, [pc, #204]	; (10008d80 <dcd_rp2040_irq+0x20c>)
10008cb2:	6093      	str	r3, [r2, #8]
10008cb4:	60d3      	str	r3, [r2, #12]
10008cb6:	22f0      	movs	r2, #240	; 0xf0
10008cb8:	0092      	lsls	r2, r2, #2
10008cba:	f7ff fb67 	bl	1000838c <__wrap_memset>
10008cbe:	4b31      	ldr	r3, [pc, #196]	; (10008d84 <dcd_rp2040_irq+0x210>)
10008cc0:	4a31      	ldr	r2, [pc, #196]	; (10008d88 <dcd_rp2040_irq+0x214>)
10008cc2:	2100      	movs	r1, #0
10008cc4:	601a      	str	r2, [r3, #0]
10008cc6:	2000      	movs	r0, #0
10008cc8:	2201      	movs	r2, #1
10008cca:	f001 f9b7 	bl	1000a03c <dcd_event_bus_reset>
10008cce:	2280      	movs	r2, #128	; 0x80
10008cd0:	4b1b      	ldr	r3, [pc, #108]	; (10008d40 <dcd_rp2040_irq+0x1cc>)
10008cd2:	0312      	lsls	r2, r2, #12
10008cd4:	651a      	str	r2, [r3, #80]	; 0x50
10008cd6:	2380      	movs	r3, #128	; 0x80
10008cd8:	01db      	lsls	r3, r3, #7
10008cda:	421f      	tst	r7, r3
10008cdc:	d100      	bne.n	10008ce0 <dcd_rp2040_irq+0x16c>
10008cde:	e776      	b.n	10008bce <dcd_rp2040_irq+0x5a>
10008ce0:	2201      	movs	r2, #1
10008ce2:	2104      	movs	r1, #4
10008ce4:	2000      	movs	r0, #0
10008ce6:	431c      	orrs	r4, r3
10008ce8:	f001 f918 	bl	10009f1c <dcd_event_bus_signal>
10008cec:	2210      	movs	r2, #16
10008cee:	4b14      	ldr	r3, [pc, #80]	; (10008d40 <dcd_rp2040_irq+0x1cc>)
10008cf0:	651a      	str	r2, [r3, #80]	; 0x50
10008cf2:	2380      	movs	r3, #128	; 0x80
10008cf4:	021b      	lsls	r3, r3, #8
10008cf6:	421f      	tst	r7, r3
10008cf8:	d100      	bne.n	10008cfc <dcd_rp2040_irq+0x188>
10008cfa:	e76d      	b.n	10008bd8 <dcd_rp2040_irq+0x64>
10008cfc:	2201      	movs	r2, #1
10008cfe:	2105      	movs	r1, #5
10008d00:	2000      	movs	r0, #0
10008d02:	431c      	orrs	r4, r3
10008d04:	f001 f90a 	bl	10009f1c <dcd_event_bus_signal>
10008d08:	2280      	movs	r2, #128	; 0x80
10008d0a:	4b0d      	ldr	r3, [pc, #52]	; (10008d40 <dcd_rp2040_irq+0x1cc>)
10008d0c:	0112      	lsls	r2, r2, #4
10008d0e:	651a      	str	r2, [r3, #80]	; 0x50
10008d10:	e762      	b.n	10008bd8 <dcd_rp2040_irq+0x64>
10008d12:	464b      	mov	r3, r9
10008d14:	8aaa      	ldrh	r2, [r5, #20]
10008d16:	78a9      	ldrb	r1, [r5, #2]
10008d18:	2000      	movs	r0, #0
10008d1a:	9300      	str	r3, [sp, #0]
10008d1c:	2300      	movs	r3, #0
10008d1e:	f001 f9df 	bl	1000a0e0 <dcd_event_xfer_complete>
10008d22:	0028      	movs	r0, r5
10008d24:	f000 fa4c 	bl	100091c0 <hw_endpoint_reset_transfer>
10008d28:	e786      	b.n	10008c38 <dcd_rp2040_irq+0xc4>
10008d2a:	0021      	movs	r1, r4
10008d2c:	4817      	ldr	r0, [pc, #92]	; (10008d8c <dcd_rp2040_irq+0x218>)
10008d2e:	4079      	eors	r1, r7
10008d30:	f7fc ff10 	bl	10005b54 <panic>
10008d34:	50110000 	.word	0x50110000
10008d38:	20009a7c 	.word	0x20009a7c
10008d3c:	50100000 	.word	0x50100000
10008d40:	50113000 	.word	0x50113000
10008d44:	00010010 	.word	0x00010010
10008d48:	20009abc 	.word	0x20009abc
10008d4c:	50100008 	.word	0x50100008
10008d50:	50100010 	.word	0x50100010
10008d54:	50100018 	.word	0x50100018
10008d58:	50100020 	.word	0x50100020
10008d5c:	50100028 	.word	0x50100028
10008d60:	50100030 	.word	0x50100030
10008d64:	50100038 	.word	0x50100038
10008d68:	50100040 	.word	0x50100040
10008d6c:	50100048 	.word	0x50100048
10008d70:	50100050 	.word	0x50100050
10008d74:	50100058 	.word	0x50100058
10008d78:	50100060 	.word	0x50100060
10008d7c:	50100068 	.word	0x50100068
10008d80:	50100070 	.word	0x50100070
10008d84:	20009ea4 	.word	0x20009ea4
10008d88:	50100180 	.word	0x50100180
10008d8c:	1000b83c 	.word	0x1000b83c

10008d90 <dcd_int_enable>:
10008d90:	b510      	push	{r4, lr}
10008d92:	2101      	movs	r1, #1
10008d94:	2005      	movs	r0, #5
10008d96:	f7f8 fff5 	bl	10001d84 <irq_set_enabled>
10008d9a:	bd10      	pop	{r4, pc}

10008d9c <dcd_set_address>:
10008d9c:	b510      	push	{r4, lr}
10008d9e:	2200      	movs	r2, #0
10008da0:	2100      	movs	r1, #0
10008da2:	4802      	ldr	r0, [pc, #8]	; (10008dac <dcd_set_address+0x10>)
10008da4:	f000 fa34 	bl	10009210 <hw_endpoint_xfer_start>
10008da8:	bd10      	pop	{r4, pc}
10008daa:	46c0      	nop			; (mov r8, r8)
10008dac:	20009a9c 	.word	0x20009a9c

10008db0 <dcd_connect>:
10008db0:	2280      	movs	r2, #128	; 0x80
10008db2:	4b02      	ldr	r3, [pc, #8]	; (10008dbc <dcd_connect+0xc>)
10008db4:	0252      	lsls	r2, r2, #9
10008db6:	64da      	str	r2, [r3, #76]	; 0x4c
10008db8:	4770      	bx	lr
10008dba:	46c0      	nop			; (mov r8, r8)
10008dbc:	50112000 	.word	0x50112000

10008dc0 <dcd_init>:
10008dc0:	b5f0      	push	{r4, r5, r6, r7, lr}
10008dc2:	46c6      	mov	lr, r8
10008dc4:	b500      	push	{lr}
10008dc6:	0006      	movs	r6, r0
10008dc8:	f000 f9d4 	bl	10009174 <rp2040_usb_init>
10008dcc:	230c      	movs	r3, #12
10008dce:	4d35      	ldr	r5, [pc, #212]	; (10008ea4 <dcd_init+0xe4>)
10008dd0:	2005      	movs	r0, #5
10008dd2:	67ab      	str	r3, [r5, #120]	; 0x78
10008dd4:	4934      	ldr	r1, [pc, #208]	; (10008ea8 <dcd_init+0xe8>)
10008dd6:	f7f9 f80d 	bl	10001df4 <irq_set_exclusive_handler>
10008dda:	2340      	movs	r3, #64	; 0x40
10008ddc:	4698      	mov	r8, r3
10008dde:	4c33      	ldr	r4, [pc, #204]	; (10008eac <dcd_init+0xec>)
10008de0:	2240      	movs	r2, #64	; 0x40
10008de2:	2100      	movs	r1, #0
10008de4:	0020      	movs	r0, r4
10008de6:	f7ff fad1 	bl	1000838c <__wrap_memset>
10008dea:	4643      	mov	r3, r8
10008dec:	2701      	movs	r7, #1
10008dee:	83a3      	strh	r3, [r4, #28]
10008df0:	2121      	movs	r1, #33	; 0x21
10008df2:	2300      	movs	r3, #0
10008df4:	4a2e      	ldr	r2, [pc, #184]	; (10008eb0 <dcd_init+0xf0>)
10008df6:	7067      	strb	r7, [r4, #1]
10008df8:	60a2      	str	r2, [r4, #8]
10008dfa:	6013      	str	r3, [r2, #0]
10008dfc:	5463      	strb	r3, [r4, r1]
10008dfe:	315f      	adds	r1, #95	; 0x5f
10008e00:	8461      	strh	r1, [r4, #34]	; 0x22
10008e02:	4641      	mov	r1, r8
10008e04:	87a1      	strh	r1, [r4, #60]	; 0x3c
10008e06:	3902      	subs	r1, #2
10008e08:	5463      	strb	r3, [r4, r1]
10008e0a:	4a2a      	ldr	r2, [pc, #168]	; (10008eb4 <dcd_init+0xf4>)
10008e0c:	492a      	ldr	r1, [pc, #168]	; (10008eb8 <dcd_init+0xf8>)
10008e0e:	6063      	str	r3, [r4, #4]
10008e10:	60e2      	str	r2, [r4, #12]
10008e12:	62a1      	str	r1, [r4, #40]	; 0x28
10008e14:	600b      	str	r3, [r1, #0]
10008e16:	62e2      	str	r2, [r4, #44]	; 0x2c
10008e18:	4a28      	ldr	r2, [pc, #160]	; (10008ebc <dcd_init+0xfc>)
10008e1a:	6263      	str	r3, [r4, #36]	; 0x24
10008e1c:	6093      	str	r3, [r2, #8]
10008e1e:	60d3      	str	r3, [r2, #12]
10008e20:	4a27      	ldr	r2, [pc, #156]	; (10008ec0 <dcd_init+0x100>)
10008e22:	0020      	movs	r0, r4
10008e24:	6093      	str	r3, [r2, #8]
10008e26:	60d3      	str	r3, [r2, #12]
10008e28:	4a26      	ldr	r2, [pc, #152]	; (10008ec4 <dcd_init+0x104>)
10008e2a:	2100      	movs	r1, #0
10008e2c:	6093      	str	r3, [r2, #8]
10008e2e:	60d3      	str	r3, [r2, #12]
10008e30:	4a25      	ldr	r2, [pc, #148]	; (10008ec8 <dcd_init+0x108>)
10008e32:	3040      	adds	r0, #64	; 0x40
10008e34:	6093      	str	r3, [r2, #8]
10008e36:	60d3      	str	r3, [r2, #12]
10008e38:	4a24      	ldr	r2, [pc, #144]	; (10008ecc <dcd_init+0x10c>)
10008e3a:	6093      	str	r3, [r2, #8]
10008e3c:	60d3      	str	r3, [r2, #12]
10008e3e:	4a24      	ldr	r2, [pc, #144]	; (10008ed0 <dcd_init+0x110>)
10008e40:	6093      	str	r3, [r2, #8]
10008e42:	60d3      	str	r3, [r2, #12]
10008e44:	4a23      	ldr	r2, [pc, #140]	; (10008ed4 <dcd_init+0x114>)
10008e46:	6093      	str	r3, [r2, #8]
10008e48:	60d3      	str	r3, [r2, #12]
10008e4a:	4a23      	ldr	r2, [pc, #140]	; (10008ed8 <dcd_init+0x118>)
10008e4c:	6093      	str	r3, [r2, #8]
10008e4e:	60d3      	str	r3, [r2, #12]
10008e50:	4a22      	ldr	r2, [pc, #136]	; (10008edc <dcd_init+0x11c>)
10008e52:	6093      	str	r3, [r2, #8]
10008e54:	60d3      	str	r3, [r2, #12]
10008e56:	4a22      	ldr	r2, [pc, #136]	; (10008ee0 <dcd_init+0x120>)
10008e58:	6093      	str	r3, [r2, #8]
10008e5a:	60d3      	str	r3, [r2, #12]
10008e5c:	4a21      	ldr	r2, [pc, #132]	; (10008ee4 <dcd_init+0x124>)
10008e5e:	6093      	str	r3, [r2, #8]
10008e60:	60d3      	str	r3, [r2, #12]
10008e62:	4a21      	ldr	r2, [pc, #132]	; (10008ee8 <dcd_init+0x128>)
10008e64:	6093      	str	r3, [r2, #8]
10008e66:	60d3      	str	r3, [r2, #12]
10008e68:	4a20      	ldr	r2, [pc, #128]	; (10008eec <dcd_init+0x12c>)
10008e6a:	6093      	str	r3, [r2, #8]
10008e6c:	60d3      	str	r3, [r2, #12]
10008e6e:	4a20      	ldr	r2, [pc, #128]	; (10008ef0 <dcd_init+0x130>)
10008e70:	6093      	str	r3, [r2, #8]
10008e72:	60d3      	str	r3, [r2, #12]
10008e74:	4a1f      	ldr	r2, [pc, #124]	; (10008ef4 <dcd_init+0x134>)
10008e76:	6093      	str	r3, [r2, #8]
10008e78:	60d3      	str	r3, [r2, #12]
10008e7a:	22f0      	movs	r2, #240	; 0xf0
10008e7c:	0092      	lsls	r2, r2, #2
10008e7e:	f7ff fa85 	bl	1000838c <__wrap_memset>
10008e82:	4b1d      	ldr	r3, [pc, #116]	; (10008ef8 <dcd_init+0x138>)
10008e84:	4a1d      	ldr	r2, [pc, #116]	; (10008efc <dcd_init+0x13c>)
10008e86:	0030      	movs	r0, r6
10008e88:	601a      	str	r2, [r3, #0]
10008e8a:	2380      	movs	r3, #128	; 0x80
10008e8c:	059b      	lsls	r3, r3, #22
10008e8e:	642f      	str	r7, [r5, #64]	; 0x40
10008e90:	64eb      	str	r3, [r5, #76]	; 0x4c
10008e92:	2390      	movs	r3, #144	; 0x90
10008e94:	4a1a      	ldr	r2, [pc, #104]	; (10008f00 <dcd_init+0x140>)
10008e96:	50ea      	str	r2, [r5, r3]
10008e98:	f7ff ff8a 	bl	10008db0 <dcd_connect>
10008e9c:	bc80      	pop	{r7}
10008e9e:	46b8      	mov	r8, r7
10008ea0:	bdf0      	pop	{r4, r5, r6, r7, pc}
10008ea2:	46c0      	nop			; (mov r8, r8)
10008ea4:	50110000 	.word	0x50110000
10008ea8:	10008b75 	.word	0x10008b75
10008eac:	20009a7c 	.word	0x20009a7c
10008eb0:	50100084 	.word	0x50100084
10008eb4:	50100100 	.word	0x50100100
10008eb8:	50100080 	.word	0x50100080
10008ebc:	50100000 	.word	0x50100000
10008ec0:	50100008 	.word	0x50100008
10008ec4:	50100010 	.word	0x50100010
10008ec8:	50100018 	.word	0x50100018
10008ecc:	50100020 	.word	0x50100020
10008ed0:	50100028 	.word	0x50100028
10008ed4:	50100030 	.word	0x50100030
10008ed8:	50100038 	.word	0x50100038
10008edc:	50100040 	.word	0x50100040
10008ee0:	50100048 	.word	0x50100048
10008ee4:	50100050 	.word	0x50100050
10008ee8:	50100058 	.word	0x50100058
10008eec:	50100060 	.word	0x50100060
10008ef0:	50100068 	.word	0x50100068
10008ef4:	50100070 	.word	0x50100070
10008ef8:	20009ea4 	.word	0x20009ea4
10008efc:	50100180 	.word	0x50100180
10008f00:	0001d010 	.word	0x0001d010

10008f04 <dcd_edpt0_status_complete>:
10008f04:	780b      	ldrb	r3, [r1, #0]
10008f06:	065b      	lsls	r3, r3, #25
10008f08:	d102      	bne.n	10008f10 <dcd_edpt0_status_complete+0xc>
10008f0a:	784b      	ldrb	r3, [r1, #1]
10008f0c:	2b05      	cmp	r3, #5
10008f0e:	d000      	beq.n	10008f12 <dcd_edpt0_status_complete+0xe>
10008f10:	4770      	bx	lr
10008f12:	788a      	ldrb	r2, [r1, #2]
10008f14:	4b01      	ldr	r3, [pc, #4]	; (10008f1c <dcd_edpt0_status_complete+0x18>)
10008f16:	601a      	str	r2, [r3, #0]
10008f18:	e7fa      	b.n	10008f10 <dcd_edpt0_status_complete+0xc>
10008f1a:	46c0      	nop			; (mov r8, r8)
10008f1c:	50110000 	.word	0x50110000

10008f20 <dcd_edpt_open>:
10008f20:	b5f0      	push	{r4, r5, r6, r7, lr}
10008f22:	46ce      	mov	lr, r9
10008f24:	4647      	mov	r7, r8
10008f26:	2307      	movs	r3, #7
10008f28:	b580      	push	{r7, lr}
10008f2a:	7948      	ldrb	r0, [r1, #5]
10008f2c:	788e      	ldrb	r6, [r1, #2]
10008f2e:	790a      	ldrb	r2, [r1, #4]
10008f30:	4003      	ands	r3, r0
10008f32:	78c8      	ldrb	r0, [r1, #3]
10008f34:	217f      	movs	r1, #127	; 0x7f
10008f36:	0780      	lsls	r0, r0, #30
10008f38:	4031      	ands	r1, r6
10008f3a:	021b      	lsls	r3, r3, #8
10008f3c:	09f4      	lsrs	r4, r6, #7
10008f3e:	4313      	orrs	r3, r2
10008f40:	004f      	lsls	r7, r1, #1
10008f42:	0f82      	lsrs	r2, r0, #30
10008f44:	4694      	mov	ip, r2
10008f46:	4691      	mov	r9, r2
10008f48:	4d2a      	ldr	r5, [pc, #168]	; (10008ff4 <dcd_edpt_open+0xd4>)
10008f4a:	193a      	adds	r2, r7, r4
10008f4c:	0152      	lsls	r2, r2, #5
10008f4e:	18aa      	adds	r2, r5, r2
10008f50:	7096      	strb	r6, [r2, #2]
10008f52:	2601      	movs	r6, #1
10008f54:	4066      	eors	r6, r4
10008f56:	7056      	strb	r6, [r2, #1]
10008f58:	4660      	mov	r0, ip
10008f5a:	2600      	movs	r6, #0
10008f5c:	8393      	strh	r3, [r2, #28]
10008f5e:	70d6      	strb	r6, [r2, #3]
10008f60:	7790      	strb	r0, [r2, #30]
10008f62:	00ca      	lsls	r2, r1, #3
10008f64:	2c01      	cmp	r4, #1
10008f66:	d029      	beq.n	10008fbc <dcd_edpt_open+0x9c>
10008f68:	4823      	ldr	r0, [pc, #140]	; (10008ff8 <dcd_edpt_open+0xd8>)
10008f6a:	4684      	mov	ip, r0
10008f6c:	0188      	lsls	r0, r1, #6
10008f6e:	4462      	add	r2, ip
10008f70:	4684      	mov	ip, r0
10008f72:	44ac      	add	ip, r5
10008f74:	4660      	mov	r0, ip
10008f76:	6082      	str	r2, [r0, #8]
10008f78:	6016      	str	r6, [r2, #0]
10008f7a:	2900      	cmp	r1, #0
10008f7c:	d029      	beq.n	10008fd2 <dcd_edpt_open+0xb2>
10008f7e:	4a1f      	ldr	r2, [pc, #124]	; (10008ffc <dcd_edpt_open+0xdc>)
10008f80:	00c9      	lsls	r1, r1, #3
10008f82:	4690      	mov	r8, r2
10008f84:	4441      	add	r1, r8
10008f86:	6041      	str	r1, [r0, #4]
10008f88:	223f      	movs	r2, #63	; 0x3f
10008f8a:	333f      	adds	r3, #63	; 0x3f
10008f8c:	4393      	bics	r3, r2
10008f8e:	464a      	mov	r2, r9
10008f90:	2a02      	cmp	r2, #2
10008f92:	d100      	bne.n	10008f96 <dcd_edpt_open+0x76>
10008f94:	005b      	lsls	r3, r3, #1
10008f96:	491a      	ldr	r1, [pc, #104]	; (10009000 <dcd_edpt_open+0xe0>)
10008f98:	193f      	adds	r7, r7, r4
10008f9a:	680a      	ldr	r2, [r1, #0]
10008f9c:	017f      	lsls	r7, r7, #5
10008f9e:	18d3      	adds	r3, r2, r3
10008fa0:	600b      	str	r3, [r1, #0]
10008fa2:	4b18      	ldr	r3, [pc, #96]	; (10009004 <dcd_edpt_open+0xe4>)
10008fa4:	19ed      	adds	r5, r5, r7
10008fa6:	4053      	eors	r3, r2
10008fa8:	60ea      	str	r2, [r5, #12]
10008faa:	464a      	mov	r2, r9
10008fac:	0690      	lsls	r0, r2, #26
10008fae:	4318      	orrs	r0, r3
10008fb0:	2380      	movs	r3, #128	; 0x80
10008fb2:	061b      	lsls	r3, r3, #24
10008fb4:	4318      	orrs	r0, r3
10008fb6:	686b      	ldr	r3, [r5, #4]
10008fb8:	6018      	str	r0, [r3, #0]
10008fba:	e010      	b.n	10008fde <dcd_edpt_open+0xbe>
10008fbc:	4812      	ldr	r0, [pc, #72]	; (10009008 <dcd_edpt_open+0xe8>)
10008fbe:	4684      	mov	ip, r0
10008fc0:	0188      	lsls	r0, r1, #6
10008fc2:	4462      	add	r2, ip
10008fc4:	4684      	mov	ip, r0
10008fc6:	44ac      	add	ip, r5
10008fc8:	4660      	mov	r0, ip
10008fca:	6282      	str	r2, [r0, #40]	; 0x28
10008fcc:	6016      	str	r6, [r2, #0]
10008fce:	2900      	cmp	r1, #0
10008fd0:	d10a      	bne.n	10008fe8 <dcd_edpt_open+0xc8>
10008fd2:	2300      	movs	r3, #0
10008fd4:	0164      	lsls	r4, r4, #5
10008fd6:	192d      	adds	r5, r5, r4
10008fd8:	606b      	str	r3, [r5, #4]
10008fda:	4b0c      	ldr	r3, [pc, #48]	; (1000900c <dcd_edpt_open+0xec>)
10008fdc:	60eb      	str	r3, [r5, #12]
10008fde:	2001      	movs	r0, #1
10008fe0:	bcc0      	pop	{r6, r7}
10008fe2:	46b9      	mov	r9, r7
10008fe4:	46b0      	mov	r8, r6
10008fe6:	bdf0      	pop	{r4, r5, r6, r7, pc}
10008fe8:	4a06      	ldr	r2, [pc, #24]	; (10009004 <dcd_edpt_open+0xe4>)
10008fea:	00c9      	lsls	r1, r1, #3
10008fec:	4690      	mov	r8, r2
10008fee:	4441      	add	r1, r8
10008ff0:	6241      	str	r1, [r0, #36]	; 0x24
10008ff2:	e7c9      	b.n	10008f88 <dcd_edpt_open+0x68>
10008ff4:	20009a7c 	.word	0x20009a7c
10008ff8:	50100084 	.word	0x50100084
10008ffc:	50100004 	.word	0x50100004
10009000:	20009ea4 	.word	0x20009ea4
10009004:	50100000 	.word	0x50100000
10009008:	50100080 	.word	0x50100080
1000900c:	50100100 	.word	0x50100100

10009010 <dcd_edpt_close_all>:
10009010:	2300      	movs	r3, #0
10009012:	4a1c      	ldr	r2, [pc, #112]	; (10009084 <dcd_edpt_close_all+0x74>)
10009014:	b510      	push	{r4, lr}
10009016:	6093      	str	r3, [r2, #8]
10009018:	60d3      	str	r3, [r2, #12]
1000901a:	4a1b      	ldr	r2, [pc, #108]	; (10009088 <dcd_edpt_close_all+0x78>)
1000901c:	2100      	movs	r1, #0
1000901e:	6093      	str	r3, [r2, #8]
10009020:	60d3      	str	r3, [r2, #12]
10009022:	4a1a      	ldr	r2, [pc, #104]	; (1000908c <dcd_edpt_close_all+0x7c>)
10009024:	481a      	ldr	r0, [pc, #104]	; (10009090 <dcd_edpt_close_all+0x80>)
10009026:	6093      	str	r3, [r2, #8]
10009028:	60d3      	str	r3, [r2, #12]
1000902a:	4a1a      	ldr	r2, [pc, #104]	; (10009094 <dcd_edpt_close_all+0x84>)
1000902c:	6093      	str	r3, [r2, #8]
1000902e:	60d3      	str	r3, [r2, #12]
10009030:	4a19      	ldr	r2, [pc, #100]	; (10009098 <dcd_edpt_close_all+0x88>)
10009032:	6093      	str	r3, [r2, #8]
10009034:	60d3      	str	r3, [r2, #12]
10009036:	4a19      	ldr	r2, [pc, #100]	; (1000909c <dcd_edpt_close_all+0x8c>)
10009038:	6093      	str	r3, [r2, #8]
1000903a:	60d3      	str	r3, [r2, #12]
1000903c:	4a18      	ldr	r2, [pc, #96]	; (100090a0 <dcd_edpt_close_all+0x90>)
1000903e:	6093      	str	r3, [r2, #8]
10009040:	60d3      	str	r3, [r2, #12]
10009042:	4a18      	ldr	r2, [pc, #96]	; (100090a4 <dcd_edpt_close_all+0x94>)
10009044:	6093      	str	r3, [r2, #8]
10009046:	60d3      	str	r3, [r2, #12]
10009048:	4a17      	ldr	r2, [pc, #92]	; (100090a8 <dcd_edpt_close_all+0x98>)
1000904a:	6093      	str	r3, [r2, #8]
1000904c:	60d3      	str	r3, [r2, #12]
1000904e:	4a17      	ldr	r2, [pc, #92]	; (100090ac <dcd_edpt_close_all+0x9c>)
10009050:	6093      	str	r3, [r2, #8]
10009052:	60d3      	str	r3, [r2, #12]
10009054:	4a16      	ldr	r2, [pc, #88]	; (100090b0 <dcd_edpt_close_all+0xa0>)
10009056:	6093      	str	r3, [r2, #8]
10009058:	60d3      	str	r3, [r2, #12]
1000905a:	4a16      	ldr	r2, [pc, #88]	; (100090b4 <dcd_edpt_close_all+0xa4>)
1000905c:	6093      	str	r3, [r2, #8]
1000905e:	60d3      	str	r3, [r2, #12]
10009060:	4a15      	ldr	r2, [pc, #84]	; (100090b8 <dcd_edpt_close_all+0xa8>)
10009062:	6093      	str	r3, [r2, #8]
10009064:	60d3      	str	r3, [r2, #12]
10009066:	4a15      	ldr	r2, [pc, #84]	; (100090bc <dcd_edpt_close_all+0xac>)
10009068:	6093      	str	r3, [r2, #8]
1000906a:	60d3      	str	r3, [r2, #12]
1000906c:	4a14      	ldr	r2, [pc, #80]	; (100090c0 <dcd_edpt_close_all+0xb0>)
1000906e:	6093      	str	r3, [r2, #8]
10009070:	60d3      	str	r3, [r2, #12]
10009072:	22f0      	movs	r2, #240	; 0xf0
10009074:	0092      	lsls	r2, r2, #2
10009076:	f7ff f989 	bl	1000838c <__wrap_memset>
1000907a:	4b12      	ldr	r3, [pc, #72]	; (100090c4 <dcd_edpt_close_all+0xb4>)
1000907c:	4a12      	ldr	r2, [pc, #72]	; (100090c8 <dcd_edpt_close_all+0xb8>)
1000907e:	601a      	str	r2, [r3, #0]
10009080:	bd10      	pop	{r4, pc}
10009082:	46c0      	nop			; (mov r8, r8)
10009084:	50100000 	.word	0x50100000
10009088:	50100008 	.word	0x50100008
1000908c:	50100010 	.word	0x50100010
10009090:	20009abc 	.word	0x20009abc
10009094:	50100018 	.word	0x50100018
10009098:	50100020 	.word	0x50100020
1000909c:	50100028 	.word	0x50100028
100090a0:	50100030 	.word	0x50100030
100090a4:	50100038 	.word	0x50100038
100090a8:	50100040 	.word	0x50100040
100090ac:	50100048 	.word	0x50100048
100090b0:	50100050 	.word	0x50100050
100090b4:	50100058 	.word	0x50100058
100090b8:	50100060 	.word	0x50100060
100090bc:	50100068 	.word	0x50100068
100090c0:	50100070 	.word	0x50100070
100090c4:	20009ea4 	.word	0x20009ea4
100090c8:	50100180 	.word	0x50100180

100090cc <dcd_edpt_xfer>:
100090cc:	b510      	push	{r4, lr}
100090ce:	207f      	movs	r0, #127	; 0x7f
100090d0:	000c      	movs	r4, r1
100090d2:	4020      	ands	r0, r4
100090d4:	0040      	lsls	r0, r0, #1
100090d6:	09e4      	lsrs	r4, r4, #7
100090d8:	0011      	movs	r1, r2
100090da:	1900      	adds	r0, r0, r4
100090dc:	001a      	movs	r2, r3
100090de:	4b03      	ldr	r3, [pc, #12]	; (100090ec <dcd_edpt_xfer+0x20>)
100090e0:	0140      	lsls	r0, r0, #5
100090e2:	18c0      	adds	r0, r0, r3
100090e4:	f000 f894 	bl	10009210 <hw_endpoint_xfer_start>
100090e8:	2001      	movs	r0, #1
100090ea:	bd10      	pop	{r4, pc}
100090ec:	20009a7c 	.word	0x20009a7c

100090f0 <dcd_edpt_stall>:
100090f0:	227f      	movs	r2, #127	; 0x7f
100090f2:	0013      	movs	r3, r2
100090f4:	b510      	push	{r4, lr}
100090f6:	400b      	ands	r3, r1
100090f8:	420a      	tst	r2, r1
100090fa:	d00b      	beq.n	10009114 <dcd_edpt_stall+0x24>
100090fc:	09c9      	lsrs	r1, r1, #7
100090fe:	2280      	movs	r2, #128	; 0x80
10009100:	0058      	lsls	r0, r3, #1
10009102:	1840      	adds	r0, r0, r1
10009104:	4906      	ldr	r1, [pc, #24]	; (10009120 <dcd_edpt_stall+0x30>)
10009106:	0140      	lsls	r0, r0, #5
10009108:	1840      	adds	r0, r0, r1
1000910a:	0112      	lsls	r2, r2, #4
1000910c:	2100      	movs	r1, #0
1000910e:	f000 f85d 	bl	100091cc <_hw_endpoint_buffer_control_update32>
10009112:	bd10      	pop	{r4, pc}
10009114:	2202      	movs	r2, #2
10009116:	4803      	ldr	r0, [pc, #12]	; (10009124 <dcd_edpt_stall+0x34>)
10009118:	09c9      	lsrs	r1, r1, #7
1000911a:	1a52      	subs	r2, r2, r1
1000911c:	6682      	str	r2, [r0, #104]	; 0x68
1000911e:	e7ee      	b.n	100090fe <dcd_edpt_stall+0xe>
10009120:	20009a7c 	.word	0x20009a7c
10009124:	50112000 	.word	0x50112000

10009128 <dcd_edpt_clear_stall>:
10009128:	227f      	movs	r2, #127	; 0x7f
1000912a:	0010      	movs	r0, r2
1000912c:	b510      	push	{r4, lr}
1000912e:	4008      	ands	r0, r1
10009130:	420a      	tst	r2, r1
10009132:	d100      	bne.n	10009136 <dcd_edpt_clear_stall+0xe>
10009134:	bd10      	pop	{r4, pc}
10009136:	2300      	movs	r3, #0
10009138:	09c9      	lsrs	r1, r1, #7
1000913a:	0040      	lsls	r0, r0, #1
1000913c:	1840      	adds	r0, r0, r1
1000913e:	4904      	ldr	r1, [pc, #16]	; (10009150 <dcd_edpt_clear_stall+0x28>)
10009140:	0140      	lsls	r0, r0, #5
10009142:	1808      	adds	r0, r1, r0
10009144:	2200      	movs	r2, #0
10009146:	4903      	ldr	r1, [pc, #12]	; (10009154 <dcd_edpt_clear_stall+0x2c>)
10009148:	70c3      	strb	r3, [r0, #3]
1000914a:	f000 f83f 	bl	100091cc <_hw_endpoint_buffer_control_update32>
1000914e:	e7f1      	b.n	10009134 <dcd_edpt_clear_stall+0xc>
10009150:	20009a7c 	.word	0x20009a7c
10009154:	fffff7ff 	.word	0xfffff7ff

10009158 <_hw_endpoint_buffer_control_update32.part.0.isra.0>:
10009158:	217f      	movs	r1, #127	; 0x7f
1000915a:	09c3      	lsrs	r3, r0, #7
1000915c:	4a03      	ldr	r2, [pc, #12]	; (1000916c <_hw_endpoint_buffer_control_update32.part.0.isra.0+0x14>)
1000915e:	009b      	lsls	r3, r3, #2
10009160:	4001      	ands	r1, r0
10009162:	b510      	push	{r4, lr}
10009164:	589a      	ldr	r2, [r3, r2]
10009166:	4802      	ldr	r0, [pc, #8]	; (10009170 <_hw_endpoint_buffer_control_update32.part.0.isra.0+0x18>)
10009168:	f7fc fcf4 	bl	10005b54 <panic>
1000916c:	20000444 	.word	0x20000444
10009170:	1000b850 	.word	0x1000b850

10009174 <rp2040_usb_init>:
10009174:	2280      	movs	r2, #128	; 0x80
10009176:	4b0d      	ldr	r3, [pc, #52]	; (100091ac <rp2040_usb_init+0x38>)
10009178:	0452      	lsls	r2, r2, #17
1000917a:	b510      	push	{r4, lr}
1000917c:	601a      	str	r2, [r3, #0]
1000917e:	4b0c      	ldr	r3, [pc, #48]	; (100091b0 <rp2040_usb_init+0x3c>)
10009180:	490c      	ldr	r1, [pc, #48]	; (100091b4 <rp2040_usb_init+0x40>)
10009182:	601a      	str	r2, [r3, #0]
10009184:	0010      	movs	r0, r2
10009186:	688b      	ldr	r3, [r1, #8]
10009188:	4398      	bics	r0, r3
1000918a:	d1fb      	bne.n	10009184 <rp2040_usb_init+0x10>
1000918c:	4c0a      	ldr	r4, [pc, #40]	; (100091b8 <rp2040_usb_init+0x44>)
1000918e:	229c      	movs	r2, #156	; 0x9c
10009190:	2100      	movs	r1, #0
10009192:	0020      	movs	r0, r4
10009194:	f7ff f8fa 	bl	1000838c <__wrap_memset>
10009198:	2280      	movs	r2, #128	; 0x80
1000919a:	2100      	movs	r1, #0
1000919c:	0152      	lsls	r2, r2, #5
1000919e:	4807      	ldr	r0, [pc, #28]	; (100091bc <rp2040_usb_init+0x48>)
100091a0:	f7ff f8f4 	bl	1000838c <__wrap_memset>
100091a4:	2309      	movs	r3, #9
100091a6:	6763      	str	r3, [r4, #116]	; 0x74
100091a8:	bd10      	pop	{r4, pc}
100091aa:	46c0      	nop			; (mov r8, r8)
100091ac:	4000e000 	.word	0x4000e000
100091b0:	4000f000 	.word	0x4000f000
100091b4:	4000c000 	.word	0x4000c000
100091b8:	50110000 	.word	0x50110000
100091bc:	50100000 	.word	0x50100000

100091c0 <hw_endpoint_reset_transfer>:
100091c0:	2300      	movs	r3, #0
100091c2:	7403      	strb	r3, [r0, #16]
100091c4:	8243      	strh	r3, [r0, #18]
100091c6:	8283      	strh	r3, [r0, #20]
100091c8:	6183      	str	r3, [r0, #24]
100091ca:	4770      	bx	lr

100091cc <_hw_endpoint_buffer_control_update32>:
100091cc:	b510      	push	{r4, lr}
100091ce:	6883      	ldr	r3, [r0, #8]
100091d0:	2900      	cmp	r1, #0
100091d2:	d001      	beq.n	100091d8 <_hw_endpoint_buffer_control_update32+0xc>
100091d4:	681c      	ldr	r4, [r3, #0]
100091d6:	4021      	ands	r1, r4
100091d8:	2a00      	cmp	r2, #0
100091da:	d011      	beq.n	10009200 <_hw_endpoint_buffer_control_update32+0x34>
100091dc:	2480      	movs	r4, #128	; 0x80
100091de:	00e4      	lsls	r4, r4, #3
100091e0:	4311      	orrs	r1, r2
100091e2:	4222      	tst	r2, r4
100091e4:	d00c      	beq.n	10009200 <_hw_endpoint_buffer_control_update32+0x34>
100091e6:	681a      	ldr	r2, [r3, #0]
100091e8:	4222      	tst	r2, r4
100091ea:	d10b      	bne.n	10009204 <_hw_endpoint_buffer_control_update32+0x38>
100091ec:	4a07      	ldr	r2, [pc, #28]	; (1000920c <_hw_endpoint_buffer_control_update32+0x40>)
100091ee:	400a      	ands	r2, r1
100091f0:	601a      	str	r2, [r3, #0]
100091f2:	e7ff      	b.n	100091f4 <_hw_endpoint_buffer_control_update32+0x28>
100091f4:	e7ff      	b.n	100091f6 <_hw_endpoint_buffer_control_update32+0x2a>
100091f6:	e7ff      	b.n	100091f8 <_hw_endpoint_buffer_control_update32+0x2c>
100091f8:	e7ff      	b.n	100091fa <_hw_endpoint_buffer_control_update32+0x2e>
100091fa:	e7ff      	b.n	100091fc <_hw_endpoint_buffer_control_update32+0x30>
100091fc:	e7ff      	b.n	100091fe <_hw_endpoint_buffer_control_update32+0x32>
100091fe:	6883      	ldr	r3, [r0, #8]
10009200:	6019      	str	r1, [r3, #0]
10009202:	bd10      	pop	{r4, pc}
10009204:	7880      	ldrb	r0, [r0, #2]
10009206:	f7ff ffa7 	bl	10009158 <_hw_endpoint_buffer_control_update32.part.0.isra.0>
1000920a:	46c0      	nop			; (mov r8, r8)
1000920c:	fffffbff 	.word	0xfffffbff

10009210 <hw_endpoint_xfer_start>:
10009210:	b5f0      	push	{r4, r5, r6, r7, lr}
10009212:	46c6      	mov	lr, r8
10009214:	2300      	movs	r3, #0
10009216:	b500      	push	{lr}
10009218:	8283      	strh	r3, [r0, #20]
1000921a:	3301      	adds	r3, #1
1000921c:	7403      	strb	r3, [r0, #16]
1000921e:	6843      	ldr	r3, [r0, #4]
10009220:	0004      	movs	r4, r0
10009222:	681e      	ldr	r6, [r3, #0]
10009224:	8b83      	ldrh	r3, [r0, #28]
10009226:	6181      	str	r1, [r0, #24]
10009228:	1c1f      	adds	r7, r3, #0
1000922a:	4293      	cmp	r3, r2
1000922c:	d900      	bls.n	10009230 <hw_endpoint_xfer_start+0x20>
1000922e:	1c17      	adds	r7, r2, #0
10009230:	2580      	movs	r5, #128	; 0x80
10009232:	b2bf      	uxth	r7, r7
10009234:	1bd2      	subs	r2, r2, r7
10009236:	b293      	uxth	r3, r2
10009238:	78e2      	ldrb	r2, [r4, #3]
1000923a:	00ed      	lsls	r5, r5, #3
1000923c:	8263      	strh	r3, [r4, #18]
1000923e:	433d      	orrs	r5, r7
10009240:	2a00      	cmp	r2, #0
10009242:	d002      	beq.n	1000924a <hw_endpoint_xfer_start+0x3a>
10009244:	2590      	movs	r5, #144	; 0x90
10009246:	01ad      	lsls	r5, r5, #6
10009248:	433d      	orrs	r5, r7
1000924a:	2001      	movs	r0, #1
1000924c:	4042      	eors	r2, r0
1000924e:	70e2      	strb	r2, [r4, #3]
10009250:	7862      	ldrb	r2, [r4, #1]
10009252:	2a00      	cmp	r2, #0
10009254:	d051      	beq.n	100092fa <hw_endpoint_xfer_start+0xea>
10009256:	2b00      	cmp	r3, #0
10009258:	d11d      	bne.n	10009296 <hw_endpoint_xfer_start+0x86>
1000925a:	23a0      	movs	r3, #160	; 0xa0
1000925c:	01db      	lsls	r3, r3, #7
1000925e:	431d      	orrs	r5, r3
10009260:	4b35      	ldr	r3, [pc, #212]	; (10009338 <hw_endpoint_xfer_start+0x128>)
10009262:	6c1b      	ldr	r3, [r3, #64]	; 0x40
10009264:	4b35      	ldr	r3, [pc, #212]	; (1000933c <hw_endpoint_xfer_start+0x12c>)
10009266:	4033      	ands	r3, r6
10009268:	2680      	movs	r6, #128	; 0x80
1000926a:	05b6      	lsls	r6, r6, #22
1000926c:	431e      	orrs	r6, r3
1000926e:	6863      	ldr	r3, [r4, #4]
10009270:	68a2      	ldr	r2, [r4, #8]
10009272:	601e      	str	r6, [r3, #0]
10009274:	6813      	ldr	r3, [r2, #0]
10009276:	055b      	lsls	r3, r3, #21
10009278:	d45a      	bmi.n	10009330 <hw_endpoint_xfer_start+0x120>
1000927a:	4b31      	ldr	r3, [pc, #196]	; (10009340 <hw_endpoint_xfer_start+0x130>)
1000927c:	402b      	ands	r3, r5
1000927e:	6013      	str	r3, [r2, #0]
10009280:	e7ff      	b.n	10009282 <hw_endpoint_xfer_start+0x72>
10009282:	e7ff      	b.n	10009284 <hw_endpoint_xfer_start+0x74>
10009284:	e7ff      	b.n	10009286 <hw_endpoint_xfer_start+0x76>
10009286:	e7ff      	b.n	10009288 <hw_endpoint_xfer_start+0x78>
10009288:	e7ff      	b.n	1000928a <hw_endpoint_xfer_start+0x7a>
1000928a:	e7ff      	b.n	1000928c <hw_endpoint_xfer_start+0x7c>
1000928c:	68a3      	ldr	r3, [r4, #8]
1000928e:	601d      	str	r5, [r3, #0]
10009290:	bc80      	pop	{r7}
10009292:	46b8      	mov	r8, r7
10009294:	bdf0      	pop	{r4, r5, r6, r7, pc}
10009296:	2280      	movs	r2, #128	; 0x80
10009298:	0152      	lsls	r2, r2, #5
1000929a:	4315      	orrs	r5, r2
1000929c:	4a26      	ldr	r2, [pc, #152]	; (10009338 <hw_endpoint_xfer_start+0x128>)
1000929e:	6c12      	ldr	r2, [r2, #64]	; 0x40
100092a0:	0792      	lsls	r2, r2, #30
100092a2:	d403      	bmi.n	100092ac <hw_endpoint_xfer_start+0x9c>
100092a4:	78a2      	ldrb	r2, [r4, #2]
100092a6:	09d2      	lsrs	r2, r2, #7
100092a8:	2a01      	cmp	r2, #1
100092aa:	d1db      	bne.n	10009264 <hw_endpoint_xfer_start+0x54>
100092ac:	8ba2      	ldrh	r2, [r4, #28]
100092ae:	1c11      	adds	r1, r2, #0
100092b0:	429a      	cmp	r2, r3
100092b2:	d900      	bls.n	100092b6 <hw_endpoint_xfer_start+0xa6>
100092b4:	1c19      	adds	r1, r3, #0
100092b6:	2780      	movs	r7, #128	; 0x80
100092b8:	b28a      	uxth	r2, r1
100092ba:	00ff      	lsls	r7, r7, #3
100092bc:	1a9b      	subs	r3, r3, r2
100092be:	4690      	mov	r8, r2
100092c0:	4317      	orrs	r7, r2
100092c2:	78e2      	ldrb	r2, [r4, #3]
100092c4:	b29b      	uxth	r3, r3
100092c6:	8263      	strh	r3, [r4, #18]
100092c8:	2a00      	cmp	r2, #0
100092ca:	d003      	beq.n	100092d4 <hw_endpoint_xfer_start+0xc4>
100092cc:	2790      	movs	r7, #144	; 0x90
100092ce:	4641      	mov	r1, r8
100092d0:	01bf      	lsls	r7, r7, #6
100092d2:	430f      	orrs	r7, r1
100092d4:	2101      	movs	r1, #1
100092d6:	404a      	eors	r2, r1
100092d8:	70e2      	strb	r2, [r4, #3]
100092da:	7862      	ldrb	r2, [r4, #1]
100092dc:	2a00      	cmp	r2, #0
100092de:	d019      	beq.n	10009314 <hw_endpoint_xfer_start+0x104>
100092e0:	2b00      	cmp	r3, #0
100092e2:	d102      	bne.n	100092ea <hw_endpoint_xfer_start+0xda>
100092e4:	2380      	movs	r3, #128	; 0x80
100092e6:	01db      	lsls	r3, r3, #7
100092e8:	431f      	orrs	r7, r3
100092ea:	4b16      	ldr	r3, [pc, #88]	; (10009344 <hw_endpoint_xfer_start+0x134>)
100092ec:	043f      	lsls	r7, r7, #16
100092ee:	4033      	ands	r3, r6
100092f0:	26a0      	movs	r6, #160	; 0xa0
100092f2:	05f6      	lsls	r6, r6, #23
100092f4:	433d      	orrs	r5, r7
100092f6:	431e      	orrs	r6, r3
100092f8:	e7b9      	b.n	1000926e <hw_endpoint_xfer_start+0x5e>
100092fa:	003a      	movs	r2, r7
100092fc:	68e0      	ldr	r0, [r4, #12]
100092fe:	f7ff f84b 	bl	10008398 <__wrap___aeabi_memcpy>
10009302:	69a3      	ldr	r3, [r4, #24]
10009304:	469c      	mov	ip, r3
10009306:	2380      	movs	r3, #128	; 0x80
10009308:	4467      	add	r7, ip
1000930a:	021b      	lsls	r3, r3, #8
1000930c:	431d      	orrs	r5, r3
1000930e:	61a7      	str	r7, [r4, #24]
10009310:	8a63      	ldrh	r3, [r4, #18]
10009312:	e7a0      	b.n	10009256 <hw_endpoint_xfer_start+0x46>
10009314:	68e0      	ldr	r0, [r4, #12]
10009316:	4642      	mov	r2, r8
10009318:	69a1      	ldr	r1, [r4, #24]
1000931a:	3040      	adds	r0, #64	; 0x40
1000931c:	f7ff f83c 	bl	10008398 <__wrap___aeabi_memcpy>
10009320:	69a3      	ldr	r3, [r4, #24]
10009322:	4443      	add	r3, r8
10009324:	61a3      	str	r3, [r4, #24]
10009326:	2380      	movs	r3, #128	; 0x80
10009328:	021b      	lsls	r3, r3, #8
1000932a:	431f      	orrs	r7, r3
1000932c:	8a63      	ldrh	r3, [r4, #18]
1000932e:	e7d7      	b.n	100092e0 <hw_endpoint_xfer_start+0xd0>
10009330:	78a0      	ldrb	r0, [r4, #2]
10009332:	f7ff ff11 	bl	10009158 <_hw_endpoint_buffer_control_update32.part.0.isra.0>
10009336:	46c0      	nop			; (mov r8, r8)
10009338:	50110000 	.word	0x50110000
1000933c:	afffffff 	.word	0xafffffff
10009340:	fffffbff 	.word	0xfffffbff
10009344:	dfffffff 	.word	0xdfffffff

10009348 <hw_endpoint_xfer_continue>:
10009348:	b5f0      	push	{r4, r5, r6, r7, lr}
1000934a:	46c6      	mov	lr, r8
1000934c:	b500      	push	{lr}
1000934e:	7c06      	ldrb	r6, [r0, #16]
10009350:	0004      	movs	r4, r0
10009352:	2e00      	cmp	r6, #0
10009354:	d100      	bne.n	10009358 <hw_endpoint_xfer_continue+0x10>
10009356:	e0d3      	b.n	10009500 <hw_endpoint_xfer_continue+0x1b8>
10009358:	6883      	ldr	r3, [r0, #8]
1000935a:	681a      	ldr	r2, [r3, #0]
1000935c:	681d      	ldr	r5, [r3, #0]
1000935e:	7843      	ldrb	r3, [r0, #1]
10009360:	05ad      	lsls	r5, r5, #22
10009362:	0dad      	lsrs	r5, r5, #22
10009364:	2b00      	cmp	r3, #0
10009366:	d151      	bne.n	1000940c <hw_endpoint_xfer_continue+0xc4>
10009368:	8a83      	ldrh	r3, [r0, #20]
1000936a:	18eb      	adds	r3, r5, r3
1000936c:	b29b      	uxth	r3, r3
1000936e:	8283      	strh	r3, [r0, #20]
10009370:	8ba1      	ldrh	r1, [r4, #28]
10009372:	428d      	cmp	r5, r1
10009374:	d207      	bcs.n	10009386 <hw_endpoint_xfer_continue+0x3e>
10009376:	2300      	movs	r3, #0
10009378:	8263      	strh	r3, [r4, #18]
1000937a:	6863      	ldr	r3, [r4, #4]
1000937c:	681b      	ldr	r3, [r3, #0]
1000937e:	0030      	movs	r0, r6
10009380:	bc80      	pop	{r7}
10009382:	46b8      	mov	r8, r7
10009384:	bdf0      	pop	{r4, r5, r6, r7, pc}
10009386:	6862      	ldr	r2, [r4, #4]
10009388:	6812      	ldr	r2, [r2, #0]
1000938a:	0052      	lsls	r2, r2, #1
1000938c:	d502      	bpl.n	10009394 <hw_endpoint_xfer_continue+0x4c>
1000938e:	428d      	cmp	r5, r1
10009390:	d100      	bne.n	10009394 <hw_endpoint_xfer_continue+0x4c>
10009392:	e075      	b.n	10009480 <hw_endpoint_xfer_continue+0x138>
10009394:	8a63      	ldrh	r3, [r4, #18]
10009396:	2b00      	cmp	r3, #0
10009398:	d0f1      	beq.n	1000937e <hw_endpoint_xfer_continue+0x36>
1000939a:	6862      	ldr	r2, [r4, #4]
1000939c:	1c1f      	adds	r7, r3, #0
1000939e:	6816      	ldr	r6, [r2, #0]
100093a0:	428b      	cmp	r3, r1
100093a2:	d900      	bls.n	100093a6 <hw_endpoint_xfer_continue+0x5e>
100093a4:	1c0f      	adds	r7, r1, #0
100093a6:	2580      	movs	r5, #128	; 0x80
100093a8:	b2bf      	uxth	r7, r7
100093aa:	1bdb      	subs	r3, r3, r7
100093ac:	78e2      	ldrb	r2, [r4, #3]
100093ae:	b29b      	uxth	r3, r3
100093b0:	00ed      	lsls	r5, r5, #3
100093b2:	8263      	strh	r3, [r4, #18]
100093b4:	433d      	orrs	r5, r7
100093b6:	2a00      	cmp	r2, #0
100093b8:	d002      	beq.n	100093c0 <hw_endpoint_xfer_continue+0x78>
100093ba:	2590      	movs	r5, #144	; 0x90
100093bc:	01ad      	lsls	r5, r5, #6
100093be:	433d      	orrs	r5, r7
100093c0:	2101      	movs	r1, #1
100093c2:	404a      	eors	r2, r1
100093c4:	70e2      	strb	r2, [r4, #3]
100093c6:	7862      	ldrb	r2, [r4, #1]
100093c8:	2a00      	cmp	r2, #0
100093ca:	d068      	beq.n	1000949e <hw_endpoint_xfer_continue+0x156>
100093cc:	2b00      	cmp	r3, #0
100093ce:	d12a      	bne.n	10009426 <hw_endpoint_xfer_continue+0xde>
100093d0:	23a0      	movs	r3, #160	; 0xa0
100093d2:	01db      	lsls	r3, r3, #7
100093d4:	431d      	orrs	r5, r3
100093d6:	4b4f      	ldr	r3, [pc, #316]	; (10009514 <hw_endpoint_xfer_continue+0x1cc>)
100093d8:	6c1b      	ldr	r3, [r3, #64]	; 0x40
100093da:	4b4f      	ldr	r3, [pc, #316]	; (10009518 <hw_endpoint_xfer_continue+0x1d0>)
100093dc:	4033      	ands	r3, r6
100093de:	2680      	movs	r6, #128	; 0x80
100093e0:	05b6      	lsls	r6, r6, #22
100093e2:	431e      	orrs	r6, r3
100093e4:	6863      	ldr	r3, [r4, #4]
100093e6:	68a2      	ldr	r2, [r4, #8]
100093e8:	601e      	str	r6, [r3, #0]
100093ea:	6813      	ldr	r3, [r2, #0]
100093ec:	055b      	lsls	r3, r3, #21
100093ee:	d500      	bpl.n	100093f2 <hw_endpoint_xfer_continue+0xaa>
100093f0:	e08d      	b.n	1000950e <hw_endpoint_xfer_continue+0x1c6>
100093f2:	4b4a      	ldr	r3, [pc, #296]	; (1000951c <hw_endpoint_xfer_continue+0x1d4>)
100093f4:	402b      	ands	r3, r5
100093f6:	6013      	str	r3, [r2, #0]
100093f8:	e7ff      	b.n	100093fa <hw_endpoint_xfer_continue+0xb2>
100093fa:	e7ff      	b.n	100093fc <hw_endpoint_xfer_continue+0xb4>
100093fc:	e7ff      	b.n	100093fe <hw_endpoint_xfer_continue+0xb6>
100093fe:	e7ff      	b.n	10009400 <hw_endpoint_xfer_continue+0xb8>
10009400:	e7ff      	b.n	10009402 <hw_endpoint_xfer_continue+0xba>
10009402:	e7ff      	b.n	10009404 <hw_endpoint_xfer_continue+0xbc>
10009404:	68a3      	ldr	r3, [r4, #8]
10009406:	2600      	movs	r6, #0
10009408:	601d      	str	r5, [r3, #0]
1000940a:	e7b8      	b.n	1000937e <hw_endpoint_xfer_continue+0x36>
1000940c:	002a      	movs	r2, r5
1000940e:	68c1      	ldr	r1, [r0, #12]
10009410:	6980      	ldr	r0, [r0, #24]
10009412:	f7fe ffc1 	bl	10008398 <__wrap___aeabi_memcpy>
10009416:	8aa3      	ldrh	r3, [r4, #20]
10009418:	69a2      	ldr	r2, [r4, #24]
1000941a:	18eb      	adds	r3, r5, r3
1000941c:	b29b      	uxth	r3, r3
1000941e:	1952      	adds	r2, r2, r5
10009420:	82a3      	strh	r3, [r4, #20]
10009422:	61a2      	str	r2, [r4, #24]
10009424:	e7a4      	b.n	10009370 <hw_endpoint_xfer_continue+0x28>
10009426:	2280      	movs	r2, #128	; 0x80
10009428:	0152      	lsls	r2, r2, #5
1000942a:	4315      	orrs	r5, r2
1000942c:	4a39      	ldr	r2, [pc, #228]	; (10009514 <hw_endpoint_xfer_continue+0x1cc>)
1000942e:	6c12      	ldr	r2, [r2, #64]	; 0x40
10009430:	0792      	lsls	r2, r2, #30
10009432:	d403      	bmi.n	1000943c <hw_endpoint_xfer_continue+0xf4>
10009434:	78a2      	ldrb	r2, [r4, #2]
10009436:	09d2      	lsrs	r2, r2, #7
10009438:	2a01      	cmp	r2, #1
1000943a:	d1ce      	bne.n	100093da <hw_endpoint_xfer_continue+0x92>
1000943c:	8ba2      	ldrh	r2, [r4, #28]
1000943e:	1c11      	adds	r1, r2, #0
10009440:	429a      	cmp	r2, r3
10009442:	d83f      	bhi.n	100094c4 <hw_endpoint_xfer_continue+0x17c>
10009444:	2780      	movs	r7, #128	; 0x80
10009446:	b28a      	uxth	r2, r1
10009448:	00ff      	lsls	r7, r7, #3
1000944a:	1a9b      	subs	r3, r3, r2
1000944c:	4690      	mov	r8, r2
1000944e:	4317      	orrs	r7, r2
10009450:	78e2      	ldrb	r2, [r4, #3]
10009452:	b29b      	uxth	r3, r3
10009454:	8263      	strh	r3, [r4, #18]
10009456:	2a00      	cmp	r2, #0
10009458:	d12f      	bne.n	100094ba <hw_endpoint_xfer_continue+0x172>
1000945a:	2101      	movs	r1, #1
1000945c:	404a      	eors	r2, r1
1000945e:	70e2      	strb	r2, [r4, #3]
10009460:	7862      	ldrb	r2, [r4, #1]
10009462:	2a00      	cmp	r2, #0
10009464:	d03e      	beq.n	100094e4 <hw_endpoint_xfer_continue+0x19c>
10009466:	2b00      	cmp	r3, #0
10009468:	d102      	bne.n	10009470 <hw_endpoint_xfer_continue+0x128>
1000946a:	2380      	movs	r3, #128	; 0x80
1000946c:	01db      	lsls	r3, r3, #7
1000946e:	431f      	orrs	r7, r3
10009470:	4b2b      	ldr	r3, [pc, #172]	; (10009520 <hw_endpoint_xfer_continue+0x1d8>)
10009472:	043f      	lsls	r7, r7, #16
10009474:	4033      	ands	r3, r6
10009476:	26a0      	movs	r6, #160	; 0xa0
10009478:	05f6      	lsls	r6, r6, #23
1000947a:	433d      	orrs	r5, r7
1000947c:	431e      	orrs	r6, r3
1000947e:	e7b1      	b.n	100093e4 <hw_endpoint_xfer_continue+0x9c>
10009480:	68a2      	ldr	r2, [r4, #8]
10009482:	6815      	ldr	r5, [r2, #0]
10009484:	7862      	ldrb	r2, [r4, #1]
10009486:	01ad      	lsls	r5, r5, #6
10009488:	0dad      	lsrs	r5, r5, #22
1000948a:	2a00      	cmp	r2, #0
1000948c:	d11c      	bne.n	100094c8 <hw_endpoint_xfer_continue+0x180>
1000948e:	18eb      	adds	r3, r5, r3
10009490:	82a3      	strh	r3, [r4, #20]
10009492:	428d      	cmp	r5, r1
10009494:	d300      	bcc.n	10009498 <hw_endpoint_xfer_continue+0x150>
10009496:	e77d      	b.n	10009394 <hw_endpoint_xfer_continue+0x4c>
10009498:	2300      	movs	r3, #0
1000949a:	8263      	strh	r3, [r4, #18]
1000949c:	e76f      	b.n	1000937e <hw_endpoint_xfer_continue+0x36>
1000949e:	003a      	movs	r2, r7
100094a0:	69a1      	ldr	r1, [r4, #24]
100094a2:	68e0      	ldr	r0, [r4, #12]
100094a4:	f7fe ff78 	bl	10008398 <__wrap___aeabi_memcpy>
100094a8:	69a3      	ldr	r3, [r4, #24]
100094aa:	469c      	mov	ip, r3
100094ac:	2380      	movs	r3, #128	; 0x80
100094ae:	4467      	add	r7, ip
100094b0:	021b      	lsls	r3, r3, #8
100094b2:	431d      	orrs	r5, r3
100094b4:	61a7      	str	r7, [r4, #24]
100094b6:	8a63      	ldrh	r3, [r4, #18]
100094b8:	e788      	b.n	100093cc <hw_endpoint_xfer_continue+0x84>
100094ba:	2790      	movs	r7, #144	; 0x90
100094bc:	4641      	mov	r1, r8
100094be:	01bf      	lsls	r7, r7, #6
100094c0:	430f      	orrs	r7, r1
100094c2:	e7ca      	b.n	1000945a <hw_endpoint_xfer_continue+0x112>
100094c4:	1c19      	adds	r1, r3, #0
100094c6:	e7bd      	b.n	10009444 <hw_endpoint_xfer_continue+0xfc>
100094c8:	68e1      	ldr	r1, [r4, #12]
100094ca:	002a      	movs	r2, r5
100094cc:	3140      	adds	r1, #64	; 0x40
100094ce:	69a0      	ldr	r0, [r4, #24]
100094d0:	f7fe ff62 	bl	10008398 <__wrap___aeabi_memcpy>
100094d4:	8aa3      	ldrh	r3, [r4, #20]
100094d6:	8ba1      	ldrh	r1, [r4, #28]
100094d8:	18eb      	adds	r3, r5, r3
100094da:	82a3      	strh	r3, [r4, #20]
100094dc:	69a3      	ldr	r3, [r4, #24]
100094de:	195b      	adds	r3, r3, r5
100094e0:	61a3      	str	r3, [r4, #24]
100094e2:	e7d6      	b.n	10009492 <hw_endpoint_xfer_continue+0x14a>
100094e4:	68e0      	ldr	r0, [r4, #12]
100094e6:	4642      	mov	r2, r8
100094e8:	69a1      	ldr	r1, [r4, #24]
100094ea:	3040      	adds	r0, #64	; 0x40
100094ec:	f7fe ff54 	bl	10008398 <__wrap___aeabi_memcpy>
100094f0:	69a3      	ldr	r3, [r4, #24]
100094f2:	4443      	add	r3, r8
100094f4:	61a3      	str	r3, [r4, #24]
100094f6:	2380      	movs	r3, #128	; 0x80
100094f8:	021b      	lsls	r3, r3, #8
100094fa:	431f      	orrs	r7, r3
100094fc:	8a63      	ldrh	r3, [r4, #18]
100094fe:	e7b2      	b.n	10009466 <hw_endpoint_xfer_continue+0x11e>
10009500:	237f      	movs	r3, #127	; 0x7f
10009502:	7881      	ldrb	r1, [r0, #2]
10009504:	4a07      	ldr	r2, [pc, #28]	; (10009524 <hw_endpoint_xfer_continue+0x1dc>)
10009506:	4808      	ldr	r0, [pc, #32]	; (10009528 <hw_endpoint_xfer_continue+0x1e0>)
10009508:	4019      	ands	r1, r3
1000950a:	f7fc fb23 	bl	10005b54 <panic>
1000950e:	78a0      	ldrb	r0, [r4, #2]
10009510:	f7ff fe22 	bl	10009158 <_hw_endpoint_buffer_control_update32.part.0.isra.0>
10009514:	50110000 	.word	0x50110000
10009518:	afffffff 	.word	0xafffffff
1000951c:	fffffbff 	.word	0xfffffbff
10009520:	dfffffff 	.word	0xdfffffff
10009524:	20000444 	.word	0x20000444
10009528:	1000b870 	.word	0x1000b870

1000952c <tud_mounted>:
1000952c:	4b02      	ldr	r3, [pc, #8]	; (10009538 <tud_mounted+0xc>)
1000952e:	7858      	ldrb	r0, [r3, #1]
10009530:	1e43      	subs	r3, r0, #1
10009532:	4198      	sbcs	r0, r3
10009534:	b2c0      	uxtb	r0, r0
10009536:	4770      	bx	lr
10009538:	20000f7c 	.word	0x20000f7c

1000953c <tud_suspended>:
1000953c:	4b02      	ldr	r3, [pc, #8]	; (10009548 <tud_suspended+0xc>)
1000953e:	7818      	ldrb	r0, [r3, #0]
10009540:	0740      	lsls	r0, r0, #29
10009542:	0fc0      	lsrs	r0, r0, #31
10009544:	4770      	bx	lr
10009546:	46c0      	nop			; (mov r8, r8)
10009548:	20000f7c 	.word	0x20000f7c

1000954c <tud_inited>:
1000954c:	4b01      	ldr	r3, [pc, #4]	; (10009554 <tud_inited+0x8>)
1000954e:	7818      	ldrb	r0, [r3, #0]
10009550:	4770      	bx	lr
10009552:	46c0      	nop			; (mov r8, r8)
10009554:	20012db9 	.word	0x20012db9

10009558 <tud_init>:
10009558:	b5f8      	push	{r3, r4, r5, r6, r7, lr}
1000955a:	4647      	mov	r7, r8
1000955c:	46ce      	mov	lr, r9
1000955e:	b580      	push	{r7, lr}
10009560:	4f29      	ldr	r7, [pc, #164]	; (10009608 <tud_init+0xb0>)
10009562:	0005      	movs	r5, r0
10009564:	783b      	ldrb	r3, [r7, #0]
10009566:	2b00      	cmp	r3, #0
10009568:	d004      	beq.n	10009574 <tud_init+0x1c>
1000956a:	2001      	movs	r0, #1
1000956c:	bcc0      	pop	{r6, r7}
1000956e:	46b9      	mov	r9, r7
10009570:	46b0      	mov	r8, r6
10009572:	bdf8      	pop	{r3, r4, r5, r6, r7, pc}
10009574:	2253      	movs	r2, #83	; 0x53
10009576:	2100      	movs	r1, #0
10009578:	4824      	ldr	r0, [pc, #144]	; (1000960c <tud_init+0xb4>)
1000957a:	f7fe ff07 	bl	1000838c <__wrap_memset>
1000957e:	4c24      	ldr	r4, [pc, #144]	; (10009610 <tud_init+0xb8>)
10009580:	0020      	movs	r0, r4
10009582:	f7f9 fd6d 	bl	10003060 <mutex_init>
10009586:	4b23      	ldr	r3, [pc, #140]	; (10009614 <tud_init+0xbc>)
10009588:	601c      	str	r4, [r3, #0]
1000958a:	4c23      	ldr	r4, [pc, #140]	; (10009618 <tud_init+0xc0>)
1000958c:	0020      	movs	r0, r4
1000958e:	301c      	adds	r0, #28
10009590:	f7f9 fd84 	bl	1000309c <critical_section_init>
10009594:	0020      	movs	r0, r4
10009596:	f001 fca1 	bl	1000aedc <tu_fifo_clear>
1000959a:	4b20      	ldr	r3, [pc, #128]	; (1000961c <tud_init+0xc4>)
1000959c:	4e20      	ldr	r6, [pc, #128]	; (10009620 <tud_init+0xc8>)
1000959e:	601c      	str	r4, [r3, #0]
100095a0:	4b20      	ldr	r3, [pc, #128]	; (10009624 <tud_init+0xcc>)
100095a2:	4698      	mov	r8, r3
100095a4:	2b00      	cmp	r3, #0
100095a6:	d004      	beq.n	100095b2 <tud_init+0x5a>
100095a8:	0030      	movs	r0, r6
100095aa:	f7ff f95d 	bl	10008868 <usbd_app_driver_get_cb>
100095ae:	4b1e      	ldr	r3, [pc, #120]	; (10009628 <tud_init+0xd0>)
100095b0:	6018      	str	r0, [r3, #0]
100095b2:	4642      	mov	r2, r8
100095b4:	2400      	movs	r4, #0
100095b6:	7833      	ldrb	r3, [r6, #0]
100095b8:	2a00      	cmp	r2, #0
100095ba:	d01d      	beq.n	100095f8 <tud_init+0xa0>
100095bc:	4a1b      	ldr	r2, [pc, #108]	; (1000962c <tud_init+0xd4>)
100095be:	4690      	mov	r8, r2
100095c0:	4a19      	ldr	r2, [pc, #100]	; (10009628 <tud_init+0xd0>)
100095c2:	4691      	mov	r9, r2
100095c4:	429c      	cmp	r4, r3
100095c6:	d310      	bcc.n	100095ea <tud_init+0x92>
100095c8:	d11b      	bne.n	10009602 <tud_init+0xaa>
100095ca:	4643      	mov	r3, r8
100095cc:	4798      	blx	r3
100095ce:	3401      	adds	r4, #1
100095d0:	7833      	ldrb	r3, [r6, #0]
100095d2:	b2e4      	uxtb	r4, r4
100095d4:	42a3      	cmp	r3, r4
100095d6:	d2f5      	bcs.n	100095c4 <tud_init+0x6c>
100095d8:	0028      	movs	r0, r5
100095da:	f7ff fbf1 	bl	10008dc0 <dcd_init>
100095de:	0028      	movs	r0, r5
100095e0:	f7ff fbd6 	bl	10008d90 <dcd_int_enable>
100095e4:	2301      	movs	r3, #1
100095e6:	703b      	strb	r3, [r7, #0]
100095e8:	e7bf      	b.n	1000956a <tud_init+0x12>
100095ea:	464a      	mov	r2, r9
100095ec:	0063      	lsls	r3, r4, #1
100095ee:	6812      	ldr	r2, [r2, #0]
100095f0:	191b      	adds	r3, r3, r4
100095f2:	00db      	lsls	r3, r3, #3
100095f4:	589b      	ldr	r3, [r3, r2]
100095f6:	e7e9      	b.n	100095cc <tud_init+0x74>
100095f8:	f001 f84a 	bl	1000a690 <cdcd_init>
100095fc:	7833      	ldrb	r3, [r6, #0]
100095fe:	2b00      	cmp	r3, #0
10009600:	d0ea      	beq.n	100095d8 <tud_init+0x80>
10009602:	2300      	movs	r3, #0
10009604:	681b      	ldr	r3, [r3, #0]
10009606:	deff      	udf	#255	; 0xff
10009608:	20012db9 	.word	0x20012db9
1000960c:	20000f7c 	.word	0x20000f7c
10009610:	20000f34 	.word	0x20000f34
10009614:	20000fd0 	.word	0x20000fd0
10009618:	2000044c 	.word	0x2000044c
1000961c:	20000fd4 	.word	0x20000fd4
10009620:	20012db8 	.word	0x20012db8
10009624:	10008869 	.word	0x10008869
10009628:	20000c44 	.word	0x20000c44
1000962c:	1000a691 	.word	0x1000a691

10009630 <tud_task>:
10009630:	b5f0      	push	{r4, r5, r6, r7, lr}
10009632:	46de      	mov	lr, fp
10009634:	4657      	mov	r7, sl
10009636:	464e      	mov	r6, r9
10009638:	4645      	mov	r5, r8
1000963a:	b5e0      	push	{r5, r6, r7, lr}
1000963c:	b08b      	sub	sp, #44	; 0x2c
1000963e:	f001 fa09 	bl	1000aa54 <tusb_inited>
10009642:	2800      	cmp	r0, #0
10009644:	d100      	bne.n	10009648 <tud_task+0x18>
10009646:	e144      	b.n	100098d2 <tud_task+0x2a2>
10009648:	4bc2      	ldr	r3, [pc, #776]	; (10009954 <tud_task+0x324>)
1000964a:	4ec3      	ldr	r6, [pc, #780]	; (10009958 <tud_task+0x328>)
1000964c:	469b      	mov	fp, r3
1000964e:	ac07      	add	r4, sp, #28
10009650:	6835      	ldr	r5, [r6, #0]
10009652:	69ea      	ldr	r2, [r5, #28]
10009654:	f3ef 8110 	mrs	r1, PRIMASK
10009658:	b672      	cpsid	i
1000965a:	6813      	ldr	r3, [r2, #0]
1000965c:	2b00      	cmp	r3, #0
1000965e:	d0fc      	beq.n	1000965a <tud_task+0x2a>
10009660:	f3bf 8f5f 	dmb	sy
10009664:	6229      	str	r1, [r5, #32]
10009666:	0028      	movs	r0, r5
10009668:	0021      	movs	r1, r4
1000966a:	f001 faab 	bl	1000abc4 <tu_fifo_read>
1000966e:	69ea      	ldr	r2, [r5, #28]
10009670:	6a2b      	ldr	r3, [r5, #32]
10009672:	f3bf 8f5f 	dmb	sy
10009676:	2100      	movs	r1, #0
10009678:	6011      	str	r1, [r2, #0]
1000967a:	f383 8810 	msr	PRIMASK, r3
1000967e:	2800      	cmp	r0, #0
10009680:	d100      	bne.n	10009684 <tud_task+0x54>
10009682:	e126      	b.n	100098d2 <tud_task+0x2a2>
10009684:	7863      	ldrb	r3, [r4, #1]
10009686:	2b08      	cmp	r3, #8
10009688:	d8e2      	bhi.n	10009650 <tud_task+0x20>
1000968a:	465a      	mov	r2, fp
1000968c:	009b      	lsls	r3, r3, #2
1000968e:	58d3      	ldr	r3, [r2, r3]
10009690:	469f      	mov	pc, r3
10009692:	6863      	ldr	r3, [r4, #4]
10009694:	2b00      	cmp	r3, #0
10009696:	d0db      	beq.n	10009650 <tud_task+0x20>
10009698:	68a0      	ldr	r0, [r4, #8]
1000969a:	4798      	blx	r3
1000969c:	e7d8      	b.n	10009650 <tud_task+0x20>
1000969e:	227f      	movs	r2, #127	; 0x7f
100096a0:	7921      	ldrb	r1, [r4, #4]
100096a2:	4bae      	ldr	r3, [pc, #696]	; (1000995c <tud_task+0x32c>)
100096a4:	400a      	ands	r2, r1
100096a6:	0055      	lsls	r5, r2, #1
100096a8:	09c8      	lsrs	r0, r1, #7
100096aa:	195b      	adds	r3, r3, r5
100096ac:	181b      	adds	r3, r3, r0
100096ae:	0018      	movs	r0, r3
100096b0:	2701      	movs	r7, #1
100096b2:	3030      	adds	r0, #48	; 0x30
100096b4:	78c5      	ldrb	r5, [r0, #3]
100096b6:	43bd      	bics	r5, r7
100096b8:	70c5      	strb	r5, [r0, #3]
100096ba:	78c5      	ldrb	r5, [r0, #3]
100096bc:	3703      	adds	r7, #3
100096be:	43bd      	bics	r5, r7
100096c0:	70c5      	strb	r5, [r0, #3]
100096c2:	2a00      	cmp	r2, #0
100096c4:	d100      	bne.n	100096c8 <tud_task+0x98>
100096c6:	e10b      	b.n	100098e0 <tud_task+0x2b0>
100096c8:	4aa5      	ldr	r2, [pc, #660]	; (10009960 <tud_task+0x330>)
100096ca:	7cdb      	ldrb	r3, [r3, #19]
100096cc:	2a00      	cmp	r2, #0
100096ce:	d006      	beq.n	100096de <tud_task+0xae>
100096d0:	4aa4      	ldr	r2, [pc, #656]	; (10009964 <tud_task+0x334>)
100096d2:	7812      	ldrb	r2, [r2, #0]
100096d4:	4293      	cmp	r3, r2
100096d6:	d200      	bcs.n	100096da <tud_task+0xaa>
100096d8:	e191      	b.n	100099fe <tud_task+0x3ce>
100096da:	1a9b      	subs	r3, r3, r2
100096dc:	b2db      	uxtb	r3, r3
100096de:	2b00      	cmp	r3, #0
100096e0:	d000      	beq.n	100096e4 <tud_task+0xb4>
100096e2:	e0f6      	b.n	100098d2 <tud_task+0x2a2>
100096e4:	4da0      	ldr	r5, [pc, #640]	; (10009968 <tud_task+0x338>)
100096e6:	7962      	ldrb	r2, [r4, #5]
100096e8:	7820      	ldrb	r0, [r4, #0]
100096ea:	68a3      	ldr	r3, [r4, #8]
100096ec:	47a8      	blx	r5
100096ee:	e7af      	b.n	10009650 <tud_task+0x20>
100096f0:	2201      	movs	r2, #1
100096f2:	4f9a      	ldr	r7, [pc, #616]	; (1000995c <tud_task+0x32c>)
100096f4:	2101      	movs	r1, #1
100096f6:	783b      	ldrb	r3, [r7, #0]
100096f8:	2004      	movs	r0, #4
100096fa:	4313      	orrs	r3, r2
100096fc:	703b      	strb	r3, [r7, #0]
100096fe:	2333      	movs	r3, #51	; 0x33
10009700:	5cfa      	ldrb	r2, [r7, r3]
10009702:	438a      	bics	r2, r1
10009704:	54fa      	strb	r2, [r7, r3]
10009706:	5cfa      	ldrb	r2, [r7, r3]
10009708:	4382      	bics	r2, r0
1000970a:	54fa      	strb	r2, [r7, r3]
1000970c:	3301      	adds	r3, #1
1000970e:	5cfa      	ldrb	r2, [r7, r3]
10009710:	438a      	bics	r2, r1
10009712:	54fa      	strb	r2, [r7, r3]
10009714:	5cfa      	ldrb	r2, [r7, r3]
10009716:	4382      	bics	r2, r0
10009718:	54fa      	strb	r2, [r7, r3]
1000971a:	7823      	ldrb	r3, [r4, #0]
1000971c:	2000      	movs	r0, #0
1000971e:	469a      	mov	sl, r3
10009720:	f000 fe66 	bl	1000a3f0 <usbd_control_set_complete_callback>
10009724:	2260      	movs	r2, #96	; 0x60
10009726:	7923      	ldrb	r3, [r4, #4]
10009728:	401a      	ands	r2, r3
1000972a:	2a60      	cmp	r2, #96	; 0x60
1000972c:	d00d      	beq.n	1000974a <tud_task+0x11a>
1000972e:	2a40      	cmp	r2, #64	; 0x40
10009730:	d100      	bne.n	10009734 <tud_task+0x104>
10009732:	e0f2      	b.n	1000991a <tud_task+0x2ea>
10009734:	06db      	lsls	r3, r3, #27
10009736:	0edb      	lsrs	r3, r3, #27
10009738:	2b01      	cmp	r3, #1
1000973a:	d100      	bne.n	1000973e <tud_task+0x10e>
1000973c:	e16a      	b.n	10009a14 <tud_task+0x3e4>
1000973e:	2b02      	cmp	r3, #2
10009740:	d100      	bne.n	10009744 <tud_task+0x114>
10009742:	e121      	b.n	10009988 <tud_task+0x358>
10009744:	2b00      	cmp	r3, #0
10009746:	d100      	bne.n	1000974a <tud_task+0x11a>
10009748:	e0f6      	b.n	10009938 <tud_task+0x308>
1000974a:	7820      	ldrb	r0, [r4, #0]
1000974c:	2100      	movs	r1, #0
1000974e:	f7ff fccf 	bl	100090f0 <dcd_edpt_stall>
10009752:	2180      	movs	r1, #128	; 0x80
10009754:	7820      	ldrb	r0, [r4, #0]
10009756:	f7ff fccb 	bl	100090f0 <dcd_edpt_stall>
1000975a:	e779      	b.n	10009650 <tud_task+0x20>
1000975c:	4b7f      	ldr	r3, [pc, #508]	; (1000995c <tud_task+0x32c>)
1000975e:	781b      	ldrb	r3, [r3, #0]
10009760:	07db      	lsls	r3, r3, #31
10009762:	d400      	bmi.n	10009766 <tud_task+0x136>
10009764:	e774      	b.n	10009650 <tud_task+0x20>
10009766:	4b81      	ldr	r3, [pc, #516]	; (1000996c <tud_task+0x33c>)
10009768:	2b00      	cmp	r3, #0
1000976a:	d100      	bne.n	1000976e <tud_task+0x13e>
1000976c:	e770      	b.n	10009650 <tud_task+0x20>
1000976e:	e000      	b.n	10009772 <tud_task+0x142>
10009770:	bf00      	nop
10009772:	e76d      	b.n	10009650 <tud_task+0x20>
10009774:	4b79      	ldr	r3, [pc, #484]	; (1000995c <tud_task+0x32c>)
10009776:	781a      	ldrb	r2, [r3, #0]
10009778:	07d2      	lsls	r2, r2, #31
1000977a:	d400      	bmi.n	1000977e <tud_task+0x14e>
1000977c:	e768      	b.n	10009650 <tud_task+0x20>
1000977e:	4a7c      	ldr	r2, [pc, #496]	; (10009970 <tud_task+0x340>)
10009780:	2a00      	cmp	r2, #0
10009782:	d100      	bne.n	10009786 <tud_task+0x156>
10009784:	e764      	b.n	10009650 <tud_task+0x20>
10009786:	7818      	ldrb	r0, [r3, #0]
10009788:	0700      	lsls	r0, r0, #28
1000978a:	0fc0      	lsrs	r0, r0, #31
1000978c:	e000      	b.n	10009790 <tud_task+0x160>
1000978e:	bf00      	nop
10009790:	e75e      	b.n	10009650 <tud_task+0x20>
10009792:	4d74      	ldr	r5, [pc, #464]	; (10009964 <tud_task+0x334>)
10009794:	4a72      	ldr	r2, [pc, #456]	; (10009960 <tud_task+0x330>)
10009796:	2700      	movs	r7, #0
10009798:	782b      	ldrb	r3, [r5, #0]
1000979a:	2a00      	cmp	r2, #0
1000979c:	d100      	bne.n	100097a0 <tud_task+0x170>
1000979e:	e0b6      	b.n	1000990e <tud_task+0x2de>
100097a0:	4a74      	ldr	r2, [pc, #464]	; (10009974 <tud_task+0x344>)
100097a2:	4690      	mov	r8, r2
100097a4:	429f      	cmp	r7, r3
100097a6:	d308      	bcc.n	100097ba <tud_task+0x18a>
100097a8:	429f      	cmp	r7, r3
100097aa:	d000      	beq.n	100097ae <tud_task+0x17e>
100097ac:	e0b2      	b.n	10009914 <tud_task+0x2e4>
100097ae:	3701      	adds	r7, #1
100097b0:	b2ff      	uxtb	r7, r7
100097b2:	429f      	cmp	r7, r3
100097b4:	d900      	bls.n	100097b8 <tud_task+0x188>
100097b6:	e74b      	b.n	10009650 <tud_task+0x20>
100097b8:	d2f6      	bcs.n	100097a8 <tud_task+0x178>
100097ba:	4641      	mov	r1, r8
100097bc:	6809      	ldr	r1, [r1, #0]
100097be:	007a      	lsls	r2, r7, #1
100097c0:	468c      	mov	ip, r1
100097c2:	19d2      	adds	r2, r2, r7
100097c4:	00d2      	lsls	r2, r2, #3
100097c6:	4462      	add	r2, ip
100097c8:	6952      	ldr	r2, [r2, #20]
100097ca:	2a00      	cmp	r2, #0
100097cc:	d0ef      	beq.n	100097ae <tud_task+0x17e>
100097ce:	7820      	ldrb	r0, [r4, #0]
100097d0:	4790      	blx	r2
100097d2:	3701      	adds	r7, #1
100097d4:	782b      	ldrb	r3, [r5, #0]
100097d6:	b2ff      	uxtb	r7, r7
100097d8:	429f      	cmp	r7, r3
100097da:	d9e3      	bls.n	100097a4 <tud_task+0x174>
100097dc:	e738      	b.n	10009650 <tud_task+0x20>
100097de:	7823      	ldrb	r3, [r4, #0]
100097e0:	4d60      	ldr	r5, [pc, #384]	; (10009964 <tud_task+0x334>)
100097e2:	4a5f      	ldr	r2, [pc, #380]	; (10009960 <tud_task+0x330>)
100097e4:	4698      	mov	r8, r3
100097e6:	2700      	movs	r7, #0
100097e8:	782b      	ldrb	r3, [r5, #0]
100097ea:	2a00      	cmp	r2, #0
100097ec:	d100      	bne.n	100097f0 <tud_task+0x1c0>
100097ee:	e086      	b.n	100098fe <tud_task+0x2ce>
100097f0:	4a61      	ldr	r2, [pc, #388]	; (10009978 <tud_task+0x348>)
100097f2:	4691      	mov	r9, r2
100097f4:	4a5f      	ldr	r2, [pc, #380]	; (10009974 <tud_task+0x344>)
100097f6:	4692      	mov	sl, r2
100097f8:	002a      	movs	r2, r5
100097fa:	4645      	mov	r5, r8
100097fc:	4690      	mov	r8, r2
100097fe:	42bb      	cmp	r3, r7
10009800:	d85e      	bhi.n	100098c0 <tud_task+0x290>
10009802:	d000      	beq.n	10009806 <tud_task+0x1d6>
10009804:	e078      	b.n	100098f8 <tud_task+0x2c8>
10009806:	464b      	mov	r3, r9
10009808:	0028      	movs	r0, r5
1000980a:	4798      	blx	r3
1000980c:	4643      	mov	r3, r8
1000980e:	3701      	adds	r7, #1
10009810:	781b      	ldrb	r3, [r3, #0]
10009812:	b2ff      	uxtb	r7, r7
10009814:	42bb      	cmp	r3, r7
10009816:	d2f2      	bcs.n	100097fe <tud_task+0x1ce>
10009818:	4d50      	ldr	r5, [pc, #320]	; (1000995c <tud_task+0x32c>)
1000981a:	2253      	movs	r2, #83	; 0x53
1000981c:	2100      	movs	r1, #0
1000981e:	0028      	movs	r0, r5
10009820:	f7fe fdb4 	bl	1000838c <__wrap_memset>
10009824:	2210      	movs	r2, #16
10009826:	21ff      	movs	r1, #255	; 0xff
10009828:	1ce8      	adds	r0, r5, #3
1000982a:	f7fe fdaf 	bl	1000838c <__wrap_memset>
1000982e:	0028      	movs	r0, r5
10009830:	2220      	movs	r2, #32
10009832:	21ff      	movs	r1, #255	; 0xff
10009834:	3013      	adds	r0, #19
10009836:	f7fe fda9 	bl	1000838c <__wrap_memset>
1000983a:	f000 fdcf 	bl	1000a3dc <usbd_control_reset>
1000983e:	4b4f      	ldr	r3, [pc, #316]	; (1000997c <tud_task+0x34c>)
10009840:	2b00      	cmp	r3, #0
10009842:	d100      	bne.n	10009846 <tud_task+0x216>
10009844:	e704      	b.n	10009650 <tud_task+0x20>
10009846:	e000      	b.n	1000984a <tud_task+0x21a>
10009848:	bf00      	nop
1000984a:	e701      	b.n	10009650 <tud_task+0x20>
1000984c:	7823      	ldrb	r3, [r4, #0]
1000984e:	4d45      	ldr	r5, [pc, #276]	; (10009964 <tud_task+0x334>)
10009850:	4a43      	ldr	r2, [pc, #268]	; (10009960 <tud_task+0x330>)
10009852:	4698      	mov	r8, r3
10009854:	2700      	movs	r7, #0
10009856:	782b      	ldrb	r3, [r5, #0]
10009858:	2a00      	cmp	r2, #0
1000985a:	d047      	beq.n	100098ec <tud_task+0x2bc>
1000985c:	4a46      	ldr	r2, [pc, #280]	; (10009978 <tud_task+0x348>)
1000985e:	4691      	mov	r9, r2
10009860:	4a44      	ldr	r2, [pc, #272]	; (10009974 <tud_task+0x344>)
10009862:	4692      	mov	sl, r2
10009864:	002a      	movs	r2, r5
10009866:	4645      	mov	r5, r8
10009868:	4690      	mov	r8, r2
1000986a:	429f      	cmp	r7, r3
1000986c:	d31f      	bcc.n	100098ae <tud_task+0x27e>
1000986e:	d143      	bne.n	100098f8 <tud_task+0x2c8>
10009870:	464b      	mov	r3, r9
10009872:	0028      	movs	r0, r5
10009874:	4798      	blx	r3
10009876:	4643      	mov	r3, r8
10009878:	3701      	adds	r7, #1
1000987a:	781b      	ldrb	r3, [r3, #0]
1000987c:	b2ff      	uxtb	r7, r7
1000987e:	42bb      	cmp	r3, r7
10009880:	d2f3      	bcs.n	1000986a <tud_task+0x23a>
10009882:	4d36      	ldr	r5, [pc, #216]	; (1000995c <tud_task+0x32c>)
10009884:	2253      	movs	r2, #83	; 0x53
10009886:	2100      	movs	r1, #0
10009888:	0028      	movs	r0, r5
1000988a:	f7fe fd7f 	bl	1000838c <__wrap_memset>
1000988e:	2210      	movs	r2, #16
10009890:	21ff      	movs	r1, #255	; 0xff
10009892:	1ce8      	adds	r0, r5, #3
10009894:	f7fe fd7a 	bl	1000838c <__wrap_memset>
10009898:	0028      	movs	r0, r5
1000989a:	2220      	movs	r2, #32
1000989c:	21ff      	movs	r1, #255	; 0xff
1000989e:	3013      	adds	r0, #19
100098a0:	f7fe fd74 	bl	1000838c <__wrap_memset>
100098a4:	f000 fd9a 	bl	1000a3dc <usbd_control_reset>
100098a8:	7923      	ldrb	r3, [r4, #4]
100098aa:	70ab      	strb	r3, [r5, #2]
100098ac:	e6d0      	b.n	10009650 <tud_task+0x20>
100098ae:	4652      	mov	r2, sl
100098b0:	6812      	ldr	r2, [r2, #0]
100098b2:	007b      	lsls	r3, r7, #1
100098b4:	4694      	mov	ip, r2
100098b6:	19db      	adds	r3, r3, r7
100098b8:	00db      	lsls	r3, r3, #3
100098ba:	4463      	add	r3, ip
100098bc:	685b      	ldr	r3, [r3, #4]
100098be:	e7d8      	b.n	10009872 <tud_task+0x242>
100098c0:	4652      	mov	r2, sl
100098c2:	6812      	ldr	r2, [r2, #0]
100098c4:	007b      	lsls	r3, r7, #1
100098c6:	4694      	mov	ip, r2
100098c8:	19db      	adds	r3, r3, r7
100098ca:	00db      	lsls	r3, r3, #3
100098cc:	4463      	add	r3, ip
100098ce:	685b      	ldr	r3, [r3, #4]
100098d0:	e79a      	b.n	10009808 <tud_task+0x1d8>
100098d2:	b00b      	add	sp, #44	; 0x2c
100098d4:	bcf0      	pop	{r4, r5, r6, r7}
100098d6:	46bb      	mov	fp, r7
100098d8:	46b2      	mov	sl, r6
100098da:	46a9      	mov	r9, r5
100098dc:	46a0      	mov	r8, r4
100098de:	bdf0      	pop	{r4, r5, r6, r7, pc}
100098e0:	7962      	ldrb	r2, [r4, #5]
100098e2:	7820      	ldrb	r0, [r4, #0]
100098e4:	68a3      	ldr	r3, [r4, #8]
100098e6:	f000 fd97 	bl	1000a418 <usbd_control_xfer_cb>
100098ea:	e6b1      	b.n	10009650 <tud_task+0x20>
100098ec:	4640      	mov	r0, r8
100098ee:	f000 ff0d 	bl	1000a70c <cdcd_reset>
100098f2:	782b      	ldrb	r3, [r5, #0]
100098f4:	2b00      	cmp	r3, #0
100098f6:	d0c4      	beq.n	10009882 <tud_task+0x252>
100098f8:	2300      	movs	r3, #0
100098fa:	685b      	ldr	r3, [r3, #4]
100098fc:	deff      	udf	#255	; 0xff
100098fe:	4640      	mov	r0, r8
10009900:	f000 ff04 	bl	1000a70c <cdcd_reset>
10009904:	782b      	ldrb	r3, [r5, #0]
10009906:	2b00      	cmp	r3, #0
10009908:	d100      	bne.n	1000990c <tud_task+0x2dc>
1000990a:	e785      	b.n	10009818 <tud_task+0x1e8>
1000990c:	e7f4      	b.n	100098f8 <tud_task+0x2c8>
1000990e:	2b00      	cmp	r3, #0
10009910:	d100      	bne.n	10009914 <tud_task+0x2e4>
10009912:	e69d      	b.n	10009650 <tud_task+0x20>
10009914:	2300      	movs	r3, #0
10009916:	695b      	ldr	r3, [r3, #20]
10009918:	deff      	udf	#255	; 0xff
1000991a:	4819      	ldr	r0, [pc, #100]	; (10009980 <tud_task+0x350>)
1000991c:	2800      	cmp	r0, #0
1000991e:	d100      	bne.n	10009922 <tud_task+0x2f2>
10009920:	e713      	b.n	1000974a <tud_task+0x11a>
10009922:	f000 fd65 	bl	1000a3f0 <usbd_control_set_complete_callback>
10009926:	2100      	movs	r1, #0
10009928:	4650      	mov	r0, sl
1000992a:	aa08      	add	r2, sp, #32
1000992c:	e000      	b.n	10009930 <tud_task+0x300>
1000992e:	bf00      	nop
10009930:	2800      	cmp	r0, #0
10009932:	d000      	beq.n	10009936 <tud_task+0x306>
10009934:	e68c      	b.n	10009650 <tud_task+0x20>
10009936:	e708      	b.n	1000974a <tud_task+0x11a>
10009938:	2a20      	cmp	r2, #32
1000993a:	d100      	bne.n	1000993e <tud_task+0x30e>
1000993c:	e09f      	b.n	10009a7e <tud_task+0x44e>
1000993e:	2a00      	cmp	r2, #0
10009940:	d000      	beq.n	10009944 <tud_task+0x314>
10009942:	e702      	b.n	1000974a <tud_task+0x11a>
10009944:	7963      	ldrb	r3, [r4, #5]
10009946:	2b09      	cmp	r3, #9
10009948:	d900      	bls.n	1000994c <tud_task+0x31c>
1000994a:	e6fe      	b.n	1000974a <tud_task+0x11a>
1000994c:	4a0d      	ldr	r2, [pc, #52]	; (10009984 <tud_task+0x354>)
1000994e:	009b      	lsls	r3, r3, #2
10009950:	58d3      	ldr	r3, [r2, r3]
10009952:	469f      	mov	pc, r3
10009954:	1000b8a4 	.word	0x1000b8a4
10009958:	20000fd4 	.word	0x20000fd4
1000995c:	20000f7c 	.word	0x20000f7c
10009960:	10008869 	.word	0x10008869
10009964:	20012db8 	.word	0x20012db8
10009968:	1000a901 	.word	0x1000a901
	...
10009974:	20000c44 	.word	0x20000c44
10009978:	1000a70d 	.word	0x1000a70d
	...
10009984:	1000b8c8 	.word	0x1000b8c8
10009988:	2370      	movs	r3, #112	; 0x70
1000998a:	7a21      	ldrb	r1, [r4, #8]
1000998c:	420b      	tst	r3, r1
1000998e:	d000      	beq.n	10009992 <tud_task+0x362>
10009990:	e6db      	b.n	1000974a <tud_task+0x11a>
10009992:	330f      	adds	r3, #15
10009994:	400b      	ands	r3, r1
10009996:	005b      	lsls	r3, r3, #1
10009998:	18f8      	adds	r0, r7, r3
1000999a:	09cd      	lsrs	r5, r1, #7
1000999c:	9300      	str	r3, [sp, #0]
1000999e:	4bc1      	ldr	r3, [pc, #772]	; (10009ca4 <tud_task+0x674>)
100099a0:	1940      	adds	r0, r0, r5
100099a2:	7cc0      	ldrb	r0, [r0, #19]
100099a4:	2b00      	cmp	r3, #0
100099a6:	d006      	beq.n	100099b6 <tud_task+0x386>
100099a8:	4bbf      	ldr	r3, [pc, #764]	; (10009ca8 <tud_task+0x678>)
100099aa:	781b      	ldrb	r3, [r3, #0]
100099ac:	4298      	cmp	r0, r3
100099ae:	d200      	bcs.n	100099b2 <tud_task+0x382>
100099b0:	e088      	b.n	10009ac4 <tud_task+0x494>
100099b2:	1ac0      	subs	r0, r0, r3
100099b4:	b2c0      	uxtb	r0, r0
100099b6:	2800      	cmp	r0, #0
100099b8:	d17e      	bne.n	10009ab8 <tud_task+0x488>
100099ba:	2a00      	cmp	r2, #0
100099bc:	d000      	beq.n	100099c0 <tud_task+0x390>
100099be:	e115      	b.n	10009bec <tud_task+0x5bc>
100099c0:	4bba      	ldr	r3, [pc, #744]	; (10009cac <tud_task+0x67c>)
100099c2:	9301      	str	r3, [sp, #4]
100099c4:	7963      	ldrb	r3, [r4, #5]
100099c6:	4698      	mov	r8, r3
100099c8:	2302      	movs	r3, #2
100099ca:	4642      	mov	r2, r8
100099cc:	4699      	mov	r9, r3
100099ce:	439a      	bics	r2, r3
100099d0:	2a01      	cmp	r2, #1
100099d2:	d100      	bne.n	100099d6 <tud_task+0x3a6>
100099d4:	e10e      	b.n	10009bf4 <tud_task+0x5c4>
100099d6:	4643      	mov	r3, r8
100099d8:	2b00      	cmp	r3, #0
100099da:	d000      	beq.n	100099de <tud_task+0x3ae>
100099dc:	e6b5      	b.n	1000974a <tud_task+0x11a>
100099de:	9b00      	ldr	r3, [sp, #0]
100099e0:	aa06      	add	r2, sp, #24
100099e2:	18fb      	adds	r3, r7, r3
100099e4:	195d      	adds	r5, r3, r5
100099e6:	3530      	adds	r5, #48	; 0x30
100099e8:	78eb      	ldrb	r3, [r5, #3]
100099ea:	3202      	adds	r2, #2
100099ec:	079b      	lsls	r3, r3, #30
100099ee:	0fdb      	lsrs	r3, r3, #31
100099f0:	8013      	strh	r3, [r2, #0]
100099f2:	4650      	mov	r0, sl
100099f4:	2302      	movs	r3, #2
100099f6:	a908      	add	r1, sp, #32
100099f8:	f000 fc92 	bl	1000a320 <tud_control_xfer>
100099fc:	e628      	b.n	10009650 <tud_task+0x20>
100099fe:	005a      	lsls	r2, r3, #1
10009a00:	18d3      	adds	r3, r2, r3
10009a02:	4aab      	ldr	r2, [pc, #684]	; (10009cb0 <tud_task+0x680>)
10009a04:	00db      	lsls	r3, r3, #3
10009a06:	6812      	ldr	r2, [r2, #0]
10009a08:	18d3      	adds	r3, r2, r3
10009a0a:	2b00      	cmp	r3, #0
10009a0c:	d100      	bne.n	10009a10 <tud_task+0x3e0>
10009a0e:	e760      	b.n	100098d2 <tud_task+0x2a2>
10009a10:	691d      	ldr	r5, [r3, #16]
10009a12:	e668      	b.n	100096e6 <tud_task+0xb6>
10009a14:	7a23      	ldrb	r3, [r4, #8]
10009a16:	2b0f      	cmp	r3, #15
10009a18:	d900      	bls.n	10009a1c <tud_task+0x3ec>
10009a1a:	e696      	b.n	1000974a <tud_task+0x11a>
10009a1c:	4aa1      	ldr	r2, [pc, #644]	; (10009ca4 <tud_task+0x674>)
10009a1e:	18fb      	adds	r3, r7, r3
10009a20:	78db      	ldrb	r3, [r3, #3]
10009a22:	2a00      	cmp	r2, #0
10009a24:	d005      	beq.n	10009a32 <tud_task+0x402>
10009a26:	4aa0      	ldr	r2, [pc, #640]	; (10009ca8 <tud_task+0x678>)
10009a28:	7812      	ldrb	r2, [r2, #0]
10009a2a:	4293      	cmp	r3, r2
10009a2c:	d364      	bcc.n	10009af8 <tud_task+0x4c8>
10009a2e:	1a9b      	subs	r3, r3, r2
10009a30:	b2db      	uxtb	r3, r3
10009a32:	2b00      	cmp	r3, #0
10009a34:	d000      	beq.n	10009a38 <tud_task+0x408>
10009a36:	e688      	b.n	1000974a <tud_task+0x11a>
10009a38:	489e      	ldr	r0, [pc, #632]	; (10009cb4 <tud_task+0x684>)
10009a3a:	4d9c      	ldr	r5, [pc, #624]	; (10009cac <tud_task+0x67c>)
10009a3c:	f000 fcd8 	bl	1000a3f0 <usbd_control_set_complete_callback>
10009a40:	2100      	movs	r1, #0
10009a42:	4650      	mov	r0, sl
10009a44:	68eb      	ldr	r3, [r5, #12]
10009a46:	aa08      	add	r2, sp, #32
10009a48:	4798      	blx	r3
10009a4a:	2800      	cmp	r0, #0
10009a4c:	d000      	beq.n	10009a50 <tud_task+0x420>
10009a4e:	e5ff      	b.n	10009650 <tud_task+0x20>
10009a50:	2260      	movs	r2, #96	; 0x60
10009a52:	0015      	movs	r5, r2
10009a54:	7923      	ldrb	r3, [r4, #4]
10009a56:	401d      	ands	r5, r3
10009a58:	421a      	tst	r2, r3
10009a5a:	d000      	beq.n	10009a5e <tud_task+0x42e>
10009a5c:	e675      	b.n	1000974a <tud_task+0x11a>
10009a5e:	7963      	ldrb	r3, [r4, #5]
10009a60:	3b0a      	subs	r3, #10
10009a62:	2b01      	cmp	r3, #1
10009a64:	d900      	bls.n	10009a68 <tud_task+0x438>
10009a66:	e670      	b.n	1000974a <tud_task+0x11a>
10009a68:	f000 fcc2 	bl	1000a3f0 <usbd_control_set_complete_callback>
10009a6c:	7963      	ldrb	r3, [r4, #5]
10009a6e:	2b0a      	cmp	r3, #10
10009a70:	d100      	bne.n	10009a74 <tud_task+0x444>
10009a72:	e0ee      	b.n	10009c52 <tud_task+0x622>
10009a74:	4650      	mov	r0, sl
10009a76:	a908      	add	r1, sp, #32
10009a78:	f000 fc3a 	bl	1000a2f0 <tud_control_status>
10009a7c:	e5e8      	b.n	10009650 <tud_task+0x20>
10009a7e:	7a23      	ldrb	r3, [r4, #8]
10009a80:	2b0f      	cmp	r3, #15
10009a82:	d900      	bls.n	10009a86 <tud_task+0x456>
10009a84:	e661      	b.n	1000974a <tud_task+0x11a>
10009a86:	4a87      	ldr	r2, [pc, #540]	; (10009ca4 <tud_task+0x674>)
10009a88:	18fb      	adds	r3, r7, r3
10009a8a:	78db      	ldrb	r3, [r3, #3]
10009a8c:	2a00      	cmp	r2, #0
10009a8e:	d006      	beq.n	10009a9e <tud_task+0x46e>
10009a90:	4a85      	ldr	r2, [pc, #532]	; (10009ca8 <tud_task+0x678>)
10009a92:	7812      	ldrb	r2, [r2, #0]
10009a94:	4293      	cmp	r3, r2
10009a96:	d200      	bcs.n	10009a9a <tud_task+0x46a>
10009a98:	e0d0      	b.n	10009c3c <tud_task+0x60c>
10009a9a:	1a9b      	subs	r3, r3, r2
10009a9c:	b2db      	uxtb	r3, r3
10009a9e:	2b00      	cmp	r3, #0
10009aa0:	d000      	beq.n	10009aa4 <tud_task+0x474>
10009aa2:	e652      	b.n	1000974a <tud_task+0x11a>
10009aa4:	4883      	ldr	r0, [pc, #524]	; (10009cb4 <tud_task+0x684>)
10009aa6:	4d81      	ldr	r5, [pc, #516]	; (10009cac <tud_task+0x67c>)
10009aa8:	f000 fca2 	bl	1000a3f0 <usbd_control_set_complete_callback>
10009aac:	2100      	movs	r1, #0
10009aae:	4650      	mov	r0, sl
10009ab0:	68eb      	ldr	r3, [r5, #12]
10009ab2:	aa08      	add	r2, sp, #32
10009ab4:	4798      	blx	r3
10009ab6:	e73b      	b.n	10009930 <tud_task+0x300>
10009ab8:	2a00      	cmp	r2, #0
10009aba:	d000      	beq.n	10009abe <tud_task+0x48e>
10009abc:	e645      	b.n	1000974a <tud_task+0x11a>
10009abe:	2300      	movs	r3, #0
10009ac0:	9301      	str	r3, [sp, #4]
10009ac2:	e77f      	b.n	100099c4 <tud_task+0x394>
10009ac4:	0043      	lsls	r3, r0, #1
10009ac6:	469c      	mov	ip, r3
10009ac8:	4b79      	ldr	r3, [pc, #484]	; (10009cb0 <tud_task+0x680>)
10009aca:	4460      	add	r0, ip
10009acc:	681b      	ldr	r3, [r3, #0]
10009ace:	00c0      	lsls	r0, r0, #3
10009ad0:	469c      	mov	ip, r3
10009ad2:	0003      	movs	r3, r0
10009ad4:	4463      	add	r3, ip
10009ad6:	9301      	str	r3, [sp, #4]
10009ad8:	2a00      	cmp	r2, #0
10009ada:	d100      	bne.n	10009ade <tud_task+0x4ae>
10009adc:	e772      	b.n	100099c4 <tud_task+0x394>
10009ade:	2b00      	cmp	r3, #0
10009ae0:	d100      	bne.n	10009ae4 <tud_task+0x4b4>
10009ae2:	e632      	b.n	1000974a <tud_task+0x11a>
10009ae4:	68d8      	ldr	r0, [r3, #12]
10009ae6:	f000 fc83 	bl	1000a3f0 <usbd_control_set_complete_callback>
10009aea:	9b01      	ldr	r3, [sp, #4]
10009aec:	2100      	movs	r1, #0
10009aee:	4650      	mov	r0, sl
10009af0:	68db      	ldr	r3, [r3, #12]
10009af2:	aa08      	add	r2, sp, #32
10009af4:	4798      	blx	r3
10009af6:	e71b      	b.n	10009930 <tud_task+0x300>
10009af8:	4a6d      	ldr	r2, [pc, #436]	; (10009cb0 <tud_task+0x680>)
10009afa:	005d      	lsls	r5, r3, #1
10009afc:	18eb      	adds	r3, r5, r3
10009afe:	6815      	ldr	r5, [r2, #0]
10009b00:	00db      	lsls	r3, r3, #3
10009b02:	18ed      	adds	r5, r5, r3
10009b04:	2d00      	cmp	r5, #0
10009b06:	d100      	bne.n	10009b0a <tud_task+0x4da>
10009b08:	e61f      	b.n	1000974a <tud_task+0x11a>
10009b0a:	68e8      	ldr	r0, [r5, #12]
10009b0c:	e796      	b.n	10009a3c <tud_task+0x40c>
10009b0e:	88e3      	ldrh	r3, [r4, #6]
10009b10:	2b01      	cmp	r3, #1
10009b12:	d000      	beq.n	10009b16 <tud_task+0x4e6>
10009b14:	e619      	b.n	1000974a <tud_task+0x11a>
10009b16:	2208      	movs	r2, #8
10009b18:	783b      	ldrb	r3, [r7, #0]
10009b1a:	4650      	mov	r0, sl
10009b1c:	4393      	bics	r3, r2
10009b1e:	a908      	add	r1, sp, #32
10009b20:	703b      	strb	r3, [r7, #0]
10009b22:	f000 fbe5 	bl	1000a2f0 <tud_control_status>
10009b26:	e593      	b.n	10009650 <tud_task+0x20>
10009b28:	2002      	movs	r0, #2
10009b2a:	7839      	ldrb	r1, [r7, #0]
10009b2c:	ab06      	add	r3, sp, #24
10009b2e:	1c9a      	adds	r2, r3, #2
10009b30:	068b      	lsls	r3, r1, #26
10009b32:	0889      	lsrs	r1, r1, #2
10009b34:	0fdb      	lsrs	r3, r3, #31
10009b36:	4001      	ands	r1, r0
10009b38:	430b      	orrs	r3, r1
10009b3a:	e759      	b.n	100099f0 <tud_task+0x3c0>
10009b3c:	79a3      	ldrb	r3, [r4, #6]
10009b3e:	9301      	str	r3, [sp, #4]
10009b40:	001a      	movs	r2, r3
10009b42:	787b      	ldrb	r3, [r7, #1]
10009b44:	429a      	cmp	r2, r3
10009b46:	d007      	beq.n	10009b58 <tud_task+0x528>
10009b48:	787b      	ldrb	r3, [r7, #1]
10009b4a:	2b00      	cmp	r3, #0
10009b4c:	d000      	beq.n	10009b50 <tud_task+0x520>
10009b4e:	e11e      	b.n	10009d8e <tud_task+0x75e>
10009b50:	9b01      	ldr	r3, [sp, #4]
10009b52:	2b00      	cmp	r3, #0
10009b54:	d000      	beq.n	10009b58 <tud_task+0x528>
10009b56:	e0b3      	b.n	10009cc0 <tud_task+0x690>
10009b58:	9b01      	ldr	r3, [sp, #4]
10009b5a:	4650      	mov	r0, sl
10009b5c:	a908      	add	r1, sp, #32
10009b5e:	707b      	strb	r3, [r7, #1]
10009b60:	f000 fbc6 	bl	1000a2f0 <tud_control_status>
10009b64:	e574      	b.n	10009650 <tud_task+0x20>
10009b66:	787b      	ldrb	r3, [r7, #1]
10009b68:	aa06      	add	r2, sp, #24
10009b6a:	3202      	adds	r2, #2
10009b6c:	7013      	strb	r3, [r2, #0]
10009b6e:	4650      	mov	r0, sl
10009b70:	2301      	movs	r3, #1
10009b72:	a908      	add	r1, sp, #32
10009b74:	f000 fbd4 	bl	1000a320 <tud_control_xfer>
10009b78:	e56a      	b.n	10009650 <tud_task+0x20>
10009b7a:	88e0      	ldrh	r0, [r4, #6]
10009b7c:	0a03      	lsrs	r3, r0, #8
10009b7e:	b2c0      	uxtb	r0, r0
10009b80:	2b0f      	cmp	r3, #15
10009b82:	d900      	bls.n	10009b86 <tud_task+0x556>
10009b84:	e5e1      	b.n	1000974a <tud_task+0x11a>
10009b86:	494c      	ldr	r1, [pc, #304]	; (10009cb8 <tud_task+0x688>)
10009b88:	009a      	lsls	r2, r3, #2
10009b8a:	588a      	ldr	r2, [r1, r2]
10009b8c:	4697      	mov	pc, r2
10009b8e:	a808      	add	r0, sp, #32
10009b90:	f000 fc34 	bl	1000a3fc <usbd_control_set_request>
10009b94:	4650      	mov	r0, sl
10009b96:	79a1      	ldrb	r1, [r4, #6]
10009b98:	f7ff f900 	bl	10008d9c <dcd_set_address>
10009b9c:	2202      	movs	r2, #2
10009b9e:	783b      	ldrb	r3, [r7, #0]
10009ba0:	4313      	orrs	r3, r2
10009ba2:	703b      	strb	r3, [r7, #0]
10009ba4:	e554      	b.n	10009650 <tud_task+0x20>
10009ba6:	88e3      	ldrh	r3, [r4, #6]
10009ba8:	2b01      	cmp	r3, #1
10009baa:	d000      	beq.n	10009bae <tud_task+0x57e>
10009bac:	e5cd      	b.n	1000974a <tud_task+0x11a>
10009bae:	2208      	movs	r2, #8
10009bb0:	783b      	ldrb	r3, [r7, #0]
10009bb2:	4650      	mov	r0, sl
10009bb4:	4313      	orrs	r3, r2
10009bb6:	a908      	add	r1, sp, #32
10009bb8:	703b      	strb	r3, [r7, #0]
10009bba:	f000 fb99 	bl	1000a2f0 <tud_control_status>
10009bbe:	e547      	b.n	10009650 <tud_task+0x20>
10009bc0:	2b02      	cmp	r3, #2
10009bc2:	d100      	bne.n	10009bc6 <tud_task+0x596>
10009bc4:	e194      	b.n	10009ef0 <tud_task+0x8c0>
10009bc6:	4b3d      	ldr	r3, [pc, #244]	; (10009cbc <tud_task+0x68c>)
10009bc8:	2b00      	cmp	r3, #0
10009bca:	d100      	bne.n	10009bce <tud_task+0x59e>
10009bcc:	e5bd      	b.n	1000974a <tud_task+0x11a>
10009bce:	e000      	b.n	10009bd2 <tud_task+0x5a2>
10009bd0:	bf00      	nop
10009bd2:	0002      	movs	r2, r0
10009bd4:	2a00      	cmp	r2, #0
10009bd6:	d100      	bne.n	10009bda <tud_task+0x5aa>
10009bd8:	e5b7      	b.n	1000974a <tud_task+0x11a>
10009bda:	78d3      	ldrb	r3, [r2, #3]
10009bdc:	7891      	ldrb	r1, [r2, #2]
10009bde:	021b      	lsls	r3, r3, #8
10009be0:	430b      	orrs	r3, r1
10009be2:	4650      	mov	r0, sl
10009be4:	a908      	add	r1, sp, #32
10009be6:	f000 fb9b 	bl	1000a320 <tud_control_xfer>
10009bea:	e6a1      	b.n	10009930 <tud_task+0x300>
10009bec:	4b2f      	ldr	r3, [pc, #188]	; (10009cac <tud_task+0x67c>)
10009bee:	4831      	ldr	r0, [pc, #196]	; (10009cb4 <tud_task+0x684>)
10009bf0:	9301      	str	r3, [sp, #4]
10009bf2:	e778      	b.n	10009ae6 <tud_task+0x4b6>
10009bf4:	88e2      	ldrh	r2, [r4, #6]
10009bf6:	2a00      	cmp	r2, #0
10009bf8:	d109      	bne.n	10009c0e <tud_task+0x5de>
10009bfa:	4643      	mov	r3, r8
10009bfc:	2b01      	cmp	r3, #1
10009bfe:	d03d      	beq.n	10009c7c <tud_task+0x64c>
10009c00:	9b00      	ldr	r3, [sp, #0]
10009c02:	18fb      	adds	r3, r7, r3
10009c04:	195d      	adds	r5, r3, r5
10009c06:	3530      	adds	r5, #48	; 0x30
10009c08:	78eb      	ldrb	r3, [r5, #3]
10009c0a:	079b      	lsls	r3, r3, #30
10009c0c:	d52a      	bpl.n	10009c64 <tud_task+0x634>
10009c0e:	9d01      	ldr	r5, [sp, #4]
10009c10:	2d00      	cmp	r5, #0
10009c12:	d100      	bne.n	10009c16 <tud_task+0x5e6>
10009c14:	e51c      	b.n	10009650 <tud_task+0x20>
10009c16:	68eb      	ldr	r3, [r5, #12]
10009c18:	0018      	movs	r0, r3
10009c1a:	9300      	str	r3, [sp, #0]
10009c1c:	f000 fbe8 	bl	1000a3f0 <usbd_control_set_complete_callback>
10009c20:	68eb      	ldr	r3, [r5, #12]
10009c22:	2100      	movs	r1, #0
10009c24:	aa08      	add	r2, sp, #32
10009c26:	4650      	mov	r0, sl
10009c28:	4798      	blx	r3
10009c2a:	2000      	movs	r0, #0
10009c2c:	f000 fbe0 	bl	1000a3f0 <usbd_control_set_complete_callback>
10009c30:	2334      	movs	r3, #52	; 0x34
10009c32:	5cfb      	ldrb	r3, [r7, r3]
10009c34:	07db      	lsls	r3, r3, #31
10009c36:	d500      	bpl.n	10009c3a <tud_task+0x60a>
10009c38:	e50a      	b.n	10009650 <tud_task+0x20>
10009c3a:	e71b      	b.n	10009a74 <tud_task+0x444>
10009c3c:	4a1c      	ldr	r2, [pc, #112]	; (10009cb0 <tud_task+0x680>)
10009c3e:	005d      	lsls	r5, r3, #1
10009c40:	18eb      	adds	r3, r5, r3
10009c42:	6815      	ldr	r5, [r2, #0]
10009c44:	00db      	lsls	r3, r3, #3
10009c46:	18ed      	adds	r5, r5, r3
10009c48:	2d00      	cmp	r5, #0
10009c4a:	d100      	bne.n	10009c4e <tud_task+0x61e>
10009c4c:	e57d      	b.n	1000974a <tud_task+0x11a>
10009c4e:	68e8      	ldr	r0, [r5, #12]
10009c50:	e72a      	b.n	10009aa8 <tud_task+0x478>
10009c52:	ab06      	add	r3, sp, #24
10009c54:	1c9a      	adds	r2, r3, #2
10009c56:	4650      	mov	r0, sl
10009c58:	2301      	movs	r3, #1
10009c5a:	a908      	add	r1, sp, #32
10009c5c:	7015      	strb	r5, [r2, #0]
10009c5e:	f000 fb5f 	bl	1000a320 <tud_control_xfer>
10009c62:	e4f5      	b.n	10009650 <tud_task+0x20>
10009c64:	4650      	mov	r0, sl
10009c66:	f7ff fa43 	bl	100090f0 <dcd_edpt_stall>
10009c6a:	2202      	movs	r2, #2
10009c6c:	78eb      	ldrb	r3, [r5, #3]
10009c6e:	4313      	orrs	r3, r2
10009c70:	2201      	movs	r2, #1
10009c72:	70eb      	strb	r3, [r5, #3]
10009c74:	78eb      	ldrb	r3, [r5, #3]
10009c76:	4313      	orrs	r3, r2
10009c78:	70eb      	strb	r3, [r5, #3]
10009c7a:	e7c8      	b.n	10009c0e <tud_task+0x5de>
10009c7c:	9b00      	ldr	r3, [sp, #0]
10009c7e:	18fb      	adds	r3, r7, r3
10009c80:	195d      	adds	r5, r3, r5
10009c82:	3530      	adds	r5, #48	; 0x30
10009c84:	78eb      	ldrb	r3, [r5, #3]
10009c86:	079b      	lsls	r3, r3, #30
10009c88:	d5c1      	bpl.n	10009c0e <tud_task+0x5de>
10009c8a:	4650      	mov	r0, sl
10009c8c:	f7ff fa4c 	bl	10009128 <dcd_edpt_clear_stall>
10009c90:	464a      	mov	r2, r9
10009c92:	78eb      	ldrb	r3, [r5, #3]
10009c94:	4393      	bics	r3, r2
10009c96:	4642      	mov	r2, r8
10009c98:	70eb      	strb	r3, [r5, #3]
10009c9a:	78eb      	ldrb	r3, [r5, #3]
10009c9c:	4393      	bics	r3, r2
10009c9e:	70eb      	strb	r3, [r5, #3]
10009ca0:	e7b5      	b.n	10009c0e <tud_task+0x5de>
10009ca2:	46c0      	nop			; (mov r8, r8)
10009ca4:	10008869 	.word	0x10008869
10009ca8:	20012db8 	.word	0x20012db8
10009cac:	1000b930 	.word	0x1000b930
10009cb0:	20000c44 	.word	0x20000c44
10009cb4:	1000a81d 	.word	0x1000a81d
10009cb8:	1000b8f0 	.word	0x1000b8f0
10009cbc:	00000000 	.word	0x00000000
10009cc0:	1e58      	subs	r0, r3, #1
10009cc2:	b2c0      	uxtb	r0, r0
10009cc4:	f7fe ff18 	bl	10008af8 <tud_descriptor_configuration_cb>
10009cc8:	2800      	cmp	r0, #0
10009cca:	d100      	bne.n	10009cce <tud_task+0x69e>
10009ccc:	e53d      	b.n	1000974a <tud_task+0x11a>
10009cce:	7843      	ldrb	r3, [r0, #1]
10009cd0:	9304      	str	r3, [sp, #16]
10009cd2:	2b02      	cmp	r3, #2
10009cd4:	d000      	beq.n	10009cd8 <tud_task+0x6a8>
10009cd6:	e538      	b.n	1000974a <tud_task+0x11a>
10009cd8:	2101      	movs	r1, #1
10009cda:	79c3      	ldrb	r3, [r0, #7]
10009cdc:	119a      	asrs	r2, r3, #6
10009cde:	115b      	asrs	r3, r3, #5
10009ce0:	400a      	ands	r2, r1
10009ce2:	400b      	ands	r3, r1
10009ce4:	0152      	lsls	r2, r2, #5
10009ce6:	011b      	lsls	r3, r3, #4
10009ce8:	4313      	orrs	r3, r2
10009cea:	783a      	ldrb	r2, [r7, #0]
10009cec:	312f      	adds	r1, #47	; 0x2f
10009cee:	438a      	bics	r2, r1
10009cf0:	4313      	orrs	r3, r2
10009cf2:	703b      	strb	r3, [r7, #0]
10009cf4:	2309      	movs	r3, #9
10009cf6:	4699      	mov	r9, r3
10009cf8:	78c3      	ldrb	r3, [r0, #3]
10009cfa:	7882      	ldrb	r2, [r0, #2]
10009cfc:	021b      	lsls	r3, r3, #8
10009cfe:	4313      	orrs	r3, r2
10009d00:	18c3      	adds	r3, r0, r3
10009d02:	4481      	add	r9, r0
10009d04:	9303      	str	r3, [sp, #12]
10009d06:	9b03      	ldr	r3, [sp, #12]
10009d08:	454b      	cmp	r3, r9
10009d0a:	d800      	bhi.n	10009d0e <tud_task+0x6de>
10009d0c:	e0e9      	b.n	10009ee2 <tud_task+0x8b2>
10009d0e:	464b      	mov	r3, r9
10009d10:	2201      	movs	r2, #1
10009d12:	785b      	ldrb	r3, [r3, #1]
10009d14:	9200      	str	r2, [sp, #0]
10009d16:	2b0b      	cmp	r3, #11
10009d18:	d107      	bne.n	10009d2a <tud_task+0x6fa>
10009d1a:	464b      	mov	r3, r9
10009d1c:	78db      	ldrb	r3, [r3, #3]
10009d1e:	9300      	str	r3, [sp, #0]
10009d20:	464b      	mov	r3, r9
10009d22:	781b      	ldrb	r3, [r3, #0]
10009d24:	4499      	add	r9, r3
10009d26:	464b      	mov	r3, r9
10009d28:	785b      	ldrb	r3, [r3, #1]
10009d2a:	2b04      	cmp	r3, #4
10009d2c:	d000      	beq.n	10009d30 <tud_task+0x700>
10009d2e:	e50c      	b.n	1000974a <tud_task+0x11a>
10009d30:	464a      	mov	r2, r9
10009d32:	9b03      	ldr	r3, [sp, #12]
10009d34:	2500      	movs	r5, #0
10009d36:	1a9b      	subs	r3, r3, r2
10009d38:	b29b      	uxth	r3, r3
10009d3a:	9302      	str	r3, [sp, #8]
10009d3c:	4a6e      	ldr	r2, [pc, #440]	; (10009ef8 <tud_task+0x8c8>)
10009d3e:	4b6f      	ldr	r3, [pc, #444]	; (10009efc <tud_task+0x8cc>)
10009d40:	781b      	ldrb	r3, [r3, #0]
10009d42:	2a00      	cmp	r2, #0
10009d44:	d116      	bne.n	10009d74 <tud_task+0x744>
10009d46:	e062      	b.n	10009e0e <tud_task+0x7de>
10009d48:	42ab      	cmp	r3, r5
10009d4a:	d171      	bne.n	10009e30 <tud_task+0x800>
10009d4c:	4a6c      	ldr	r2, [pc, #432]	; (10009f00 <tud_task+0x8d0>)
10009d4e:	4b6d      	ldr	r3, [pc, #436]	; (10009f04 <tud_task+0x8d4>)
10009d50:	4690      	mov	r8, r2
10009d52:	4649      	mov	r1, r9
10009d54:	4650      	mov	r0, sl
10009d56:	9a02      	ldr	r2, [sp, #8]
10009d58:	4798      	blx	r3
10009d5a:	4684      	mov	ip, r0
10009d5c:	2808      	cmp	r0, #8
10009d5e:	d902      	bls.n	10009d66 <tud_task+0x736>
10009d60:	9a02      	ldr	r2, [sp, #8]
10009d62:	4282      	cmp	r2, r0
10009d64:	d269      	bcs.n	10009e3a <tud_task+0x80a>
10009d66:	4b65      	ldr	r3, [pc, #404]	; (10009efc <tud_task+0x8cc>)
10009d68:	3501      	adds	r5, #1
10009d6a:	781b      	ldrb	r3, [r3, #0]
10009d6c:	b2ed      	uxtb	r5, r5
10009d6e:	42ab      	cmp	r3, r5
10009d70:	d200      	bcs.n	10009d74 <tud_task+0x744>
10009d72:	e4ea      	b.n	1000974a <tud_task+0x11a>
10009d74:	42ab      	cmp	r3, r5
10009d76:	d9e7      	bls.n	10009d48 <tud_task+0x718>
10009d78:	4a63      	ldr	r2, [pc, #396]	; (10009f08 <tud_task+0x8d8>)
10009d7a:	006b      	lsls	r3, r5, #1
10009d7c:	6812      	ldr	r2, [r2, #0]
10009d7e:	195b      	adds	r3, r3, r5
10009d80:	4690      	mov	r8, r2
10009d82:	00db      	lsls	r3, r3, #3
10009d84:	4498      	add	r8, r3
10009d86:	4643      	mov	r3, r8
10009d88:	9205      	str	r2, [sp, #20]
10009d8a:	689b      	ldr	r3, [r3, #8]
10009d8c:	e7e1      	b.n	10009d52 <tud_task+0x722>
10009d8e:	4650      	mov	r0, sl
10009d90:	f7ff f93e 	bl	10009010 <dcd_edpt_close_all>
10009d94:	78bb      	ldrb	r3, [r7, #2]
10009d96:	4d59      	ldr	r5, [pc, #356]	; (10009efc <tud_task+0x8cc>)
10009d98:	4a57      	ldr	r2, [pc, #348]	; (10009ef8 <tud_task+0x8c8>)
10009d9a:	9300      	str	r3, [sp, #0]
10009d9c:	2100      	movs	r1, #0
10009d9e:	782b      	ldrb	r3, [r5, #0]
10009da0:	2a00      	cmp	r2, #0
10009da2:	d02d      	beq.n	10009e00 <tud_task+0x7d0>
10009da4:	4a58      	ldr	r2, [pc, #352]	; (10009f08 <tud_task+0x8d8>)
10009da6:	4690      	mov	r8, r2
10009da8:	002a      	movs	r2, r5
10009daa:	000d      	movs	r5, r1
10009dac:	4691      	mov	r9, r2
10009dae:	429d      	cmp	r5, r3
10009db0:	d31d      	bcc.n	10009dee <tud_task+0x7be>
10009db2:	d000      	beq.n	10009db6 <tud_task+0x786>
10009db4:	e5a0      	b.n	100098f8 <tud_task+0x2c8>
10009db6:	4b55      	ldr	r3, [pc, #340]	; (10009f0c <tud_task+0x8dc>)
10009db8:	4650      	mov	r0, sl
10009dba:	4798      	blx	r3
10009dbc:	464b      	mov	r3, r9
10009dbe:	3501      	adds	r5, #1
10009dc0:	781b      	ldrb	r3, [r3, #0]
10009dc2:	b2ed      	uxtb	r5, r5
10009dc4:	42ab      	cmp	r3, r5
10009dc6:	d2f2      	bcs.n	10009dae <tud_task+0x77e>
10009dc8:	2253      	movs	r2, #83	; 0x53
10009dca:	2100      	movs	r1, #0
10009dcc:	0038      	movs	r0, r7
10009dce:	f7fe fadd 	bl	1000838c <__wrap_memset>
10009dd2:	2210      	movs	r2, #16
10009dd4:	21ff      	movs	r1, #255	; 0xff
10009dd6:	1cf8      	adds	r0, r7, #3
10009dd8:	f7fe fad8 	bl	1000838c <__wrap_memset>
10009ddc:	0038      	movs	r0, r7
10009dde:	2220      	movs	r2, #32
10009de0:	21ff      	movs	r1, #255	; 0xff
10009de2:	3013      	adds	r0, #19
10009de4:	f7fe fad2 	bl	1000838c <__wrap_memset>
10009de8:	9b00      	ldr	r3, [sp, #0]
10009dea:	70bb      	strb	r3, [r7, #2]
10009dec:	e6b0      	b.n	10009b50 <tud_task+0x520>
10009dee:	4642      	mov	r2, r8
10009df0:	6812      	ldr	r2, [r2, #0]
10009df2:	006b      	lsls	r3, r5, #1
10009df4:	4694      	mov	ip, r2
10009df6:	195b      	adds	r3, r3, r5
10009df8:	00db      	lsls	r3, r3, #3
10009dfa:	4463      	add	r3, ip
10009dfc:	685b      	ldr	r3, [r3, #4]
10009dfe:	e7db      	b.n	10009db8 <tud_task+0x788>
10009e00:	4650      	mov	r0, sl
10009e02:	f000 fc83 	bl	1000a70c <cdcd_reset>
10009e06:	782b      	ldrb	r3, [r5, #0]
10009e08:	2b00      	cmp	r3, #0
10009e0a:	d0dd      	beq.n	10009dc8 <tud_task+0x798>
10009e0c:	e574      	b.n	100098f8 <tud_task+0x2c8>
10009e0e:	9b02      	ldr	r3, [sp, #8]
10009e10:	4649      	mov	r1, r9
10009e12:	001a      	movs	r2, r3
10009e14:	4650      	mov	r0, sl
10009e16:	4698      	mov	r8, r3
10009e18:	f000 fc8e 	bl	1000a738 <cdcd_open>
10009e1c:	4684      	mov	ip, r0
10009e1e:	2808      	cmp	r0, #8
10009e20:	d901      	bls.n	10009e26 <tud_task+0x7f6>
10009e22:	4540      	cmp	r0, r8
10009e24:	d907      	bls.n	10009e36 <tud_task+0x806>
10009e26:	4b35      	ldr	r3, [pc, #212]	; (10009efc <tud_task+0x8cc>)
10009e28:	781b      	ldrb	r3, [r3, #0]
10009e2a:	2b00      	cmp	r3, #0
10009e2c:	d100      	bne.n	10009e30 <tud_task+0x800>
10009e2e:	e48c      	b.n	1000974a <tud_task+0x11a>
10009e30:	2300      	movs	r3, #0
10009e32:	689b      	ldr	r3, [r3, #8]
10009e34:	deff      	udf	#255	; 0xff
10009e36:	4b32      	ldr	r3, [pc, #200]	; (10009f00 <tud_task+0x8d0>)
10009e38:	4698      	mov	r8, r3
10009e3a:	9b00      	ldr	r3, [sp, #0]
10009e3c:	2b01      	cmp	r3, #1
10009e3e:	d048      	beq.n	10009ed2 <tud_task+0x8a2>
10009e40:	9b00      	ldr	r3, [sp, #0]
10009e42:	2b00      	cmp	r3, #0
10009e44:	d010      	beq.n	10009e68 <tud_task+0x838>
10009e46:	464b      	mov	r3, r9
10009e48:	7899      	ldrb	r1, [r3, #2]
10009e4a:	2300      	movs	r3, #0
10009e4c:	e005      	b.n	10009e5a <tud_task+0x82a>
10009e4e:	70d5      	strb	r5, [r2, #3]
10009e50:	3301      	adds	r3, #1
10009e52:	9a00      	ldr	r2, [sp, #0]
10009e54:	b2db      	uxtb	r3, r3
10009e56:	4293      	cmp	r3, r2
10009e58:	d206      	bcs.n	10009e68 <tud_task+0x838>
10009e5a:	18ca      	adds	r2, r1, r3
10009e5c:	b2d2      	uxtb	r2, r2
10009e5e:	18ba      	adds	r2, r7, r2
10009e60:	78d0      	ldrb	r0, [r2, #3]
10009e62:	28ff      	cmp	r0, #255	; 0xff
10009e64:	d0f3      	beq.n	10009e4e <tud_task+0x81e>
10009e66:	e470      	b.n	1000974a <tud_task+0x11a>
10009e68:	0038      	movs	r0, r7
10009e6a:	46e0      	mov	r8, ip
10009e6c:	002b      	movs	r3, r5
10009e6e:	4649      	mov	r1, r9
10009e70:	4662      	mov	r2, ip
10009e72:	3013      	adds	r0, #19
10009e74:	f000 fe2e 	bl	1000aad4 <tu_edpt_bind_driver>
10009e78:	4b20      	ldr	r3, [pc, #128]	; (10009efc <tud_task+0x8cc>)
10009e7a:	44c1      	add	r9, r8
10009e7c:	781b      	ldrb	r3, [r3, #0]
10009e7e:	42ab      	cmp	r3, r5
10009e80:	d300      	bcc.n	10009e84 <tud_task+0x854>
10009e82:	e740      	b.n	10009d06 <tud_task+0x6d6>
10009e84:	e461      	b.n	1000974a <tud_task+0x11a>
10009e86:	4b22      	ldr	r3, [pc, #136]	; (10009f10 <tud_task+0x8e0>)
10009e88:	2b00      	cmp	r3, #0
10009e8a:	d100      	bne.n	10009e8e <tud_task+0x85e>
10009e8c:	e45d      	b.n	1000974a <tud_task+0x11a>
10009e8e:	e000      	b.n	10009e92 <tud_task+0x862>
10009e90:	bf00      	nop
10009e92:	0002      	movs	r2, r0
10009e94:	e6a1      	b.n	10009bda <tud_task+0x5aa>
10009e96:	f7fe fe2b 	bl	10008af0 <tud_descriptor_device_cb>
10009e9a:	2312      	movs	r3, #18
10009e9c:	0002      	movs	r2, r0
10009e9e:	a908      	add	r1, sp, #32
10009ea0:	4650      	mov	r0, sl
10009ea2:	f000 fa3d 	bl	1000a320 <tud_control_xfer>
10009ea6:	e543      	b.n	10009930 <tud_task+0x300>
10009ea8:	4b1a      	ldr	r3, [pc, #104]	; (10009f14 <tud_task+0x8e4>)
10009eaa:	2b00      	cmp	r3, #0
10009eac:	d100      	bne.n	10009eb0 <tud_task+0x880>
10009eae:	e44c      	b.n	1000974a <tud_task+0x11a>
10009eb0:	e000      	b.n	10009eb4 <tud_task+0x884>
10009eb2:	bf00      	nop
10009eb4:	1e02      	subs	r2, r0, #0
10009eb6:	d100      	bne.n	10009eba <tud_task+0x88a>
10009eb8:	e447      	b.n	1000974a <tud_task+0x11a>
10009eba:	4650      	mov	r0, sl
10009ebc:	7813      	ldrb	r3, [r2, #0]
10009ebe:	a908      	add	r1, sp, #32
10009ec0:	f000 fa2e 	bl	1000a320 <tud_control_xfer>
10009ec4:	e534      	b.n	10009930 <tud_task+0x300>
10009ec6:	8921      	ldrh	r1, [r4, #8]
10009ec8:	f7fe fe1a 	bl	10008b00 <tud_descriptor_string_cb>
10009ecc:	1e02      	subs	r2, r0, #0
10009ece:	d1f4      	bne.n	10009eba <tud_task+0x88a>
10009ed0:	e43b      	b.n	1000974a <tud_task+0x11a>
10009ed2:	4642      	mov	r2, r8
10009ed4:	4b0b      	ldr	r3, [pc, #44]	; (10009f04 <tud_task+0x8d4>)
10009ed6:	6892      	ldr	r2, [r2, #8]
10009ed8:	429a      	cmp	r2, r3
10009eda:	d1b4      	bne.n	10009e46 <tud_task+0x816>
10009edc:	9b04      	ldr	r3, [sp, #16]
10009ede:	9300      	str	r3, [sp, #0]
10009ee0:	e7b1      	b.n	10009e46 <tud_task+0x816>
10009ee2:	4b0d      	ldr	r3, [pc, #52]	; (10009f18 <tud_task+0x8e8>)
10009ee4:	2b00      	cmp	r3, #0
10009ee6:	d100      	bne.n	10009eea <tud_task+0x8ba>
10009ee8:	e636      	b.n	10009b58 <tud_task+0x528>
10009eea:	e000      	b.n	10009eee <tud_task+0x8be>
10009eec:	bf00      	nop
10009eee:	e633      	b.n	10009b58 <tud_task+0x528>
10009ef0:	f7fe fe02 	bl	10008af8 <tud_descriptor_configuration_cb>
10009ef4:	0002      	movs	r2, r0
10009ef6:	e66d      	b.n	10009bd4 <tud_task+0x5a4>
10009ef8:	10008869 	.word	0x10008869
10009efc:	20012db8 	.word	0x20012db8
10009f00:	1000b930 	.word	0x1000b930
10009f04:	1000a739 	.word	0x1000a739
10009f08:	20000c44 	.word	0x20000c44
10009f0c:	1000a70d 	.word	0x1000a70d
	...

10009f1c <dcd_event_bus_signal>:
10009f1c:	b530      	push	{r4, r5, lr}
10009f1e:	b087      	sub	sp, #28
10009f20:	0005      	movs	r5, r0
10009f22:	000c      	movs	r4, r1
10009f24:	220c      	movs	r2, #12
10009f26:	2100      	movs	r1, #0
10009f28:	4668      	mov	r0, sp
10009f2a:	f7fe fa2f 	bl	1000838c <__wrap_memset>
10009f2e:	466b      	mov	r3, sp
10009f30:	701d      	strb	r5, [r3, #0]
10009f32:	705c      	strb	r4, [r3, #1]
10009f34:	2c04      	cmp	r4, #4
10009f36:	d04f      	beq.n	10009fd8 <dcd_event_bus_signal+0xbc>
10009f38:	d809      	bhi.n	10009f4e <dcd_event_bus_signal+0x32>
10009f3a:	2c02      	cmp	r4, #2
10009f3c:	d034      	beq.n	10009fa8 <dcd_event_bus_signal+0x8c>
10009f3e:	2c03      	cmp	r4, #3
10009f40:	d119      	bne.n	10009f76 <dcd_event_bus_signal+0x5a>
10009f42:	4b3c      	ldr	r3, [pc, #240]	; (1000a034 <dcd_event_bus_signal+0x118>)
10009f44:	781a      	ldrb	r2, [r3, #0]
10009f46:	0752      	lsls	r2, r2, #29
10009f48:	d458      	bmi.n	10009ffc <dcd_event_bus_signal+0xe0>
10009f4a:	b007      	add	sp, #28
10009f4c:	bd30      	pop	{r4, r5, pc}
10009f4e:	2c05      	cmp	r4, #5
10009f50:	d111      	bne.n	10009f76 <dcd_event_bus_signal+0x5a>
10009f52:	4b38      	ldr	r3, [pc, #224]	; (1000a034 <dcd_event_bus_signal+0x118>)
10009f54:	781a      	ldrb	r2, [r3, #0]
10009f56:	07d2      	lsls	r2, r2, #31
10009f58:	d5f7      	bpl.n	10009f4a <dcd_event_bus_signal+0x2e>
10009f5a:	2104      	movs	r1, #4
10009f5c:	781a      	ldrb	r2, [r3, #0]
10009f5e:	438a      	bics	r2, r1
10009f60:	701a      	strb	r2, [r3, #0]
10009f62:	4b35      	ldr	r3, [pc, #212]	; (1000a038 <dcd_event_bus_signal+0x11c>)
10009f64:	681c      	ldr	r4, [r3, #0]
10009f66:	69e2      	ldr	r2, [r4, #28]
10009f68:	f3ef 8110 	mrs	r1, PRIMASK
10009f6c:	b672      	cpsid	i
10009f6e:	6813      	ldr	r3, [r2, #0]
10009f70:	2b00      	cmp	r3, #0
10009f72:	d109      	bne.n	10009f88 <dcd_event_bus_signal+0x6c>
10009f74:	e7fb      	b.n	10009f6e <dcd_event_bus_signal+0x52>
10009f76:	4b30      	ldr	r3, [pc, #192]	; (1000a038 <dcd_event_bus_signal+0x11c>)
10009f78:	681c      	ldr	r4, [r3, #0]
10009f7a:	69e2      	ldr	r2, [r4, #28]
10009f7c:	f3ef 8110 	mrs	r1, PRIMASK
10009f80:	b672      	cpsid	i
10009f82:	6813      	ldr	r3, [r2, #0]
10009f84:	2b00      	cmp	r3, #0
10009f86:	d0fc      	beq.n	10009f82 <dcd_event_bus_signal+0x66>
10009f88:	f3bf 8f5f 	dmb	sy
10009f8c:	6221      	str	r1, [r4, #32]
10009f8e:	4669      	mov	r1, sp
10009f90:	0020      	movs	r0, r4
10009f92:	f000 fee5 	bl	1000ad60 <tu_fifo_write>
10009f96:	69e2      	ldr	r2, [r4, #28]
10009f98:	6a23      	ldr	r3, [r4, #32]
10009f9a:	f3bf 8f5f 	dmb	sy
10009f9e:	2100      	movs	r1, #0
10009fa0:	6011      	str	r1, [r2, #0]
10009fa2:	f383 8810 	msr	PRIMASK, r3
10009fa6:	e7d0      	b.n	10009f4a <dcd_event_bus_signal+0x2e>
10009fa8:	2101      	movs	r1, #1
10009faa:	4b22      	ldr	r3, [pc, #136]	; (1000a034 <dcd_event_bus_signal+0x118>)
10009fac:	781a      	ldrb	r2, [r3, #0]
10009fae:	438a      	bics	r2, r1
10009fb0:	701a      	strb	r2, [r3, #0]
10009fb2:	781a      	ldrb	r2, [r3, #0]
10009fb4:	3103      	adds	r1, #3
10009fb6:	43a2      	bics	r2, r4
10009fb8:	701a      	strb	r2, [r3, #0]
10009fba:	2200      	movs	r2, #0
10009fbc:	705a      	strb	r2, [r3, #1]
10009fbe:	781a      	ldrb	r2, [r3, #0]
10009fc0:	438a      	bics	r2, r1
10009fc2:	701a      	strb	r2, [r3, #0]
10009fc4:	4b1c      	ldr	r3, [pc, #112]	; (1000a038 <dcd_event_bus_signal+0x11c>)
10009fc6:	681c      	ldr	r4, [r3, #0]
10009fc8:	69e2      	ldr	r2, [r4, #28]
10009fca:	f3ef 8110 	mrs	r1, PRIMASK
10009fce:	b672      	cpsid	i
10009fd0:	6813      	ldr	r3, [r2, #0]
10009fd2:	2b00      	cmp	r3, #0
10009fd4:	d1d8      	bne.n	10009f88 <dcd_event_bus_signal+0x6c>
10009fd6:	e7fb      	b.n	10009fd0 <dcd_event_bus_signal+0xb4>
10009fd8:	4b16      	ldr	r3, [pc, #88]	; (1000a034 <dcd_event_bus_signal+0x118>)
10009fda:	781a      	ldrb	r2, [r3, #0]
10009fdc:	07d2      	lsls	r2, r2, #31
10009fde:	d5b4      	bpl.n	10009f4a <dcd_event_bus_signal+0x2e>
10009fe0:	2104      	movs	r1, #4
10009fe2:	781a      	ldrb	r2, [r3, #0]
10009fe4:	430a      	orrs	r2, r1
10009fe6:	701a      	strb	r2, [r3, #0]
10009fe8:	4b13      	ldr	r3, [pc, #76]	; (1000a038 <dcd_event_bus_signal+0x11c>)
10009fea:	681c      	ldr	r4, [r3, #0]
10009fec:	69e2      	ldr	r2, [r4, #28]
10009fee:	f3ef 8110 	mrs	r1, PRIMASK
10009ff2:	b672      	cpsid	i
10009ff4:	6813      	ldr	r3, [r2, #0]
10009ff6:	2b00      	cmp	r3, #0
10009ff8:	d1c6      	bne.n	10009f88 <dcd_event_bus_signal+0x6c>
10009ffa:	e7fb      	b.n	10009ff4 <dcd_event_bus_signal+0xd8>
10009ffc:	2104      	movs	r1, #4
10009ffe:	781a      	ldrb	r2, [r3, #0]
1000a000:	a803      	add	r0, sp, #12
1000a002:	438a      	bics	r2, r1
1000a004:	701a      	strb	r2, [r3, #0]
1000a006:	2100      	movs	r1, #0
1000a008:	220c      	movs	r2, #12
1000a00a:	f7fe f9bf 	bl	1000838c <__wrap_memset>
1000a00e:	466b      	mov	r3, sp
1000a010:	466a      	mov	r2, sp
1000a012:	731d      	strb	r5, [r3, #12]
1000a014:	2305      	movs	r3, #5
1000a016:	7353      	strb	r3, [r2, #13]
1000a018:	4b07      	ldr	r3, [pc, #28]	; (1000a038 <dcd_event_bus_signal+0x11c>)
1000a01a:	681c      	ldr	r4, [r3, #0]
1000a01c:	69e2      	ldr	r2, [r4, #28]
1000a01e:	f3ef 8110 	mrs	r1, PRIMASK
1000a022:	b672      	cpsid	i
1000a024:	6813      	ldr	r3, [r2, #0]
1000a026:	2b00      	cmp	r3, #0
1000a028:	d0fc      	beq.n	1000a024 <dcd_event_bus_signal+0x108>
1000a02a:	f3bf 8f5f 	dmb	sy
1000a02e:	6221      	str	r1, [r4, #32]
1000a030:	a903      	add	r1, sp, #12
1000a032:	e7ad      	b.n	10009f90 <dcd_event_bus_signal+0x74>
1000a034:	20000f7c 	.word	0x20000f7c
1000a038:	20000fd4 	.word	0x20000fd4

1000a03c <dcd_event_bus_reset>:
1000a03c:	b570      	push	{r4, r5, r6, lr}
1000a03e:	b084      	sub	sp, #16
1000a040:	ac01      	add	r4, sp, #4
1000a042:	0006      	movs	r6, r0
1000a044:	000d      	movs	r5, r1
1000a046:	220c      	movs	r2, #12
1000a048:	2100      	movs	r1, #0
1000a04a:	0020      	movs	r0, r4
1000a04c:	f7fe f99e 	bl	1000838c <__wrap_memset>
1000a050:	2301      	movs	r3, #1
1000a052:	7063      	strb	r3, [r4, #1]
1000a054:	4b0d      	ldr	r3, [pc, #52]	; (1000a08c <dcd_event_bus_reset+0x50>)
1000a056:	7125      	strb	r5, [r4, #4]
1000a058:	681d      	ldr	r5, [r3, #0]
1000a05a:	7026      	strb	r6, [r4, #0]
1000a05c:	69ea      	ldr	r2, [r5, #28]
1000a05e:	f3ef 8310 	mrs	r3, PRIMASK
1000a062:	b672      	cpsid	i
1000a064:	6811      	ldr	r1, [r2, #0]
1000a066:	2900      	cmp	r1, #0
1000a068:	d0fc      	beq.n	1000a064 <dcd_event_bus_reset+0x28>
1000a06a:	f3bf 8f5f 	dmb	sy
1000a06e:	622b      	str	r3, [r5, #32]
1000a070:	0021      	movs	r1, r4
1000a072:	0028      	movs	r0, r5
1000a074:	f000 fe74 	bl	1000ad60 <tu_fifo_write>
1000a078:	69ea      	ldr	r2, [r5, #28]
1000a07a:	6a2b      	ldr	r3, [r5, #32]
1000a07c:	f3bf 8f5f 	dmb	sy
1000a080:	2100      	movs	r1, #0
1000a082:	6011      	str	r1, [r2, #0]
1000a084:	f383 8810 	msr	PRIMASK, r3
1000a088:	b004      	add	sp, #16
1000a08a:	bd70      	pop	{r4, r5, r6, pc}
1000a08c:	20000fd4 	.word	0x20000fd4

1000a090 <dcd_event_setup_received>:
1000a090:	2300      	movs	r3, #0
1000a092:	b530      	push	{r4, r5, lr}
1000a094:	b085      	sub	sp, #20
1000a096:	ad01      	add	r5, sp, #4
1000a098:	806b      	strh	r3, [r5, #2]
1000a09a:	7028      	strb	r0, [r5, #0]
1000a09c:	3306      	adds	r3, #6
1000a09e:	2208      	movs	r2, #8
1000a0a0:	a802      	add	r0, sp, #8
1000a0a2:	706b      	strb	r3, [r5, #1]
1000a0a4:	f7fe f978 	bl	10008398 <__wrap___aeabi_memcpy>
1000a0a8:	4b0c      	ldr	r3, [pc, #48]	; (1000a0dc <dcd_event_setup_received+0x4c>)
1000a0aa:	681c      	ldr	r4, [r3, #0]
1000a0ac:	69e2      	ldr	r2, [r4, #28]
1000a0ae:	f3ef 8310 	mrs	r3, PRIMASK
1000a0b2:	b672      	cpsid	i
1000a0b4:	6811      	ldr	r1, [r2, #0]
1000a0b6:	2900      	cmp	r1, #0
1000a0b8:	d0fc      	beq.n	1000a0b4 <dcd_event_setup_received+0x24>
1000a0ba:	f3bf 8f5f 	dmb	sy
1000a0be:	6223      	str	r3, [r4, #32]
1000a0c0:	0029      	movs	r1, r5
1000a0c2:	0020      	movs	r0, r4
1000a0c4:	f000 fe4c 	bl	1000ad60 <tu_fifo_write>
1000a0c8:	69e2      	ldr	r2, [r4, #28]
1000a0ca:	6a23      	ldr	r3, [r4, #32]
1000a0cc:	f3bf 8f5f 	dmb	sy
1000a0d0:	2100      	movs	r1, #0
1000a0d2:	6011      	str	r1, [r2, #0]
1000a0d4:	f383 8810 	msr	PRIMASK, r3
1000a0d8:	b005      	add	sp, #20
1000a0da:	bd30      	pop	{r4, r5, pc}
1000a0dc:	20000fd4 	.word	0x20000fd4

1000a0e0 <dcd_event_xfer_complete>:
1000a0e0:	b5f0      	push	{r4, r5, r6, r7, lr}
1000a0e2:	46c6      	mov	lr, r8
1000a0e4:	4680      	mov	r8, r0
1000a0e6:	b500      	push	{lr}
1000a0e8:	b084      	sub	sp, #16
1000a0ea:	ac01      	add	r4, sp, #4
1000a0ec:	000f      	movs	r7, r1
1000a0ee:	0016      	movs	r6, r2
1000a0f0:	2100      	movs	r1, #0
1000a0f2:	2208      	movs	r2, #8
1000a0f4:	0020      	movs	r0, r4
1000a0f6:	001d      	movs	r5, r3
1000a0f8:	f7fe f948 	bl	1000838c <__wrap_memset>
1000a0fc:	4643      	mov	r3, r8
1000a0fe:	7023      	strb	r3, [r4, #0]
1000a100:	2307      	movs	r3, #7
1000a102:	7063      	strb	r3, [r4, #1]
1000a104:	4b0f      	ldr	r3, [pc, #60]	; (1000a144 <dcd_event_xfer_complete+0x64>)
1000a106:	7165      	strb	r5, [r4, #5]
1000a108:	681d      	ldr	r5, [r3, #0]
1000a10a:	7127      	strb	r7, [r4, #4]
1000a10c:	60a6      	str	r6, [r4, #8]
1000a10e:	69ea      	ldr	r2, [r5, #28]
1000a110:	f3ef 8310 	mrs	r3, PRIMASK
1000a114:	b672      	cpsid	i
1000a116:	6811      	ldr	r1, [r2, #0]
1000a118:	2900      	cmp	r1, #0
1000a11a:	d0fc      	beq.n	1000a116 <dcd_event_xfer_complete+0x36>
1000a11c:	f3bf 8f5f 	dmb	sy
1000a120:	622b      	str	r3, [r5, #32]
1000a122:	0021      	movs	r1, r4
1000a124:	0028      	movs	r0, r5
1000a126:	f000 fe1b 	bl	1000ad60 <tu_fifo_write>
1000a12a:	69ea      	ldr	r2, [r5, #28]
1000a12c:	6a2b      	ldr	r3, [r5, #32]
1000a12e:	f3bf 8f5f 	dmb	sy
1000a132:	2100      	movs	r1, #0
1000a134:	6011      	str	r1, [r2, #0]
1000a136:	f383 8810 	msr	PRIMASK, r3
1000a13a:	b004      	add	sp, #16
1000a13c:	bc80      	pop	{r7}
1000a13e:	46b8      	mov	r8, r7
1000a140:	bdf0      	pop	{r4, r5, r6, r7, pc}
1000a142:	46c0      	nop			; (mov r8, r8)
1000a144:	20000fd4 	.word	0x20000fd4

1000a148 <usbd_open_edpt_pair>:
1000a148:	b5f0      	push	{r4, r5, r6, r7, lr}
1000a14a:	4646      	mov	r6, r8
1000a14c:	46d6      	mov	lr, sl
1000a14e:	464f      	mov	r7, r9
1000a150:	4680      	mov	r8, r0
1000a152:	b5c0      	push	{r6, r7, lr}
1000a154:	000c      	movs	r4, r1
1000a156:	0015      	movs	r5, r2
1000a158:	001e      	movs	r6, r3
1000a15a:	2a00      	cmp	r2, #0
1000a15c:	d02e      	beq.n	1000a1bc <usbd_open_edpt_pair+0x74>
1000a15e:	2370      	movs	r3, #112	; 0x70
1000a160:	4699      	mov	r9, r3
1000a162:	4b18      	ldr	r3, [pc, #96]	; (1000a1c4 <usbd_open_edpt_pair+0x7c>)
1000a164:	2700      	movs	r7, #0
1000a166:	469a      	mov	sl, r3
1000a168:	7863      	ldrb	r3, [r4, #1]
1000a16a:	2b05      	cmp	r3, #5
1000a16c:	d10f      	bne.n	1000a18e <usbd_open_edpt_pair+0x46>
1000a16e:	78e1      	ldrb	r1, [r4, #3]
1000a170:	0789      	lsls	r1, r1, #30
1000a172:	0f89      	lsrs	r1, r1, #30
1000a174:	42b1      	cmp	r1, r6
1000a176:	d10a      	bne.n	1000a18e <usbd_open_edpt_pair+0x46>
1000a178:	464a      	mov	r2, r9
1000a17a:	78a3      	ldrb	r3, [r4, #2]
1000a17c:	421a      	tst	r2, r3
1000a17e:	d106      	bne.n	1000a18e <usbd_open_edpt_pair+0x46>
1000a180:	4653      	mov	r3, sl
1000a182:	0020      	movs	r0, r4
1000a184:	7899      	ldrb	r1, [r3, #2]
1000a186:	f000 fc69 	bl	1000aa5c <tu_edpt_validate>
1000a18a:	2800      	cmp	r0, #0
1000a18c:	d105      	bne.n	1000a19a <usbd_open_edpt_pair+0x52>
1000a18e:	2000      	movs	r0, #0
1000a190:	bce0      	pop	{r5, r6, r7}
1000a192:	46ba      	mov	sl, r7
1000a194:	46b1      	mov	r9, r6
1000a196:	46a8      	mov	r8, r5
1000a198:	bdf0      	pop	{r4, r5, r6, r7, pc}
1000a19a:	0021      	movs	r1, r4
1000a19c:	4640      	mov	r0, r8
1000a19e:	f7fe febf 	bl	10008f20 <dcd_edpt_open>
1000a1a2:	2800      	cmp	r0, #0
1000a1a4:	d0f3      	beq.n	1000a18e <usbd_open_edpt_pair+0x46>
1000a1a6:	78a3      	ldrb	r3, [r4, #2]
1000a1a8:	09da      	lsrs	r2, r3, #7
1000a1aa:	2a01      	cmp	r2, #1
1000a1ac:	d008      	beq.n	1000a1c0 <usbd_open_edpt_pair+0x78>
1000a1ae:	9a08      	ldr	r2, [sp, #32]
1000a1b0:	7013      	strb	r3, [r2, #0]
1000a1b2:	7823      	ldrb	r3, [r4, #0]
1000a1b4:	3701      	adds	r7, #1
1000a1b6:	18e4      	adds	r4, r4, r3
1000a1b8:	42af      	cmp	r7, r5
1000a1ba:	dbd5      	blt.n	1000a168 <usbd_open_edpt_pair+0x20>
1000a1bc:	2001      	movs	r0, #1
1000a1be:	e7e7      	b.n	1000a190 <usbd_open_edpt_pair+0x48>
1000a1c0:	9a09      	ldr	r2, [sp, #36]	; 0x24
1000a1c2:	e7f5      	b.n	1000a1b0 <usbd_open_edpt_pair+0x68>
1000a1c4:	20000f7c 	.word	0x20000f7c

1000a1c8 <usbd_edpt_open>:
1000a1c8:	2270      	movs	r2, #112	; 0x70
1000a1ca:	b570      	push	{r4, r5, r6, lr}
1000a1cc:	788b      	ldrb	r3, [r1, #2]
1000a1ce:	0005      	movs	r5, r0
1000a1d0:	000c      	movs	r4, r1
1000a1d2:	421a      	tst	r2, r3
1000a1d4:	d001      	beq.n	1000a1da <usbd_edpt_open+0x12>
1000a1d6:	2000      	movs	r0, #0
1000a1d8:	bd70      	pop	{r4, r5, r6, pc}
1000a1da:	4b06      	ldr	r3, [pc, #24]	; (1000a1f4 <usbd_edpt_open+0x2c>)
1000a1dc:	0020      	movs	r0, r4
1000a1de:	7899      	ldrb	r1, [r3, #2]
1000a1e0:	f000 fc3c 	bl	1000aa5c <tu_edpt_validate>
1000a1e4:	2800      	cmp	r0, #0
1000a1e6:	d0f6      	beq.n	1000a1d6 <usbd_edpt_open+0xe>
1000a1e8:	0021      	movs	r1, r4
1000a1ea:	0028      	movs	r0, r5
1000a1ec:	f7fe fe98 	bl	10008f20 <dcd_edpt_open>
1000a1f0:	e7f2      	b.n	1000a1d8 <usbd_edpt_open+0x10>
1000a1f2:	46c0      	nop			; (mov r8, r8)
1000a1f4:	20000f7c 	.word	0x20000f7c

1000a1f8 <usbd_edpt_claim>:
1000a1f8:	b570      	push	{r4, r5, r6, lr}
1000a1fa:	247f      	movs	r4, #127	; 0x7f
1000a1fc:	400c      	ands	r4, r1
1000a1fe:	0063      	lsls	r3, r4, #1
1000a200:	4c14      	ldr	r4, [pc, #80]	; (1000a254 <usbd_edpt_claim+0x5c>)
1000a202:	09c9      	lsrs	r1, r1, #7
1000a204:	18e4      	adds	r4, r4, r3
1000a206:	1864      	adds	r4, r4, r1
1000a208:	3430      	adds	r4, #48	; 0x30
1000a20a:	78e3      	ldrb	r3, [r4, #3]
1000a20c:	07db      	lsls	r3, r3, #31
1000a20e:	0fdd      	lsrs	r5, r3, #31
1000a210:	2b00      	cmp	r3, #0
1000a212:	d118      	bne.n	1000a246 <usbd_edpt_claim+0x4e>
1000a214:	78e3      	ldrb	r3, [r4, #3]
1000a216:	075b      	lsls	r3, r3, #29
1000a218:	d501      	bpl.n	1000a21e <usbd_edpt_claim+0x26>
1000a21a:	0028      	movs	r0, r5
1000a21c:	bd70      	pop	{r4, r5, r6, pc}
1000a21e:	2101      	movs	r1, #1
1000a220:	4e0d      	ldr	r6, [pc, #52]	; (1000a258 <usbd_edpt_claim+0x60>)
1000a222:	4249      	negs	r1, r1
1000a224:	6830      	ldr	r0, [r6, #0]
1000a226:	f001 f817 	bl	1000b258 <__mutex_enter_timeout_ms_veneer>
1000a22a:	78e3      	ldrb	r3, [r4, #3]
1000a22c:	07db      	lsls	r3, r3, #31
1000a22e:	0fdd      	lsrs	r5, r3, #31
1000a230:	2b00      	cmp	r3, #0
1000a232:	d10a      	bne.n	1000a24a <usbd_edpt_claim+0x52>
1000a234:	78e3      	ldrb	r3, [r4, #3]
1000a236:	075b      	lsls	r3, r3, #29
1000a238:	d408      	bmi.n	1000a24c <usbd_edpt_claim+0x54>
1000a23a:	2204      	movs	r2, #4
1000a23c:	78e3      	ldrb	r3, [r4, #3]
1000a23e:	2501      	movs	r5, #1
1000a240:	4313      	orrs	r3, r2
1000a242:	70e3      	strb	r3, [r4, #3]
1000a244:	e002      	b.n	1000a24c <usbd_edpt_claim+0x54>
1000a246:	2500      	movs	r5, #0
1000a248:	e7e7      	b.n	1000a21a <usbd_edpt_claim+0x22>
1000a24a:	2500      	movs	r5, #0
1000a24c:	6830      	ldr	r0, [r6, #0]
1000a24e:	f000 ffe3 	bl	1000b218 <__mutex_exit_veneer>
1000a252:	e7e2      	b.n	1000a21a <usbd_edpt_claim+0x22>
1000a254:	20000f7c 	.word	0x20000f7c
1000a258:	20000fd0 	.word	0x20000fd0

1000a25c <usbd_edpt_release>:
1000a25c:	b570      	push	{r4, r5, r6, lr}
1000a25e:	000c      	movs	r4, r1
1000a260:	2101      	movs	r1, #1
1000a262:	4d0f      	ldr	r5, [pc, #60]	; (1000a2a0 <usbd_edpt_release+0x44>)
1000a264:	4249      	negs	r1, r1
1000a266:	6828      	ldr	r0, [r5, #0]
1000a268:	f000 fff6 	bl	1000b258 <__mutex_enter_timeout_ms_veneer>
1000a26c:	217f      	movs	r1, #127	; 0x7f
1000a26e:	4021      	ands	r1, r4
1000a270:	004b      	lsls	r3, r1, #1
1000a272:	490c      	ldr	r1, [pc, #48]	; (1000a2a4 <usbd_edpt_release+0x48>)
1000a274:	09e4      	lsrs	r4, r4, #7
1000a276:	18c9      	adds	r1, r1, r3
1000a278:	1909      	adds	r1, r1, r4
1000a27a:	3130      	adds	r1, #48	; 0x30
1000a27c:	78cb      	ldrb	r3, [r1, #3]
1000a27e:	2400      	movs	r4, #0
1000a280:	07db      	lsls	r3, r3, #31
1000a282:	d408      	bmi.n	1000a296 <usbd_edpt_release+0x3a>
1000a284:	78cb      	ldrb	r3, [r1, #3]
1000a286:	075b      	lsls	r3, r3, #29
1000a288:	0fdc      	lsrs	r4, r3, #31
1000a28a:	2b00      	cmp	r3, #0
1000a28c:	da03      	bge.n	1000a296 <usbd_edpt_release+0x3a>
1000a28e:	2204      	movs	r2, #4
1000a290:	78cb      	ldrb	r3, [r1, #3]
1000a292:	4393      	bics	r3, r2
1000a294:	70cb      	strb	r3, [r1, #3]
1000a296:	6828      	ldr	r0, [r5, #0]
1000a298:	f000 ffbe 	bl	1000b218 <__mutex_exit_veneer>
1000a29c:	0020      	movs	r0, r4
1000a29e:	bd70      	pop	{r4, r5, r6, pc}
1000a2a0:	20000fd0 	.word	0x20000fd0
1000a2a4:	20000f7c 	.word	0x20000f7c

1000a2a8 <usbd_edpt_xfer>:
1000a2a8:	b570      	push	{r4, r5, r6, lr}
1000a2aa:	257f      	movs	r5, #127	; 0x7f
1000a2ac:	4c0f      	ldr	r4, [pc, #60]	; (1000a2ec <usbd_edpt_xfer+0x44>)
1000a2ae:	400d      	ands	r5, r1
1000a2b0:	006d      	lsls	r5, r5, #1
1000a2b2:	1964      	adds	r4, r4, r5
1000a2b4:	0006      	movs	r6, r0
1000a2b6:	09c8      	lsrs	r0, r1, #7
1000a2b8:	1824      	adds	r4, r4, r0
1000a2ba:	3430      	adds	r4, #48	; 0x30
1000a2bc:	78e5      	ldrb	r5, [r4, #3]
1000a2be:	2000      	movs	r0, #0
1000a2c0:	07ed      	lsls	r5, r5, #31
1000a2c2:	d500      	bpl.n	1000a2c6 <usbd_edpt_xfer+0x1e>
1000a2c4:	bd70      	pop	{r4, r5, r6, pc}
1000a2c6:	2501      	movs	r5, #1
1000a2c8:	78e0      	ldrb	r0, [r4, #3]
1000a2ca:	4328      	orrs	r0, r5
1000a2cc:	70e0      	strb	r0, [r4, #3]
1000a2ce:	0030      	movs	r0, r6
1000a2d0:	f7fe fefc 	bl	100090cc <dcd_edpt_xfer>
1000a2d4:	2800      	cmp	r0, #0
1000a2d6:	d1f5      	bne.n	1000a2c4 <usbd_edpt_xfer+0x1c>
1000a2d8:	2201      	movs	r2, #1
1000a2da:	78e3      	ldrb	r3, [r4, #3]
1000a2dc:	4393      	bics	r3, r2
1000a2de:	70e3      	strb	r3, [r4, #3]
1000a2e0:	78e3      	ldrb	r3, [r4, #3]
1000a2e2:	3203      	adds	r2, #3
1000a2e4:	4393      	bics	r3, r2
1000a2e6:	70e3      	strb	r3, [r4, #3]
1000a2e8:	e7ec      	b.n	1000a2c4 <usbd_edpt_xfer+0x1c>
1000a2ea:	46c0      	nop			; (mov r8, r8)
1000a2ec:	20000f7c 	.word	0x20000f7c

1000a2f0 <tud_control_status>:
1000a2f0:	b570      	push	{r4, r5, r6, lr}
1000a2f2:	4e0a      	ldr	r6, [pc, #40]	; (1000a31c <tud_control_status+0x2c>)
1000a2f4:	0005      	movs	r5, r0
1000a2f6:	0030      	movs	r0, r6
1000a2f8:	2208      	movs	r2, #8
1000a2fa:	000c      	movs	r4, r1
1000a2fc:	f7fe f84c 	bl	10008398 <__wrap___aeabi_memcpy>
1000a300:	2300      	movs	r3, #0
1000a302:	217f      	movs	r1, #127	; 0x7f
1000a304:	60f3      	str	r3, [r6, #12]
1000a306:	7822      	ldrb	r2, [r4, #0]
1000a308:	60b3      	str	r3, [r6, #8]
1000a30a:	4291      	cmp	r1, r2
1000a30c:	415b      	adcs	r3, r3
1000a30e:	0028      	movs	r0, r5
1000a310:	01d9      	lsls	r1, r3, #7
1000a312:	2200      	movs	r2, #0
1000a314:	2300      	movs	r3, #0
1000a316:	f7ff ffc7 	bl	1000a2a8 <usbd_edpt_xfer>
1000a31a:	bd70      	pop	{r4, r5, r6, pc}
1000a31c:	20000f20 	.word	0x20000f20

1000a320 <tud_control_xfer>:
1000a320:	b5f8      	push	{r3, r4, r5, r6, r7, lr}
1000a322:	46ce      	mov	lr, r9
1000a324:	4647      	mov	r7, r8
1000a326:	4691      	mov	r9, r2
1000a328:	4e2a      	ldr	r6, [pc, #168]	; (1000a3d4 <tud_control_xfer+0xb4>)
1000a32a:	b580      	push	{r7, lr}
1000a32c:	2208      	movs	r2, #8
1000a32e:	0007      	movs	r7, r0
1000a330:	0030      	movs	r0, r6
1000a332:	000d      	movs	r5, r1
1000a334:	4698      	mov	r8, r3
1000a336:	f7fe f82f 	bl	10008398 <__wrap___aeabi_memcpy>
1000a33a:	464b      	mov	r3, r9
1000a33c:	60b3      	str	r3, [r6, #8]
1000a33e:	2300      	movs	r3, #0
1000a340:	81f3      	strh	r3, [r6, #14]
1000a342:	79ec      	ldrb	r4, [r5, #7]
1000a344:	79a9      	ldrb	r1, [r5, #6]
1000a346:	0224      	lsls	r4, r4, #8
1000a348:	430c      	orrs	r4, r1
1000a34a:	1c23      	adds	r3, r4, #0
1000a34c:	4544      	cmp	r4, r8
1000a34e:	d900      	bls.n	1000a352 <tud_control_xfer+0x32>
1000a350:	4643      	mov	r3, r8
1000a352:	b29a      	uxth	r2, r3
1000a354:	4690      	mov	r8, r2
1000a356:	81b3      	strh	r3, [r6, #12]
1000a358:	2c00      	cmp	r4, #0
1000a35a:	d013      	beq.n	1000a384 <tud_control_xfer+0x64>
1000a35c:	2a00      	cmp	r2, #0
1000a35e:	d01f      	beq.n	1000a3a0 <tud_control_xfer+0x80>
1000a360:	464b      	mov	r3, r9
1000a362:	2b00      	cmp	r3, #0
1000a364:	d034      	beq.n	1000a3d0 <tud_control_xfer+0xb0>
1000a366:	1c13      	adds	r3, r2, #0
1000a368:	2a40      	cmp	r2, #64	; 0x40
1000a36a:	d81f      	bhi.n	1000a3ac <tud_control_xfer+0x8c>
1000a36c:	b29b      	uxth	r3, r3
1000a36e:	4698      	mov	r8, r3
1000a370:	7833      	ldrb	r3, [r6, #0]
1000a372:	2b7f      	cmp	r3, #127	; 0x7f
1000a374:	d820      	bhi.n	1000a3b8 <tud_control_xfer+0x98>
1000a376:	2100      	movs	r1, #0
1000a378:	4a17      	ldr	r2, [pc, #92]	; (1000a3d8 <tud_control_xfer+0xb8>)
1000a37a:	4643      	mov	r3, r8
1000a37c:	0038      	movs	r0, r7
1000a37e:	f7ff ff93 	bl	1000a2a8 <usbd_edpt_xfer>
1000a382:	e009      	b.n	1000a398 <tud_control_xfer+0x78>
1000a384:	227f      	movs	r2, #127	; 0x7f
1000a386:	782b      	ldrb	r3, [r5, #0]
1000a388:	0038      	movs	r0, r7
1000a38a:	429a      	cmp	r2, r3
1000a38c:	4164      	adcs	r4, r4
1000a38e:	2300      	movs	r3, #0
1000a390:	2200      	movs	r2, #0
1000a392:	01e1      	lsls	r1, r4, #7
1000a394:	f7ff ff88 	bl	1000a2a8 <usbd_edpt_xfer>
1000a398:	bcc0      	pop	{r6, r7}
1000a39a:	46b9      	mov	r9, r7
1000a39c:	46b0      	mov	r8, r6
1000a39e:	bdf8      	pop	{r3, r4, r5, r6, r7, pc}
1000a3a0:	7833      	ldrb	r3, [r6, #0]
1000a3a2:	2b7f      	cmp	r3, #127	; 0x7f
1000a3a4:	d911      	bls.n	1000a3ca <tud_control_xfer+0xaa>
1000a3a6:	2180      	movs	r1, #128	; 0x80
1000a3a8:	2200      	movs	r2, #0
1000a3aa:	e7e6      	b.n	1000a37a <tud_control_xfer+0x5a>
1000a3ac:	2340      	movs	r3, #64	; 0x40
1000a3ae:	b29b      	uxth	r3, r3
1000a3b0:	4698      	mov	r8, r3
1000a3b2:	7833      	ldrb	r3, [r6, #0]
1000a3b4:	2b7f      	cmp	r3, #127	; 0x7f
1000a3b6:	d9de      	bls.n	1000a376 <tud_control_xfer+0x56>
1000a3b8:	4c07      	ldr	r4, [pc, #28]	; (1000a3d8 <tud_control_xfer+0xb8>)
1000a3ba:	4642      	mov	r2, r8
1000a3bc:	4649      	mov	r1, r9
1000a3be:	0020      	movs	r0, r4
1000a3c0:	f7fd ffea 	bl	10008398 <__wrap___aeabi_memcpy>
1000a3c4:	2180      	movs	r1, #128	; 0x80
1000a3c6:	0022      	movs	r2, r4
1000a3c8:	e7d7      	b.n	1000a37a <tud_control_xfer+0x5a>
1000a3ca:	2100      	movs	r1, #0
1000a3cc:	2200      	movs	r2, #0
1000a3ce:	e7d4      	b.n	1000a37a <tud_control_xfer+0x5a>
1000a3d0:	2000      	movs	r0, #0
1000a3d2:	e7e1      	b.n	1000a398 <tud_control_xfer+0x78>
1000a3d4:	20000f20 	.word	0x20000f20
1000a3d8:	20000f3c 	.word	0x20000f3c

1000a3dc <usbd_control_reset>:
1000a3dc:	b510      	push	{r4, lr}
1000a3de:	2214      	movs	r2, #20
1000a3e0:	2100      	movs	r1, #0
1000a3e2:	4802      	ldr	r0, [pc, #8]	; (1000a3ec <usbd_control_reset+0x10>)
1000a3e4:	f7fd ffd2 	bl	1000838c <__wrap_memset>
1000a3e8:	bd10      	pop	{r4, pc}
1000a3ea:	46c0      	nop			; (mov r8, r8)
1000a3ec:	20000f20 	.word	0x20000f20

1000a3f0 <usbd_control_set_complete_callback>:
1000a3f0:	4b01      	ldr	r3, [pc, #4]	; (1000a3f8 <usbd_control_set_complete_callback+0x8>)
1000a3f2:	6118      	str	r0, [r3, #16]
1000a3f4:	4770      	bx	lr
1000a3f6:	46c0      	nop			; (mov r8, r8)
1000a3f8:	20000f20 	.word	0x20000f20

1000a3fc <usbd_control_set_request>:
1000a3fc:	b510      	push	{r4, lr}
1000a3fe:	4c05      	ldr	r4, [pc, #20]	; (1000a414 <usbd_control_set_request+0x18>)
1000a400:	0001      	movs	r1, r0
1000a402:	2208      	movs	r2, #8
1000a404:	0020      	movs	r0, r4
1000a406:	f7fd ffc7 	bl	10008398 <__wrap___aeabi_memcpy>
1000a40a:	2300      	movs	r3, #0
1000a40c:	60a3      	str	r3, [r4, #8]
1000a40e:	60e3      	str	r3, [r4, #12]
1000a410:	bd10      	pop	{r4, pc}
1000a412:	46c0      	nop			; (mov r8, r8)
1000a414:	20000f20 	.word	0x20000f20

1000a418 <usbd_control_xfer_cb>:
1000a418:	b5f8      	push	{r3, r4, r5, r6, r7, lr}
1000a41a:	4c3b      	ldr	r4, [pc, #236]	; (1000a508 <usbd_control_xfer_cb+0xf0>)
1000a41c:	001d      	movs	r5, r3
1000a41e:	7823      	ldrb	r3, [r4, #0]
1000a420:	0006      	movs	r6, r0
1000a422:	09da      	lsrs	r2, r3, #7
1000a424:	09c9      	lsrs	r1, r1, #7
1000a426:	428a      	cmp	r2, r1
1000a428:	d013      	beq.n	1000a452 <usbd_control_xfer_cb+0x3a>
1000a42a:	2000      	movs	r0, #0
1000a42c:	2d00      	cmp	r5, #0
1000a42e:	d000      	beq.n	1000a432 <usbd_control_xfer_cb+0x1a>
1000a430:	bdf8      	pop	{r3, r4, r5, r6, r7, pc}
1000a432:	4b36      	ldr	r3, [pc, #216]	; (1000a50c <usbd_control_xfer_cb+0xf4>)
1000a434:	2b00      	cmp	r3, #0
1000a436:	d003      	beq.n	1000a440 <usbd_control_xfer_cb+0x28>
1000a438:	0021      	movs	r1, r4
1000a43a:	0030      	movs	r0, r6
1000a43c:	f7fe fd62 	bl	10008f04 <dcd_edpt0_status_complete>
1000a440:	6923      	ldr	r3, [r4, #16]
1000a442:	2b00      	cmp	r3, #0
1000a444:	d044      	beq.n	1000a4d0 <usbd_control_xfer_cb+0xb8>
1000a446:	0022      	movs	r2, r4
1000a448:	2102      	movs	r1, #2
1000a44a:	0030      	movs	r0, r6
1000a44c:	4798      	blx	r3
1000a44e:	2001      	movs	r0, #1
1000a450:	e7ee      	b.n	1000a430 <usbd_control_xfer_cb+0x18>
1000a452:	2b7f      	cmp	r3, #127	; 0x7f
1000a454:	d806      	bhi.n	1000a464 <usbd_control_xfer_cb+0x4c>
1000a456:	68a0      	ldr	r0, [r4, #8]
1000a458:	2800      	cmp	r0, #0
1000a45a:	d037      	beq.n	1000a4cc <usbd_control_xfer_cb+0xb4>
1000a45c:	002a      	movs	r2, r5
1000a45e:	492c      	ldr	r1, [pc, #176]	; (1000a510 <usbd_control_xfer_cb+0xf8>)
1000a460:	f7fd ff9a 	bl	10008398 <__wrap___aeabi_memcpy>
1000a464:	68a3      	ldr	r3, [r4, #8]
1000a466:	89e2      	ldrh	r2, [r4, #14]
1000a468:	1959      	adds	r1, r3, r5
1000a46a:	1952      	adds	r2, r2, r5
1000a46c:	88e3      	ldrh	r3, [r4, #6]
1000a46e:	b292      	uxth	r2, r2
1000a470:	81e2      	strh	r2, [r4, #14]
1000a472:	60a1      	str	r1, [r4, #8]
1000a474:	4293      	cmp	r3, r2
1000a476:	d014      	beq.n	1000a4a2 <usbd_control_xfer_cb+0x8a>
1000a478:	2d3f      	cmp	r5, #63	; 0x3f
1000a47a:	d912      	bls.n	1000a4a2 <usbd_control_xfer_cb+0x8a>
1000a47c:	89a5      	ldrh	r5, [r4, #12]
1000a47e:	1aa8      	subs	r0, r5, r2
1000a480:	1c07      	adds	r7, r0, #0
1000a482:	b280      	uxth	r0, r0
1000a484:	2840      	cmp	r0, #64	; 0x40
1000a486:	d82f      	bhi.n	1000a4e8 <usbd_control_xfer_cb+0xd0>
1000a488:	7823      	ldrb	r3, [r4, #0]
1000a48a:	b2bf      	uxth	r7, r7
1000a48c:	2b7f      	cmp	r3, #127	; 0x7f
1000a48e:	d82d      	bhi.n	1000a4ec <usbd_control_xfer_cb+0xd4>
1000a490:	2100      	movs	r1, #0
1000a492:	42aa      	cmp	r2, r5
1000a494:	d035      	beq.n	1000a502 <usbd_control_xfer_cb+0xea>
1000a496:	4a1e      	ldr	r2, [pc, #120]	; (1000a510 <usbd_control_xfer_cb+0xf8>)
1000a498:	003b      	movs	r3, r7
1000a49a:	0030      	movs	r0, r6
1000a49c:	f7ff ff04 	bl	1000a2a8 <usbd_edpt_xfer>
1000a4a0:	e7c6      	b.n	1000a430 <usbd_control_xfer_cb+0x18>
1000a4a2:	6923      	ldr	r3, [r4, #16]
1000a4a4:	2b00      	cmp	r3, #0
1000a4a6:	d005      	beq.n	1000a4b4 <usbd_control_xfer_cb+0x9c>
1000a4a8:	0022      	movs	r2, r4
1000a4aa:	2101      	movs	r1, #1
1000a4ac:	0030      	movs	r0, r6
1000a4ae:	4798      	blx	r3
1000a4b0:	2800      	cmp	r0, #0
1000a4b2:	d00f      	beq.n	1000a4d4 <usbd_control_xfer_cb+0xbc>
1000a4b4:	227f      	movs	r2, #127	; 0x7f
1000a4b6:	2100      	movs	r1, #0
1000a4b8:	7823      	ldrb	r3, [r4, #0]
1000a4ba:	0030      	movs	r0, r6
1000a4bc:	429a      	cmp	r2, r3
1000a4be:	4149      	adcs	r1, r1
1000a4c0:	2300      	movs	r3, #0
1000a4c2:	2200      	movs	r2, #0
1000a4c4:	01c9      	lsls	r1, r1, #7
1000a4c6:	f7ff feef 	bl	1000a2a8 <usbd_edpt_xfer>
1000a4ca:	e7b1      	b.n	1000a430 <usbd_control_xfer_cb+0x18>
1000a4cc:	2000      	movs	r0, #0
1000a4ce:	e7af      	b.n	1000a430 <usbd_control_xfer_cb+0x18>
1000a4d0:	2001      	movs	r0, #1
1000a4d2:	e7ad      	b.n	1000a430 <usbd_control_xfer_cb+0x18>
1000a4d4:	2100      	movs	r1, #0
1000a4d6:	0030      	movs	r0, r6
1000a4d8:	f7fe fe0a 	bl	100090f0 <dcd_edpt_stall>
1000a4dc:	0030      	movs	r0, r6
1000a4de:	2180      	movs	r1, #128	; 0x80
1000a4e0:	f7fe fe06 	bl	100090f0 <dcd_edpt_stall>
1000a4e4:	2001      	movs	r0, #1
1000a4e6:	e7a3      	b.n	1000a430 <usbd_control_xfer_cb+0x18>
1000a4e8:	2740      	movs	r7, #64	; 0x40
1000a4ea:	e7cd      	b.n	1000a488 <usbd_control_xfer_cb+0x70>
1000a4ec:	42aa      	cmp	r2, r5
1000a4ee:	d007      	beq.n	1000a500 <usbd_control_xfer_cb+0xe8>
1000a4f0:	4c07      	ldr	r4, [pc, #28]	; (1000a510 <usbd_control_xfer_cb+0xf8>)
1000a4f2:	003a      	movs	r2, r7
1000a4f4:	0020      	movs	r0, r4
1000a4f6:	f7fd ff4f 	bl	10008398 <__wrap___aeabi_memcpy>
1000a4fa:	2180      	movs	r1, #128	; 0x80
1000a4fc:	0022      	movs	r2, r4
1000a4fe:	e7cb      	b.n	1000a498 <usbd_control_xfer_cb+0x80>
1000a500:	2180      	movs	r1, #128	; 0x80
1000a502:	2200      	movs	r2, #0
1000a504:	e7c8      	b.n	1000a498 <usbd_control_xfer_cb+0x80>
1000a506:	46c0      	nop			; (mov r8, r8)
1000a508:	20000f20 	.word	0x20000f20
1000a50c:	10008f05 	.word	0x10008f05
1000a510:	20000f3c 	.word	0x20000f3c

1000a514 <tud_cdc_n_connected>:
1000a514:	b510      	push	{r4, lr}
1000a516:	0004      	movs	r4, r0
1000a518:	f7ff f808 	bl	1000952c <tud_mounted>
1000a51c:	2800      	cmp	r0, #0
1000a51e:	d101      	bne.n	1000a524 <tud_cdc_n_connected+0x10>
1000a520:	2000      	movs	r0, #0
1000a522:	bd10      	pop	{r4, pc}
1000a524:	f7ff f80a 	bl	1000953c <tud_suspended>
1000a528:	2800      	cmp	r0, #0
1000a52a:	d1f9      	bne.n	1000a520 <tud_cdc_n_connected+0xc>
1000a52c:	20b6      	movs	r0, #182	; 0xb6
1000a52e:	0080      	lsls	r0, r0, #2
1000a530:	4344      	muls	r4, r0
1000a532:	4803      	ldr	r0, [pc, #12]	; (1000a540 <tud_cdc_n_connected+0x2c>)
1000a534:	1900      	adds	r0, r0, r4
1000a536:	7903      	ldrb	r3, [r0, #4]
1000a538:	2001      	movs	r0, #1
1000a53a:	4018      	ands	r0, r3
1000a53c:	e7f1      	b.n	1000a522 <tud_cdc_n_connected+0xe>
1000a53e:	46c0      	nop			; (mov r8, r8)
1000a540:	20000c48 	.word	0x20000c48

1000a544 <tud_cdc_n_available>:
1000a544:	23b6      	movs	r3, #182	; 0xb6
1000a546:	009b      	lsls	r3, r3, #2
1000a548:	4358      	muls	r0, r3
1000a54a:	b510      	push	{r4, lr}
1000a54c:	4b02      	ldr	r3, [pc, #8]	; (1000a558 <tud_cdc_n_available+0x14>)
1000a54e:	3010      	adds	r0, #16
1000a550:	18c0      	adds	r0, r0, r3
1000a552:	f000 fb11 	bl	1000ab78 <tu_fifo_count>
1000a556:	bd10      	pop	{r4, pc}
1000a558:	20000c48 	.word	0x20000c48

1000a55c <tud_cdc_n_read>:
1000a55c:	b5f0      	push	{r4, r5, r6, r7, lr}
1000a55e:	25b6      	movs	r5, #182	; 0xb6
1000a560:	00ad      	lsls	r5, r5, #2
1000a562:	4345      	muls	r5, r0
1000a564:	002c      	movs	r4, r5
1000a566:	46c6      	mov	lr, r8
1000a568:	4f17      	ldr	r7, [pc, #92]	; (1000a5c8 <tud_cdc_n_read+0x6c>)
1000a56a:	3410      	adds	r4, #16
1000a56c:	19e4      	adds	r4, r4, r7
1000a56e:	b500      	push	{lr}
1000a570:	0020      	movs	r0, r4
1000a572:	b292      	uxth	r2, r2
1000a574:	f000 fb74 	bl	1000ac60 <tu_fifo_read_n>
1000a578:	0006      	movs	r6, r0
1000a57a:	0020      	movs	r0, r4
1000a57c:	f000 fb14 	bl	1000aba8 <tu_fifo_remaining>
1000a580:	283f      	cmp	r0, #63	; 0x3f
1000a582:	d803      	bhi.n	1000a58c <tud_cdc_n_read+0x30>
1000a584:	0030      	movs	r0, r6
1000a586:	bc80      	pop	{r7}
1000a588:	46b8      	mov	r8, r7
1000a58a:	bdf0      	pop	{r4, r5, r6, r7, pc}
1000a58c:	197b      	adds	r3, r7, r5
1000a58e:	2000      	movs	r0, #0
1000a590:	78d9      	ldrb	r1, [r3, #3]
1000a592:	4698      	mov	r8, r3
1000a594:	f7ff fe30 	bl	1000a1f8 <usbd_edpt_claim>
1000a598:	2800      	cmp	r0, #0
1000a59a:	d0f3      	beq.n	1000a584 <tud_cdc_n_read+0x28>
1000a59c:	0020      	movs	r0, r4
1000a59e:	f000 fb03 	bl	1000aba8 <tu_fifo_remaining>
1000a5a2:	283f      	cmp	r0, #63	; 0x3f
1000a5a4:	d90a      	bls.n	1000a5bc <tud_cdc_n_read+0x60>
1000a5a6:	2396      	movs	r3, #150	; 0x96
1000a5a8:	009b      	lsls	r3, r3, #2
1000a5aa:	18ea      	adds	r2, r5, r3
1000a5ac:	4643      	mov	r3, r8
1000a5ae:	19d2      	adds	r2, r2, r7
1000a5b0:	78d9      	ldrb	r1, [r3, #3]
1000a5b2:	2000      	movs	r0, #0
1000a5b4:	2340      	movs	r3, #64	; 0x40
1000a5b6:	f7ff fe77 	bl	1000a2a8 <usbd_edpt_xfer>
1000a5ba:	e7e3      	b.n	1000a584 <tud_cdc_n_read+0x28>
1000a5bc:	4643      	mov	r3, r8
1000a5be:	2000      	movs	r0, #0
1000a5c0:	78d9      	ldrb	r1, [r3, #3]
1000a5c2:	f7ff fe4b 	bl	1000a25c <usbd_edpt_release>
1000a5c6:	e7dd      	b.n	1000a584 <tud_cdc_n_read+0x28>
1000a5c8:	20000c48 	.word	0x20000c48

1000a5cc <tud_cdc_n_write_flush>:
1000a5cc:	b5f8      	push	{r3, r4, r5, r6, r7, lr}
1000a5ce:	0004      	movs	r4, r0
1000a5d0:	f7fe ffac 	bl	1000952c <tud_mounted>
1000a5d4:	2800      	cmp	r0, #0
1000a5d6:	d101      	bne.n	1000a5dc <tud_cdc_n_write_flush+0x10>
1000a5d8:	2000      	movs	r0, #0
1000a5da:	bdf8      	pop	{r3, r4, r5, r6, r7, pc}
1000a5dc:	f7fe ffae 	bl	1000953c <tud_suspended>
1000a5e0:	2800      	cmp	r0, #0
1000a5e2:	d1f9      	bne.n	1000a5d8 <tud_cdc_n_write_flush+0xc>
1000a5e4:	20b6      	movs	r0, #182	; 0xb6
1000a5e6:	0080      	lsls	r0, r0, #2
1000a5e8:	4344      	muls	r4, r0
1000a5ea:	0025      	movs	r5, r4
1000a5ec:	4e14      	ldr	r6, [pc, #80]	; (1000a640 <tud_cdc_n_write_flush+0x74>)
1000a5ee:	352c      	adds	r5, #44	; 0x2c
1000a5f0:	19ad      	adds	r5, r5, r6
1000a5f2:	0028      	movs	r0, r5
1000a5f4:	f000 fac0 	bl	1000ab78 <tu_fifo_count>
1000a5f8:	2800      	cmp	r0, #0
1000a5fa:	d0ed      	beq.n	1000a5d8 <tud_cdc_n_write_flush+0xc>
1000a5fc:	1937      	adds	r7, r6, r4
1000a5fe:	2000      	movs	r0, #0
1000a600:	78b9      	ldrb	r1, [r7, #2]
1000a602:	f7ff fdf9 	bl	1000a1f8 <usbd_edpt_claim>
1000a606:	2800      	cmp	r0, #0
1000a608:	d0e6      	beq.n	1000a5d8 <tud_cdc_n_write_flush+0xc>
1000a60a:	23a6      	movs	r3, #166	; 0xa6
1000a60c:	009b      	lsls	r3, r3, #2
1000a60e:	469c      	mov	ip, r3
1000a610:	4464      	add	r4, ip
1000a612:	19a4      	adds	r4, r4, r6
1000a614:	0021      	movs	r1, r4
1000a616:	0028      	movs	r0, r5
1000a618:	2240      	movs	r2, #64	; 0x40
1000a61a:	f000 fb21 	bl	1000ac60 <tu_fifo_read_n>
1000a61e:	78b9      	ldrb	r1, [r7, #2]
1000a620:	1e05      	subs	r5, r0, #0
1000a622:	d008      	beq.n	1000a636 <tud_cdc_n_write_flush+0x6a>
1000a624:	0003      	movs	r3, r0
1000a626:	0022      	movs	r2, r4
1000a628:	2000      	movs	r0, #0
1000a62a:	f7ff fe3d 	bl	1000a2a8 <usbd_edpt_xfer>
1000a62e:	2800      	cmp	r0, #0
1000a630:	d0d2      	beq.n	1000a5d8 <tud_cdc_n_write_flush+0xc>
1000a632:	0028      	movs	r0, r5
1000a634:	e7d1      	b.n	1000a5da <tud_cdc_n_write_flush+0xe>
1000a636:	2000      	movs	r0, #0
1000a638:	f7ff fe10 	bl	1000a25c <usbd_edpt_release>
1000a63c:	e7cc      	b.n	1000a5d8 <tud_cdc_n_write_flush+0xc>
1000a63e:	46c0      	nop			; (mov r8, r8)
1000a640:	20000c48 	.word	0x20000c48

1000a644 <tud_cdc_n_write>:
1000a644:	b570      	push	{r4, r5, r6, lr}
1000a646:	24b6      	movs	r4, #182	; 0xb6
1000a648:	00a4      	lsls	r4, r4, #2
1000a64a:	4344      	muls	r4, r0
1000a64c:	4b09      	ldr	r3, [pc, #36]	; (1000a674 <tud_cdc_n_write+0x30>)
1000a64e:	342c      	adds	r4, #44	; 0x2c
1000a650:	18e4      	adds	r4, r4, r3
1000a652:	0005      	movs	r5, r0
1000a654:	b292      	uxth	r2, r2
1000a656:	0020      	movs	r0, r4
1000a658:	f000 fbc0 	bl	1000addc <tu_fifo_write_n>
1000a65c:	0006      	movs	r6, r0
1000a65e:	0020      	movs	r0, r4
1000a660:	f000 fa8a 	bl	1000ab78 <tu_fifo_count>
1000a664:	283f      	cmp	r0, #63	; 0x3f
1000a666:	d801      	bhi.n	1000a66c <tud_cdc_n_write+0x28>
1000a668:	0030      	movs	r0, r6
1000a66a:	bd70      	pop	{r4, r5, r6, pc}
1000a66c:	0028      	movs	r0, r5
1000a66e:	f7ff ffad 	bl	1000a5cc <tud_cdc_n_write_flush>
1000a672:	e7f9      	b.n	1000a668 <tud_cdc_n_write+0x24>
1000a674:	20000c48 	.word	0x20000c48

1000a678 <tud_cdc_n_write_available>:
1000a678:	23b6      	movs	r3, #182	; 0xb6
1000a67a:	009b      	lsls	r3, r3, #2
1000a67c:	4358      	muls	r0, r3
1000a67e:	b510      	push	{r4, lr}
1000a680:	4b02      	ldr	r3, [pc, #8]	; (1000a68c <tud_cdc_n_write_available+0x14>)
1000a682:	302c      	adds	r0, #44	; 0x2c
1000a684:	18c0      	adds	r0, r0, r3
1000a686:	f000 fa8f 	bl	1000aba8 <tu_fifo_remaining>
1000a68a:	bd10      	pop	{r4, pc}
1000a68c:	20000c48 	.word	0x20000c48

1000a690 <cdcd_init>:
1000a690:	22b6      	movs	r2, #182	; 0xb6
1000a692:	b5f0      	push	{r4, r5, r6, r7, lr}
1000a694:	4c1b      	ldr	r4, [pc, #108]	; (1000a704 <cdcd_init+0x74>)
1000a696:	b083      	sub	sp, #12
1000a698:	2100      	movs	r1, #0
1000a69a:	0020      	movs	r0, r4
1000a69c:	0092      	lsls	r2, r2, #2
1000a69e:	f7fd fe75 	bl	1000838c <__wrap_memset>
1000a6a2:	23ff      	movs	r3, #255	; 0xff
1000a6a4:	7163      	strb	r3, [r4, #5]
1000a6a6:	4b18      	ldr	r3, [pc, #96]	; (1000a708 <cdcd_init+0x78>)
1000a6a8:	2680      	movs	r6, #128	; 0x80
1000a6aa:	2500      	movs	r5, #0
1000a6ac:	80e3      	strh	r3, [r4, #6]
1000a6ae:	2701      	movs	r7, #1
1000a6b0:	2308      	movs	r3, #8
1000a6b2:	0021      	movs	r1, r4
1000a6b4:	0020      	movs	r0, r4
1000a6b6:	0076      	lsls	r6, r6, #1
1000a6b8:	7323      	strb	r3, [r4, #12]
1000a6ba:	0032      	movs	r2, r6
1000a6bc:	8127      	strh	r7, [r4, #8]
1000a6be:	3148      	adds	r1, #72	; 0x48
1000a6c0:	9500      	str	r5, [sp, #0]
1000a6c2:	3b07      	subs	r3, #7
1000a6c4:	3010      	adds	r0, #16
1000a6c6:	f000 fa1b 	bl	1000ab00 <tu_fifo_config>
1000a6ca:	0021      	movs	r1, r4
1000a6cc:	0020      	movs	r0, r4
1000a6ce:	3149      	adds	r1, #73	; 0x49
1000a6d0:	0032      	movs	r2, r6
1000a6d2:	31ff      	adds	r1, #255	; 0xff
1000a6d4:	2301      	movs	r3, #1
1000a6d6:	9700      	str	r7, [sp, #0]
1000a6d8:	302c      	adds	r0, #44	; 0x2c
1000a6da:	f000 fa11 	bl	1000ab00 <tu_fifo_config>
1000a6de:	2392      	movs	r3, #146	; 0x92
1000a6e0:	009b      	lsls	r3, r3, #2
1000a6e2:	18e6      	adds	r6, r4, r3
1000a6e4:	0030      	movs	r0, r6
1000a6e6:	f7f8 fcbb 	bl	10003060 <mutex_init>
1000a6ea:	2394      	movs	r3, #148	; 0x94
1000a6ec:	009b      	lsls	r3, r3, #2
1000a6ee:	62a6      	str	r6, [r4, #40]	; 0x28
1000a6f0:	18e6      	adds	r6, r4, r3
1000a6f2:	0030      	movs	r0, r6
1000a6f4:	6265      	str	r5, [r4, #36]	; 0x24
1000a6f6:	f7f8 fcb3 	bl	10003060 <mutex_init>
1000a6fa:	6426      	str	r6, [r4, #64]	; 0x40
1000a6fc:	6465      	str	r5, [r4, #68]	; 0x44
1000a6fe:	b003      	add	sp, #12
1000a700:	bdf0      	pop	{r4, r5, r6, r7, pc}
1000a702:	46c0      	nop			; (mov r8, r8)
1000a704:	20000c48 	.word	0x20000c48
1000a708:	ffffc200 	.word	0xffffc200

1000a70c <cdcd_reset>:
1000a70c:	b510      	push	{r4, lr}
1000a70e:	4c09      	ldr	r4, [pc, #36]	; (1000a734 <cdcd_reset+0x28>)
1000a710:	2205      	movs	r2, #5
1000a712:	2100      	movs	r1, #0
1000a714:	0020      	movs	r0, r4
1000a716:	f7fd fe39 	bl	1000838c <__wrap_memset>
1000a71a:	0020      	movs	r0, r4
1000a71c:	342c      	adds	r4, #44	; 0x2c
1000a71e:	3010      	adds	r0, #16
1000a720:	f000 fbdc 	bl	1000aedc <tu_fifo_clear>
1000a724:	0020      	movs	r0, r4
1000a726:	f000 fbd9 	bl	1000aedc <tu_fifo_clear>
1000a72a:	2101      	movs	r1, #1
1000a72c:	0020      	movs	r0, r4
1000a72e:	f000 fbfb 	bl	1000af28 <tu_fifo_set_overwritable>
1000a732:	bd10      	pop	{r4, pc}
1000a734:	20000c48 	.word	0x20000c48

1000a738 <cdcd_open>:
1000a738:	b5f0      	push	{r4, r5, r6, r7, lr}
1000a73a:	794b      	ldrb	r3, [r1, #5]
1000a73c:	0006      	movs	r6, r0
1000a73e:	b083      	sub	sp, #12
1000a740:	2b02      	cmp	r3, #2
1000a742:	d102      	bne.n	1000a74a <cdcd_open+0x12>
1000a744:	798b      	ldrb	r3, [r1, #6]
1000a746:	2b02      	cmp	r3, #2
1000a748:	d003      	beq.n	1000a752 <cdcd_open+0x1a>
1000a74a:	2500      	movs	r5, #0
1000a74c:	0028      	movs	r0, r5
1000a74e:	b003      	add	sp, #12
1000a750:	bdf0      	pop	{r4, r5, r6, r7, pc}
1000a752:	4f2f      	ldr	r7, [pc, #188]	; (1000a810 <cdcd_open+0xd8>)
1000a754:	78bb      	ldrb	r3, [r7, #2]
1000a756:	2b00      	cmp	r3, #0
1000a758:	d1f7      	bne.n	1000a74a <cdcd_open+0x12>
1000a75a:	788b      	ldrb	r3, [r1, #2]
1000a75c:	2509      	movs	r5, #9
1000a75e:	703b      	strb	r3, [r7, #0]
1000a760:	780c      	ldrb	r4, [r1, #0]
1000a762:	190c      	adds	r4, r1, r4
1000a764:	7863      	ldrb	r3, [r4, #1]
1000a766:	2b24      	cmp	r3, #36	; 0x24
1000a768:	d10b      	bne.n	1000a782 <cdcd_open+0x4a>
1000a76a:	2a08      	cmp	r2, #8
1000a76c:	d802      	bhi.n	1000a774 <cdcd_open+0x3c>
1000a76e:	e00f      	b.n	1000a790 <cdcd_open+0x58>
1000a770:	42aa      	cmp	r2, r5
1000a772:	d30d      	bcc.n	1000a790 <cdcd_open+0x58>
1000a774:	7823      	ldrb	r3, [r4, #0]
1000a776:	18e4      	adds	r4, r4, r3
1000a778:	18ed      	adds	r5, r5, r3
1000a77a:	7863      	ldrb	r3, [r4, #1]
1000a77c:	b2ad      	uxth	r5, r5
1000a77e:	2b24      	cmp	r3, #36	; 0x24
1000a780:	d0f6      	beq.n	1000a770 <cdcd_open+0x38>
1000a782:	2b05      	cmp	r3, #5
1000a784:	d020      	beq.n	1000a7c8 <cdcd_open+0x90>
1000a786:	2b04      	cmp	r3, #4
1000a788:	d102      	bne.n	1000a790 <cdcd_open+0x58>
1000a78a:	7963      	ldrb	r3, [r4, #5]
1000a78c:	2b0a      	cmp	r3, #10
1000a78e:	d02e      	beq.n	1000a7ee <cdcd_open+0xb6>
1000a790:	4c20      	ldr	r4, [pc, #128]	; (1000a814 <cdcd_open+0xdc>)
1000a792:	0020      	movs	r0, r4
1000a794:	f000 fa08 	bl	1000aba8 <tu_fifo_remaining>
1000a798:	283f      	cmp	r0, #63	; 0x3f
1000a79a:	d9d7      	bls.n	1000a74c <cdcd_open+0x14>
1000a79c:	0026      	movs	r6, r4
1000a79e:	3e10      	subs	r6, #16
1000a7a0:	2000      	movs	r0, #0
1000a7a2:	78f1      	ldrb	r1, [r6, #3]
1000a7a4:	f7ff fd28 	bl	1000a1f8 <usbd_edpt_claim>
1000a7a8:	2800      	cmp	r0, #0
1000a7aa:	d0cf      	beq.n	1000a74c <cdcd_open+0x14>
1000a7ac:	0020      	movs	r0, r4
1000a7ae:	f000 f9fb 	bl	1000aba8 <tu_fifo_remaining>
1000a7b2:	283f      	cmp	r0, #63	; 0x3f
1000a7b4:	d916      	bls.n	1000a7e4 <cdcd_open+0xac>
1000a7b6:	2392      	movs	r3, #146	; 0x92
1000a7b8:	009b      	lsls	r3, r3, #2
1000a7ba:	18e2      	adds	r2, r4, r3
1000a7bc:	78f1      	ldrb	r1, [r6, #3]
1000a7be:	2340      	movs	r3, #64	; 0x40
1000a7c0:	2000      	movs	r0, #0
1000a7c2:	f7ff fd71 	bl	1000a2a8 <usbd_edpt_xfer>
1000a7c6:	e7c1      	b.n	1000a74c <cdcd_open+0x14>
1000a7c8:	0021      	movs	r1, r4
1000a7ca:	0030      	movs	r0, r6
1000a7cc:	f7ff fcfc 	bl	1000a1c8 <usbd_edpt_open>
1000a7d0:	2800      	cmp	r0, #0
1000a7d2:	d0ba      	beq.n	1000a74a <cdcd_open+0x12>
1000a7d4:	78a3      	ldrb	r3, [r4, #2]
1000a7d6:	707b      	strb	r3, [r7, #1]
1000a7d8:	7823      	ldrb	r3, [r4, #0]
1000a7da:	18ed      	adds	r5, r5, r3
1000a7dc:	18e4      	adds	r4, r4, r3
1000a7de:	7863      	ldrb	r3, [r4, #1]
1000a7e0:	b2ad      	uxth	r5, r5
1000a7e2:	e7d0      	b.n	1000a786 <cdcd_open+0x4e>
1000a7e4:	78f1      	ldrb	r1, [r6, #3]
1000a7e6:	2000      	movs	r0, #0
1000a7e8:	f7ff fd38 	bl	1000a25c <usbd_edpt_release>
1000a7ec:	e7ae      	b.n	1000a74c <cdcd_open+0x14>
1000a7ee:	4b0a      	ldr	r3, [pc, #40]	; (1000a818 <cdcd_open+0xe0>)
1000a7f0:	7827      	ldrb	r7, [r4, #0]
1000a7f2:	9301      	str	r3, [sp, #4]
1000a7f4:	3301      	adds	r3, #1
1000a7f6:	9300      	str	r3, [sp, #0]
1000a7f8:	2202      	movs	r2, #2
1000a7fa:	2302      	movs	r3, #2
1000a7fc:	0030      	movs	r0, r6
1000a7fe:	19e1      	adds	r1, r4, r7
1000a800:	f7ff fca2 	bl	1000a148 <usbd_open_edpt_pair>
1000a804:	2800      	cmp	r0, #0
1000a806:	d0a0      	beq.n	1000a74a <cdcd_open+0x12>
1000a808:	350e      	adds	r5, #14
1000a80a:	19ed      	adds	r5, r5, r7
1000a80c:	b2ad      	uxth	r5, r5
1000a80e:	e7bf      	b.n	1000a790 <cdcd_open+0x58>
1000a810:	20000c48 	.word	0x20000c48
1000a814:	20000c58 	.word	0x20000c58
1000a818:	20000c4a 	.word	0x20000c4a

1000a81c <cdcd_control_xfer_cb>:
1000a81c:	b5f8      	push	{r3, r4, r5, r6, r7, lr}
1000a81e:	2360      	movs	r3, #96	; 0x60
1000a820:	0014      	movs	r4, r2
1000a822:	7812      	ldrb	r2, [r2, #0]
1000a824:	0005      	movs	r5, r0
1000a826:	4013      	ands	r3, r2
1000a828:	2000      	movs	r0, #0
1000a82a:	2b20      	cmp	r3, #32
1000a82c:	d112      	bne.n	1000a854 <cdcd_control_xfer_cb+0x38>
1000a82e:	4a2f      	ldr	r2, [pc, #188]	; (1000a8ec <cdcd_control_xfer_cb+0xd0>)
1000a830:	7963      	ldrb	r3, [r4, #5]
1000a832:	7927      	ldrb	r7, [r4, #4]
1000a834:	7816      	ldrb	r6, [r2, #0]
1000a836:	021b      	lsls	r3, r3, #8
1000a838:	433b      	orrs	r3, r7
1000a83a:	429e      	cmp	r6, r3
1000a83c:	d10a      	bne.n	1000a854 <cdcd_control_xfer_cb+0x38>
1000a83e:	7863      	ldrb	r3, [r4, #1]
1000a840:	2b22      	cmp	r3, #34	; 0x22
1000a842:	d027      	beq.n	1000a894 <cdcd_control_xfer_cb+0x78>
1000a844:	d807      	bhi.n	1000a856 <cdcd_control_xfer_cb+0x3a>
1000a846:	2b20      	cmp	r3, #32
1000a848:	d017      	beq.n	1000a87a <cdcd_control_xfer_cb+0x5e>
1000a84a:	2b21      	cmp	r3, #33	; 0x21
1000a84c:	d102      	bne.n	1000a854 <cdcd_control_xfer_cb+0x38>
1000a84e:	2900      	cmp	r1, #0
1000a850:	d03d      	beq.n	1000a8ce <cdcd_control_xfer_cb+0xb2>
1000a852:	2001      	movs	r0, #1
1000a854:	bdf8      	pop	{r3, r4, r5, r6, r7, pc}
1000a856:	2b23      	cmp	r3, #35	; 0x23
1000a858:	d1fc      	bne.n	1000a854 <cdcd_control_xfer_cb+0x38>
1000a85a:	2900      	cmp	r1, #0
1000a85c:	d03f      	beq.n	1000a8de <cdcd_control_xfer_cb+0xc2>
1000a85e:	2902      	cmp	r1, #2
1000a860:	d1f7      	bne.n	1000a852 <cdcd_control_xfer_cb+0x36>
1000a862:	4b23      	ldr	r3, [pc, #140]	; (1000a8f0 <cdcd_control_xfer_cb+0xd4>)
1000a864:	2b00      	cmp	r3, #0
1000a866:	d0f4      	beq.n	1000a852 <cdcd_control_xfer_cb+0x36>
1000a868:	78e1      	ldrb	r1, [r4, #3]
1000a86a:	78a3      	ldrb	r3, [r4, #2]
1000a86c:	0209      	lsls	r1, r1, #8
1000a86e:	2000      	movs	r0, #0
1000a870:	4319      	orrs	r1, r3
1000a872:	e000      	b.n	1000a876 <cdcd_control_xfer_cb+0x5a>
1000a874:	bf00      	nop
1000a876:	2001      	movs	r0, #1
1000a878:	e7ec      	b.n	1000a854 <cdcd_control_xfer_cb+0x38>
1000a87a:	2900      	cmp	r1, #0
1000a87c:	d027      	beq.n	1000a8ce <cdcd_control_xfer_cb+0xb2>
1000a87e:	2902      	cmp	r1, #2
1000a880:	d1e7      	bne.n	1000a852 <cdcd_control_xfer_cb+0x36>
1000a882:	4b1c      	ldr	r3, [pc, #112]	; (1000a8f4 <cdcd_control_xfer_cb+0xd8>)
1000a884:	2b00      	cmp	r3, #0
1000a886:	d0e4      	beq.n	1000a852 <cdcd_control_xfer_cb+0x36>
1000a888:	2000      	movs	r0, #0
1000a88a:	1d91      	adds	r1, r2, #6
1000a88c:	f7fd fff2 	bl	10008874 <tud_cdc_line_coding_cb>
1000a890:	2001      	movs	r0, #1
1000a892:	e7df      	b.n	1000a854 <cdcd_control_xfer_cb+0x38>
1000a894:	2900      	cmp	r1, #0
1000a896:	d022      	beq.n	1000a8de <cdcd_control_xfer_cb+0xc2>
1000a898:	2902      	cmp	r1, #2
1000a89a:	d1da      	bne.n	1000a852 <cdcd_control_xfer_cb+0x36>
1000a89c:	2501      	movs	r5, #1
1000a89e:	002e      	movs	r6, r5
1000a8a0:	78a3      	ldrb	r3, [r4, #2]
1000a8a2:	78e4      	ldrb	r4, [r4, #3]
1000a8a4:	3901      	subs	r1, #1
1000a8a6:	0224      	lsls	r4, r4, #8
1000a8a8:	431c      	orrs	r4, r3
1000a8aa:	7114      	strb	r4, [r2, #4]
1000a8ac:	4026      	ands	r6, r4
1000a8ae:	322c      	adds	r2, #44	; 0x2c
1000a8b0:	0010      	movs	r0, r2
1000a8b2:	4071      	eors	r1, r6
1000a8b4:	f000 fb38 	bl	1000af28 <tu_fifo_set_overwritable>
1000a8b8:	4b0f      	ldr	r3, [pc, #60]	; (1000a8f8 <cdcd_control_xfer_cb+0xdc>)
1000a8ba:	2b00      	cmp	r3, #0
1000a8bc:	d0c9      	beq.n	1000a852 <cdcd_control_xfer_cb+0x36>
1000a8be:	0862      	lsrs	r2, r4, #1
1000a8c0:	2000      	movs	r0, #0
1000a8c2:	0031      	movs	r1, r6
1000a8c4:	402a      	ands	r2, r5
1000a8c6:	e000      	b.n	1000a8ca <cdcd_control_xfer_cb+0xae>
1000a8c8:	bf00      	nop
1000a8ca:	2001      	movs	r0, #1
1000a8cc:	e7c2      	b.n	1000a854 <cdcd_control_xfer_cb+0x38>
1000a8ce:	2307      	movs	r3, #7
1000a8d0:	0021      	movs	r1, r4
1000a8d2:	0028      	movs	r0, r5
1000a8d4:	4a09      	ldr	r2, [pc, #36]	; (1000a8fc <cdcd_control_xfer_cb+0xe0>)
1000a8d6:	f7ff fd23 	bl	1000a320 <tud_control_xfer>
1000a8da:	2001      	movs	r0, #1
1000a8dc:	e7ba      	b.n	1000a854 <cdcd_control_xfer_cb+0x38>
1000a8de:	0021      	movs	r1, r4
1000a8e0:	0028      	movs	r0, r5
1000a8e2:	f7ff fd05 	bl	1000a2f0 <tud_control_status>
1000a8e6:	2001      	movs	r0, #1
1000a8e8:	e7b4      	b.n	1000a854 <cdcd_control_xfer_cb+0x38>
1000a8ea:	46c0      	nop			; (mov r8, r8)
1000a8ec:	20000c48 	.word	0x20000c48
1000a8f0:	00000000 	.word	0x00000000
1000a8f4:	10008875 	.word	0x10008875
1000a8f8:	00000000 	.word	0x00000000
1000a8fc:	20000c4e 	.word	0x20000c4e

1000a900 <cdcd_xfer_cb>:
1000a900:	b5f8      	push	{r3, r4, r5, r6, r7, lr}
1000a902:	4657      	mov	r7, sl
1000a904:	464e      	mov	r6, r9
1000a906:	4645      	mov	r5, r8
1000a908:	46de      	mov	lr, fp
1000a90a:	b5e0      	push	{r5, r6, r7, lr}
1000a90c:	4f49      	ldr	r7, [pc, #292]	; (1000aa34 <cdcd_xfer_cb+0x134>)
1000a90e:	4680      	mov	r8, r0
1000a910:	78fa      	ldrb	r2, [r7, #3]
1000a912:	000c      	movs	r4, r1
1000a914:	001e      	movs	r6, r3
1000a916:	428a      	cmp	r2, r1
1000a918:	d164      	bne.n	1000a9e4 <cdcd_xfer_cb+0xe4>
1000a91a:	b29a      	uxth	r2, r3
1000a91c:	2396      	movs	r3, #150	; 0x96
1000a91e:	009b      	lsls	r3, r3, #2
1000a920:	18fd      	adds	r5, r7, r3
1000a922:	2310      	movs	r3, #16
1000a924:	469b      	mov	fp, r3
1000a926:	44bb      	add	fp, r7
1000a928:	0029      	movs	r1, r5
1000a92a:	4658      	mov	r0, fp
1000a92c:	f000 fa56 	bl	1000addc <tu_fifo_write_n>
1000a930:	4b41      	ldr	r3, [pc, #260]	; (1000aa38 <cdcd_xfer_cb+0x138>)
1000a932:	46d9      	mov	r9, fp
1000a934:	2b00      	cmp	r3, #0
1000a936:	d018      	beq.n	1000a96a <cdcd_xfer_cb+0x6a>
1000a938:	797b      	ldrb	r3, [r7, #5]
1000a93a:	46d9      	mov	r9, fp
1000a93c:	2bff      	cmp	r3, #255	; 0xff
1000a93e:	d014      	beq.n	1000a96a <cdcd_xfer_cb+0x6a>
1000a940:	2e00      	cmp	r6, #0
1000a942:	d012      	beq.n	1000a96a <cdcd_xfer_cb+0x6a>
1000a944:	19aa      	adds	r2, r5, r6
1000a946:	4692      	mov	sl, r2
1000a948:	e003      	b.n	1000a952 <cdcd_xfer_cb+0x52>
1000a94a:	3501      	adds	r5, #1
1000a94c:	4555      	cmp	r5, sl
1000a94e:	d00c      	beq.n	1000a96a <cdcd_xfer_cb+0x6a>
1000a950:	797b      	ldrb	r3, [r7, #5]
1000a952:	782a      	ldrb	r2, [r5, #0]
1000a954:	429a      	cmp	r2, r3
1000a956:	d1f8      	bne.n	1000a94a <cdcd_xfer_cb+0x4a>
1000a958:	4648      	mov	r0, r9
1000a95a:	f000 f91d 	bl	1000ab98 <tu_fifo_empty>
1000a95e:	2800      	cmp	r0, #0
1000a960:	d1f3      	bne.n	1000a94a <cdcd_xfer_cb+0x4a>
1000a962:	7979      	ldrb	r1, [r7, #5]
1000a964:	e000      	b.n	1000a968 <cdcd_xfer_cb+0x68>
1000a966:	bf00      	nop
1000a968:	e7ef      	b.n	1000a94a <cdcd_xfer_cb+0x4a>
1000a96a:	4b34      	ldr	r3, [pc, #208]	; (1000aa3c <cdcd_xfer_cb+0x13c>)
1000a96c:	2b00      	cmp	r3, #0
1000a96e:	d004      	beq.n	1000a97a <cdcd_xfer_cb+0x7a>
1000a970:	4648      	mov	r0, r9
1000a972:	f000 f911 	bl	1000ab98 <tu_fifo_empty>
1000a976:	2800      	cmp	r0, #0
1000a978:	d052      	beq.n	1000aa20 <cdcd_xfer_cb+0x120>
1000a97a:	4648      	mov	r0, r9
1000a97c:	f000 f914 	bl	1000aba8 <tu_fifo_remaining>
1000a980:	283f      	cmp	r0, #63	; 0x3f
1000a982:	d834      	bhi.n	1000a9ee <cdcd_xfer_cb+0xee>
1000a984:	464a      	mov	r2, r9
1000a986:	3a10      	subs	r2, #16
1000a988:	7893      	ldrb	r3, [r2, #2]
1000a98a:	42a3      	cmp	r3, r4
1000a98c:	d007      	beq.n	1000a99e <cdcd_xfer_cb+0x9e>
1000a98e:	2401      	movs	r4, #1
1000a990:	0020      	movs	r0, r4
1000a992:	bcf0      	pop	{r4, r5, r6, r7}
1000a994:	46bb      	mov	fp, r7
1000a996:	46b2      	mov	sl, r6
1000a998:	46a9      	mov	r9, r5
1000a99a:	46a0      	mov	r8, r4
1000a99c:	bdf8      	pop	{r3, r4, r5, r6, r7, pc}
1000a99e:	4b28      	ldr	r3, [pc, #160]	; (1000aa40 <cdcd_xfer_cb+0x140>)
1000a9a0:	2b00      	cmp	r3, #0
1000a9a2:	d002      	beq.n	1000a9aa <cdcd_xfer_cb+0xaa>
1000a9a4:	2000      	movs	r0, #0
1000a9a6:	e000      	b.n	1000a9aa <cdcd_xfer_cb+0xaa>
1000a9a8:	bf00      	nop
1000a9aa:	2000      	movs	r0, #0
1000a9ac:	f7ff fe0e 	bl	1000a5cc <tud_cdc_n_write_flush>
1000a9b0:	2800      	cmp	r0, #0
1000a9b2:	d1ec      	bne.n	1000a98e <cdcd_xfer_cb+0x8e>
1000a9b4:	4d23      	ldr	r5, [pc, #140]	; (1000aa44 <cdcd_xfer_cb+0x144>)
1000a9b6:	0028      	movs	r0, r5
1000a9b8:	f000 f8de 	bl	1000ab78 <tu_fifo_count>
1000a9bc:	2800      	cmp	r0, #0
1000a9be:	d1e6      	bne.n	1000a98e <cdcd_xfer_cb+0x8e>
1000a9c0:	2e00      	cmp	r6, #0
1000a9c2:	d0e4      	beq.n	1000a98e <cdcd_xfer_cb+0x8e>
1000a9c4:	06b3      	lsls	r3, r6, #26
1000a9c6:	d1e2      	bne.n	1000a98e <cdcd_xfer_cb+0x8e>
1000a9c8:	3d2c      	subs	r5, #44	; 0x2c
1000a9ca:	4640      	mov	r0, r8
1000a9cc:	78a9      	ldrb	r1, [r5, #2]
1000a9ce:	f7ff fc13 	bl	1000a1f8 <usbd_edpt_claim>
1000a9d2:	1e04      	subs	r4, r0, #0
1000a9d4:	d0db      	beq.n	1000a98e <cdcd_xfer_cb+0x8e>
1000a9d6:	2300      	movs	r3, #0
1000a9d8:	2200      	movs	r2, #0
1000a9da:	4640      	mov	r0, r8
1000a9dc:	78a9      	ldrb	r1, [r5, #2]
1000a9de:	f7ff fc63 	bl	1000a2a8 <usbd_edpt_xfer>
1000a9e2:	e7d5      	b.n	1000a990 <cdcd_xfer_cb+0x90>
1000a9e4:	78bb      	ldrb	r3, [r7, #2]
1000a9e6:	428b      	cmp	r3, r1
1000a9e8:	d0d9      	beq.n	1000a99e <cdcd_xfer_cb+0x9e>
1000a9ea:	2400      	movs	r4, #0
1000a9ec:	e7d0      	b.n	1000a990 <cdcd_xfer_cb+0x90>
1000a9ee:	464d      	mov	r5, r9
1000a9f0:	3d10      	subs	r5, #16
1000a9f2:	2000      	movs	r0, #0
1000a9f4:	78e9      	ldrb	r1, [r5, #3]
1000a9f6:	f7ff fbff 	bl	1000a1f8 <usbd_edpt_claim>
1000a9fa:	2800      	cmp	r0, #0
1000a9fc:	d101      	bne.n	1000aa02 <cdcd_xfer_cb+0x102>
1000a9fe:	78ab      	ldrb	r3, [r5, #2]
1000aa00:	e7c3      	b.n	1000a98a <cdcd_xfer_cb+0x8a>
1000aa02:	4648      	mov	r0, r9
1000aa04:	f000 f8d0 	bl	1000aba8 <tu_fifo_remaining>
1000aa08:	283f      	cmp	r0, #63	; 0x3f
1000aa0a:	d90c      	bls.n	1000aa26 <cdcd_xfer_cb+0x126>
1000aa0c:	2292      	movs	r2, #146	; 0x92
1000aa0e:	0092      	lsls	r2, r2, #2
1000aa10:	2340      	movs	r3, #64	; 0x40
1000aa12:	2000      	movs	r0, #0
1000aa14:	78e9      	ldrb	r1, [r5, #3]
1000aa16:	444a      	add	r2, r9
1000aa18:	f7ff fc46 	bl	1000a2a8 <usbd_edpt_xfer>
1000aa1c:	78ab      	ldrb	r3, [r5, #2]
1000aa1e:	e7b4      	b.n	1000a98a <cdcd_xfer_cb+0x8a>
1000aa20:	e000      	b.n	1000aa24 <cdcd_xfer_cb+0x124>
1000aa22:	bf00      	nop
1000aa24:	e7a9      	b.n	1000a97a <cdcd_xfer_cb+0x7a>
1000aa26:	2000      	movs	r0, #0
1000aa28:	78e9      	ldrb	r1, [r5, #3]
1000aa2a:	f7ff fc17 	bl	1000a25c <usbd_edpt_release>
1000aa2e:	78ab      	ldrb	r3, [r5, #2]
1000aa30:	e7ab      	b.n	1000a98a <cdcd_xfer_cb+0x8a>
1000aa32:	46c0      	nop			; (mov r8, r8)
1000aa34:	20000c48 	.word	0x20000c48
	...
1000aa44:	20000c74 	.word	0x20000c74

1000aa48 <tusb_init>:
1000aa48:	b510      	push	{r4, lr}
1000aa4a:	2000      	movs	r0, #0
1000aa4c:	f7fe fd84 	bl	10009558 <tud_init>
1000aa50:	bd10      	pop	{r4, pc}
1000aa52:	46c0      	nop			; (mov r8, r8)

1000aa54 <tusb_inited>:
1000aa54:	b510      	push	{r4, lr}
1000aa56:	f7fe fd79 	bl	1000954c <tud_inited>
1000aa5a:	bd10      	pop	{r4, pc}

1000aa5c <tu_edpt_validate>:
1000aa5c:	2207      	movs	r2, #7
1000aa5e:	b510      	push	{r4, lr}
1000aa60:	7944      	ldrb	r4, [r0, #5]
1000aa62:	7903      	ldrb	r3, [r0, #4]
1000aa64:	4022      	ands	r2, r4
1000aa66:	0212      	lsls	r2, r2, #8
1000aa68:	431a      	orrs	r2, r3
1000aa6a:	78c3      	ldrb	r3, [r0, #3]
1000aa6c:	079b      	lsls	r3, r3, #30
1000aa6e:	0f9b      	lsrs	r3, r3, #30
1000aa70:	2b02      	cmp	r3, #2
1000aa72:	d005      	beq.n	1000aa80 <tu_edpt_validate+0x24>
1000aa74:	2b03      	cmp	r3, #3
1000aa76:	d015      	beq.n	1000aaa4 <tu_edpt_validate+0x48>
1000aa78:	2000      	movs	r0, #0
1000aa7a:	2b01      	cmp	r3, #1
1000aa7c:	d008      	beq.n	1000aa90 <tu_edpt_validate+0x34>
1000aa7e:	bd10      	pop	{r4, pc}
1000aa80:	2902      	cmp	r1, #2
1000aa82:	d01c      	beq.n	1000aabe <tu_edpt_validate+0x62>
1000aa84:	2000      	movs	r0, #0
1000aa86:	2340      	movs	r3, #64	; 0x40
1000aa88:	4293      	cmp	r3, r2
1000aa8a:	4140      	adcs	r0, r0
1000aa8c:	b2c0      	uxtb	r0, r0
1000aa8e:	e7f6      	b.n	1000aa7e <tu_edpt_validate+0x22>
1000aa90:	3902      	subs	r1, #2
1000aa92:	424b      	negs	r3, r1
1000aa94:	4159      	adcs	r1, r3
1000aa96:	4b0d      	ldr	r3, [pc, #52]	; (1000aacc <tu_edpt_validate+0x70>)
1000aa98:	469c      	mov	ip, r3
1000aa9a:	4461      	add	r1, ip
1000aa9c:	4291      	cmp	r1, r2
1000aa9e:	4140      	adcs	r0, r0
1000aaa0:	b2c0      	uxtb	r0, r0
1000aaa2:	e7ec      	b.n	1000aa7e <tu_edpt_validate+0x22>
1000aaa4:	3902      	subs	r1, #2
1000aaa6:	424b      	negs	r3, r1
1000aaa8:	4159      	adcs	r1, r3
1000aaaa:	23f0      	movs	r3, #240	; 0xf0
1000aaac:	2000      	movs	r0, #0
1000aaae:	4249      	negs	r1, r1
1000aab0:	009b      	lsls	r3, r3, #2
1000aab2:	4019      	ands	r1, r3
1000aab4:	3140      	adds	r1, #64	; 0x40
1000aab6:	4291      	cmp	r1, r2
1000aab8:	4140      	adcs	r0, r0
1000aaba:	b2c0      	uxtb	r0, r0
1000aabc:	e7df      	b.n	1000aa7e <tu_edpt_validate+0x22>
1000aabe:	4b04      	ldr	r3, [pc, #16]	; (1000aad0 <tu_edpt_validate+0x74>)
1000aac0:	469c      	mov	ip, r3
1000aac2:	4462      	add	r2, ip
1000aac4:	4253      	negs	r3, r2
1000aac6:	415a      	adcs	r2, r3
1000aac8:	b2d0      	uxtb	r0, r2
1000aaca:	e7d8      	b.n	1000aa7e <tu_edpt_validate+0x22>
1000aacc:	000003ff 	.word	0x000003ff
1000aad0:	fffffe00 	.word	0xfffffe00

1000aad4 <tu_edpt_bind_driver>:
1000aad4:	b5f0      	push	{r4, r5, r6, r7, lr}
1000aad6:	2a00      	cmp	r2, #0
1000aad8:	d011      	beq.n	1000aafe <tu_edpt_bind_driver+0x2a>
1000aada:	2400      	movs	r4, #0
1000aadc:	277f      	movs	r7, #127	; 0x7f
1000aade:	784d      	ldrb	r5, [r1, #1]
1000aae0:	2d05      	cmp	r5, #5
1000aae2:	d106      	bne.n	1000aaf2 <tu_edpt_bind_driver+0x1e>
1000aae4:	003d      	movs	r5, r7
1000aae6:	788e      	ldrb	r6, [r1, #2]
1000aae8:	4035      	ands	r5, r6
1000aaea:	006d      	lsls	r5, r5, #1
1000aaec:	09f6      	lsrs	r6, r6, #7
1000aaee:	1945      	adds	r5, r0, r5
1000aaf0:	55ab      	strb	r3, [r5, r6]
1000aaf2:	780d      	ldrb	r5, [r1, #0]
1000aaf4:	1964      	adds	r4, r4, r5
1000aaf6:	b2a4      	uxth	r4, r4
1000aaf8:	1949      	adds	r1, r1, r5
1000aafa:	42a2      	cmp	r2, r4
1000aafc:	d8ef      	bhi.n	1000aade <tu_edpt_bind_driver+0xa>
1000aafe:	bdf0      	pop	{r4, r5, r6, r7, pc}

1000ab00 <tu_fifo_config>:
1000ab00:	b5f0      	push	{r4, r5, r6, r7, lr}
1000ab02:	46c6      	mov	lr, r8
1000ab04:	b500      	push	{lr}
1000ab06:	0015      	movs	r5, r2
1000ab08:	aa06      	add	r2, sp, #24
1000ab0a:	001e      	movs	r6, r3
1000ab0c:	7813      	ldrb	r3, [r2, #0]
1000ab0e:	2280      	movs	r2, #128	; 0x80
1000ab10:	0004      	movs	r4, r0
1000ab12:	000f      	movs	r7, r1
1000ab14:	4698      	mov	r8, r3
1000ab16:	0212      	lsls	r2, r2, #8
1000ab18:	4295      	cmp	r5, r2
1000ab1a:	d82a      	bhi.n	1000ab72 <tu_fifo_config+0x72>
1000ab1c:	6940      	ldr	r0, [r0, #20]
1000ab1e:	2800      	cmp	r0, #0
1000ab20:	d003      	beq.n	1000ab2a <tu_fifo_config+0x2a>
1000ab22:	2101      	movs	r1, #1
1000ab24:	4249      	negs	r1, r1
1000ab26:	f000 fb97 	bl	1000b258 <__mutex_enter_timeout_ms_veneer>
1000ab2a:	69a0      	ldr	r0, [r4, #24]
1000ab2c:	2800      	cmp	r0, #0
1000ab2e:	d003      	beq.n	1000ab38 <tu_fifo_config+0x38>
1000ab30:	2101      	movs	r1, #1
1000ab32:	4249      	negs	r1, r1
1000ab34:	f000 fb90 	bl	1000b258 <__mutex_enter_timeout_ms_veneer>
1000ab38:	4643      	mov	r3, r8
1000ab3a:	80a5      	strh	r5, [r4, #4]
1000ab3c:	006d      	lsls	r5, r5, #1
1000ab3e:	b2ad      	uxth	r5, r5
1000ab40:	7223      	strb	r3, [r4, #8]
1000ab42:	1e6b      	subs	r3, r5, #1
1000ab44:	81a3      	strh	r3, [r4, #12]
1000ab46:	2300      	movs	r3, #0
1000ab48:	6960      	ldr	r0, [r4, #20]
1000ab4a:	426d      	negs	r5, r5
1000ab4c:	81e3      	strh	r3, [r4, #14]
1000ab4e:	6027      	str	r7, [r4, #0]
1000ab50:	80e6      	strh	r6, [r4, #6]
1000ab52:	8165      	strh	r5, [r4, #10]
1000ab54:	8223      	strh	r3, [r4, #16]
1000ab56:	2800      	cmp	r0, #0
1000ab58:	d001      	beq.n	1000ab5e <tu_fifo_config+0x5e>
1000ab5a:	f000 fb5d 	bl	1000b218 <__mutex_exit_veneer>
1000ab5e:	69a0      	ldr	r0, [r4, #24]
1000ab60:	2401      	movs	r4, #1
1000ab62:	2800      	cmp	r0, #0
1000ab64:	d001      	beq.n	1000ab6a <tu_fifo_config+0x6a>
1000ab66:	f000 fb57 	bl	1000b218 <__mutex_exit_veneer>
1000ab6a:	0020      	movs	r0, r4
1000ab6c:	bc80      	pop	{r7}
1000ab6e:	46b8      	mov	r8, r7
1000ab70:	bdf0      	pop	{r4, r5, r6, r7, pc}
1000ab72:	2400      	movs	r4, #0
1000ab74:	e7f9      	b.n	1000ab6a <tu_fifo_config+0x6a>
1000ab76:	46c0      	nop			; (mov r8, r8)

1000ab78 <tu_fifo_count>:
1000ab78:	89c1      	ldrh	r1, [r0, #14]
1000ab7a:	8a02      	ldrh	r2, [r0, #16]
1000ab7c:	1a8b      	subs	r3, r1, r2
1000ab7e:	b29b      	uxth	r3, r3
1000ab80:	4291      	cmp	r1, r2
1000ab82:	d202      	bcs.n	1000ab8a <tu_fifo_count+0x12>
1000ab84:	8942      	ldrh	r2, [r0, #10]
1000ab86:	1a9b      	subs	r3, r3, r2
1000ab88:	b29b      	uxth	r3, r3
1000ab8a:	8882      	ldrh	r2, [r0, #4]
1000ab8c:	1c10      	adds	r0, r2, #0
1000ab8e:	429a      	cmp	r2, r3
1000ab90:	d900      	bls.n	1000ab94 <tu_fifo_count+0x1c>
1000ab92:	1c18      	adds	r0, r3, #0
1000ab94:	b280      	uxth	r0, r0
1000ab96:	4770      	bx	lr

1000ab98 <tu_fifo_empty>:
1000ab98:	0003      	movs	r3, r0
1000ab9a:	89c0      	ldrh	r0, [r0, #14]
1000ab9c:	8a1b      	ldrh	r3, [r3, #16]
1000ab9e:	1ac0      	subs	r0, r0, r3
1000aba0:	4243      	negs	r3, r0
1000aba2:	4158      	adcs	r0, r3
1000aba4:	b2c0      	uxtb	r0, r0
1000aba6:	4770      	bx	lr

1000aba8 <tu_fifo_remaining>:
1000aba8:	b510      	push	{r4, lr}
1000abaa:	89c4      	ldrh	r4, [r0, #14]
1000abac:	8a01      	ldrh	r1, [r0, #16]
1000abae:	8883      	ldrh	r3, [r0, #4]
1000abb0:	1a62      	subs	r2, r4, r1
1000abb2:	b292      	uxth	r2, r2
1000abb4:	428c      	cmp	r4, r1
1000abb6:	d202      	bcs.n	1000abbe <tu_fifo_remaining+0x16>
1000abb8:	8940      	ldrh	r0, [r0, #10]
1000abba:	1a12      	subs	r2, r2, r0
1000abbc:	b292      	uxth	r2, r2
1000abbe:	1a98      	subs	r0, r3, r2
1000abc0:	b280      	uxth	r0, r0
1000abc2:	bd10      	pop	{r4, pc}

1000abc4 <tu_fifo_read>:
1000abc4:	b570      	push	{r4, r5, r6, lr}
1000abc6:	0004      	movs	r4, r0
1000abc8:	6980      	ldr	r0, [r0, #24]
1000abca:	000e      	movs	r6, r1
1000abcc:	2800      	cmp	r0, #0
1000abce:	d003      	beq.n	1000abd8 <tu_fifo_read+0x14>
1000abd0:	2101      	movs	r1, #1
1000abd2:	4249      	negs	r1, r1
1000abd4:	f000 fb40 	bl	1000b258 <__mutex_enter_timeout_ms_veneer>
1000abd8:	89e1      	ldrh	r1, [r4, #14]
1000abda:	8a22      	ldrh	r2, [r4, #16]
1000abdc:	b288      	uxth	r0, r1
1000abde:	1a8d      	subs	r5, r1, r2
1000abe0:	b293      	uxth	r3, r2
1000abe2:	b2ad      	uxth	r5, r5
1000abe4:	4291      	cmp	r1, r2
1000abe6:	d202      	bcs.n	1000abee <tu_fifo_read+0x2a>
1000abe8:	8962      	ldrh	r2, [r4, #10]
1000abea:	1aad      	subs	r5, r5, r2
1000abec:	b2ad      	uxth	r5, r5
1000abee:	88a2      	ldrh	r2, [r4, #4]
1000abf0:	42aa      	cmp	r2, r5
1000abf2:	d207      	bcs.n	1000ac04 <tu_fifo_read+0x40>
1000abf4:	4290      	cmp	r0, r2
1000abf6:	d225      	bcs.n	1000ac44 <tu_fifo_read+0x80>
1000abf8:	8961      	ldrh	r1, [r4, #10]
1000abfa:	1851      	adds	r1, r2, r1
1000abfc:	1a41      	subs	r1, r0, r1
1000abfe:	b289      	uxth	r1, r1
1000ac00:	0015      	movs	r5, r2
1000ac02:	8221      	strh	r1, [r4, #16]
1000ac04:	2d00      	cmp	r5, #0
1000ac06:	d102      	bne.n	1000ac0e <tu_fifo_read+0x4a>
1000ac08:	e022      	b.n	1000ac50 <tu_fifo_read+0x8c>
1000ac0a:	1a9b      	subs	r3, r3, r2
1000ac0c:	b29b      	uxth	r3, r3
1000ac0e:	429a      	cmp	r2, r3
1000ac10:	d9fb      	bls.n	1000ac0a <tu_fifo_read+0x46>
1000ac12:	88e2      	ldrh	r2, [r4, #6]
1000ac14:	6821      	ldr	r1, [r4, #0]
1000ac16:	4353      	muls	r3, r2
1000ac18:	0030      	movs	r0, r6
1000ac1a:	18c9      	adds	r1, r1, r3
1000ac1c:	f7fd fbbc 	bl	10008398 <__wrap___aeabi_memcpy>
1000ac20:	8a22      	ldrh	r2, [r4, #16]
1000ac22:	2501      	movs	r5, #1
1000ac24:	1c53      	adds	r3, r2, #1
1000ac26:	b29b      	uxth	r3, r3
1000ac28:	429a      	cmp	r2, r3
1000ac2a:	d914      	bls.n	1000ac56 <tu_fifo_read+0x92>
1000ac2c:	2300      	movs	r3, #0
1000ac2e:	8962      	ldrh	r2, [r4, #10]
1000ac30:	189b      	adds	r3, r3, r2
1000ac32:	b29b      	uxth	r3, r3
1000ac34:	69a0      	ldr	r0, [r4, #24]
1000ac36:	8223      	strh	r3, [r4, #16]
1000ac38:	2800      	cmp	r0, #0
1000ac3a:	d001      	beq.n	1000ac40 <tu_fifo_read+0x7c>
1000ac3c:	f000 faec 	bl	1000b218 <__mutex_exit_veneer>
1000ac40:	0028      	movs	r0, r5
1000ac42:	bd70      	pop	{r4, r5, r6, pc}
1000ac44:	1a81      	subs	r1, r0, r2
1000ac46:	89a5      	ldrh	r5, [r4, #12]
1000ac48:	b289      	uxth	r1, r1
1000ac4a:	428d      	cmp	r5, r1
1000ac4c:	d2d8      	bcs.n	1000ac00 <tu_fifo_read+0x3c>
1000ac4e:	e7d3      	b.n	1000abf8 <tu_fifo_read+0x34>
1000ac50:	2500      	movs	r5, #0
1000ac52:	8a23      	ldrh	r3, [r4, #16]
1000ac54:	b29b      	uxth	r3, r3
1000ac56:	89a2      	ldrh	r2, [r4, #12]
1000ac58:	429a      	cmp	r2, r3
1000ac5a:	d2eb      	bcs.n	1000ac34 <tu_fifo_read+0x70>
1000ac5c:	e7e7      	b.n	1000ac2e <tu_fifo_read+0x6a>
1000ac5e:	46c0      	nop			; (mov r8, r8)

1000ac60 <tu_fifo_read_n>:
1000ac60:	b5f0      	push	{r4, r5, r6, r7, lr}
1000ac62:	464f      	mov	r7, r9
1000ac64:	4646      	mov	r6, r8
1000ac66:	46d6      	mov	lr, sl
1000ac68:	0005      	movs	r5, r0
1000ac6a:	6980      	ldr	r0, [r0, #24]
1000ac6c:	4688      	mov	r8, r1
1000ac6e:	4691      	mov	r9, r2
1000ac70:	b5c0      	push	{r6, r7, lr}
1000ac72:	2800      	cmp	r0, #0
1000ac74:	d003      	beq.n	1000ac7e <tu_fifo_read_n+0x1e>
1000ac76:	2101      	movs	r1, #1
1000ac78:	4249      	negs	r1, r1
1000ac7a:	f000 faed 	bl	1000b258 <__mutex_enter_timeout_ms_veneer>
1000ac7e:	89ea      	ldrh	r2, [r5, #14]
1000ac80:	8a2b      	ldrh	r3, [r5, #16]
1000ac82:	b291      	uxth	r1, r2
1000ac84:	1ad6      	subs	r6, r2, r3
1000ac86:	b29c      	uxth	r4, r3
1000ac88:	b2b6      	uxth	r6, r6
1000ac8a:	429a      	cmp	r2, r3
1000ac8c:	d202      	bcs.n	1000ac94 <tu_fifo_read_n+0x34>
1000ac8e:	896b      	ldrh	r3, [r5, #10]
1000ac90:	1af6      	subs	r6, r6, r3
1000ac92:	b2b6      	uxth	r6, r6
1000ac94:	88af      	ldrh	r7, [r5, #4]
1000ac96:	42b7      	cmp	r7, r6
1000ac98:	d209      	bcs.n	1000acae <tu_fifo_read_n+0x4e>
1000ac9a:	42b9      	cmp	r1, r7
1000ac9c:	d254      	bcs.n	1000ad48 <tu_fifo_read_n+0xe8>
1000ac9e:	896b      	ldrh	r3, [r5, #10]
1000aca0:	18fb      	adds	r3, r7, r3
1000aca2:	1acb      	subs	r3, r1, r3
1000aca4:	b29b      	uxth	r3, r3
1000aca6:	003e      	movs	r6, r7
1000aca8:	822b      	strh	r3, [r5, #16]
1000acaa:	8a2c      	ldrh	r4, [r5, #16]
1000acac:	b2a4      	uxth	r4, r4
1000acae:	2e00      	cmp	r6, #0
1000acb0:	d050      	beq.n	1000ad54 <tu_fifo_read_n+0xf4>
1000acb2:	464b      	mov	r3, r9
1000acb4:	45b1      	cmp	r9, r6
1000acb6:	d845      	bhi.n	1000ad44 <tu_fifo_read_n+0xe4>
1000acb8:	b29e      	uxth	r6, r3
1000acba:	42a7      	cmp	r7, r4
1000acbc:	d803      	bhi.n	1000acc6 <tu_fifo_read_n+0x66>
1000acbe:	1be4      	subs	r4, r4, r7
1000acc0:	b2a4      	uxth	r4, r4
1000acc2:	42a7      	cmp	r7, r4
1000acc4:	d9fb      	bls.n	1000acbe <tu_fifo_read_n+0x5e>
1000acc6:	88eb      	ldrh	r3, [r5, #6]
1000acc8:	1b38      	subs	r0, r7, r4
1000acca:	0019      	movs	r1, r3
1000accc:	4699      	mov	r9, r3
1000acce:	682b      	ldr	r3, [r5, #0]
1000acd0:	4361      	muls	r1, r4
1000acd2:	469c      	mov	ip, r3
1000acd4:	b280      	uxth	r0, r0
1000acd6:	4461      	add	r1, ip
1000acd8:	4286      	cmp	r6, r0
1000acda:	d925      	bls.n	1000ad28 <tu_fifo_read_n+0xc8>
1000acdc:	464b      	mov	r3, r9
1000acde:	4358      	muls	r0, r3
1000ace0:	b283      	uxth	r3, r0
1000ace2:	001a      	movs	r2, r3
1000ace4:	4640      	mov	r0, r8
1000ace6:	469a      	mov	sl, r3
1000ace8:	f7fd fb56 	bl	10008398 <__wrap___aeabi_memcpy>
1000acec:	464b      	mov	r3, r9
1000acee:	4640      	mov	r0, r8
1000acf0:	1bf7      	subs	r7, r6, r7
1000acf2:	19e4      	adds	r4, r4, r7
1000acf4:	435c      	muls	r4, r3
1000acf6:	6829      	ldr	r1, [r5, #0]
1000acf8:	b2a2      	uxth	r2, r4
1000acfa:	4450      	add	r0, sl
1000acfc:	f7fd fb4c 	bl	10008398 <__wrap___aeabi_memcpy>
1000ad00:	8a2a      	ldrh	r2, [r5, #16]
1000ad02:	1993      	adds	r3, r2, r6
1000ad04:	b29b      	uxth	r3, r3
1000ad06:	429a      	cmp	r2, r3
1000ad08:	d918      	bls.n	1000ad3c <tu_fifo_read_n+0xdc>
1000ad0a:	896a      	ldrh	r2, [r5, #10]
1000ad0c:	189b      	adds	r3, r3, r2
1000ad0e:	b29b      	uxth	r3, r3
1000ad10:	69a8      	ldr	r0, [r5, #24]
1000ad12:	822b      	strh	r3, [r5, #16]
1000ad14:	2800      	cmp	r0, #0
1000ad16:	d001      	beq.n	1000ad1c <tu_fifo_read_n+0xbc>
1000ad18:	f000 fa7e 	bl	1000b218 <__mutex_exit_veneer>
1000ad1c:	0030      	movs	r0, r6
1000ad1e:	bce0      	pop	{r5, r6, r7}
1000ad20:	46ba      	mov	sl, r7
1000ad22:	46b1      	mov	r9, r6
1000ad24:	46a8      	mov	r8, r5
1000ad26:	bdf0      	pop	{r4, r5, r6, r7, pc}
1000ad28:	464a      	mov	r2, r9
1000ad2a:	4640      	mov	r0, r8
1000ad2c:	4372      	muls	r2, r6
1000ad2e:	f7fd fb33 	bl	10008398 <__wrap___aeabi_memcpy>
1000ad32:	8a2a      	ldrh	r2, [r5, #16]
1000ad34:	1993      	adds	r3, r2, r6
1000ad36:	b29b      	uxth	r3, r3
1000ad38:	429a      	cmp	r2, r3
1000ad3a:	d8e6      	bhi.n	1000ad0a <tu_fifo_read_n+0xaa>
1000ad3c:	89aa      	ldrh	r2, [r5, #12]
1000ad3e:	429a      	cmp	r2, r3
1000ad40:	d2e6      	bcs.n	1000ad10 <tu_fifo_read_n+0xb0>
1000ad42:	e7e2      	b.n	1000ad0a <tu_fifo_read_n+0xaa>
1000ad44:	1c33      	adds	r3, r6, #0
1000ad46:	e7b7      	b.n	1000acb8 <tu_fifo_read_n+0x58>
1000ad48:	1bcb      	subs	r3, r1, r7
1000ad4a:	89aa      	ldrh	r2, [r5, #12]
1000ad4c:	b29b      	uxth	r3, r3
1000ad4e:	429a      	cmp	r2, r3
1000ad50:	d2a9      	bcs.n	1000aca6 <tu_fifo_read_n+0x46>
1000ad52:	e7a4      	b.n	1000ac9e <tu_fifo_read_n+0x3e>
1000ad54:	8a2b      	ldrh	r3, [r5, #16]
1000ad56:	89aa      	ldrh	r2, [r5, #12]
1000ad58:	b29b      	uxth	r3, r3
1000ad5a:	429a      	cmp	r2, r3
1000ad5c:	d2d8      	bcs.n	1000ad10 <tu_fifo_read_n+0xb0>
1000ad5e:	e7d4      	b.n	1000ad0a <tu_fifo_read_n+0xaa>

1000ad60 <tu_fifo_write>:
1000ad60:	b5f8      	push	{r3, r4, r5, r6, r7, lr}
1000ad62:	0004      	movs	r4, r0
1000ad64:	6940      	ldr	r0, [r0, #20]
1000ad66:	000e      	movs	r6, r1
1000ad68:	2800      	cmp	r0, #0
1000ad6a:	d003      	beq.n	1000ad74 <tu_fifo_write+0x14>
1000ad6c:	2101      	movs	r1, #1
1000ad6e:	4249      	negs	r1, r1
1000ad70:	f000 fa72 	bl	1000b258 <__mutex_enter_timeout_ms_veneer>
1000ad74:	89e2      	ldrh	r2, [r4, #14]
1000ad76:	8a21      	ldrh	r1, [r4, #16]
1000ad78:	b295      	uxth	r5, r2
1000ad7a:	1a53      	subs	r3, r2, r1
1000ad7c:	b29b      	uxth	r3, r3
1000ad7e:	4291      	cmp	r1, r2
1000ad80:	d902      	bls.n	1000ad88 <tu_fifo_write+0x28>
1000ad82:	8962      	ldrh	r2, [r4, #10]
1000ad84:	1a9b      	subs	r3, r3, r2
1000ad86:	b29b      	uxth	r3, r3
1000ad88:	88a2      	ldrh	r2, [r4, #4]
1000ad8a:	429a      	cmp	r2, r3
1000ad8c:	d021      	beq.n	1000add2 <tu_fifo_write+0x72>
1000ad8e:	002b      	movs	r3, r5
1000ad90:	4295      	cmp	r5, r2
1000ad92:	d303      	bcc.n	1000ad9c <tu_fifo_write+0x3c>
1000ad94:	1a9b      	subs	r3, r3, r2
1000ad96:	b29b      	uxth	r3, r3
1000ad98:	429a      	cmp	r2, r3
1000ad9a:	d9fb      	bls.n	1000ad94 <tu_fifo_write+0x34>
1000ad9c:	88e2      	ldrh	r2, [r4, #6]
1000ad9e:	6821      	ldr	r1, [r4, #0]
1000ada0:	4353      	muls	r3, r2
1000ada2:	18c8      	adds	r0, r1, r3
1000ada4:	0031      	movs	r1, r6
1000ada6:	f7fd faf7 	bl	10008398 <__wrap___aeabi_memcpy>
1000adaa:	1c6b      	adds	r3, r5, #1
1000adac:	b29b      	uxth	r3, r3
1000adae:	429d      	cmp	r5, r3
1000adb0:	d90b      	bls.n	1000adca <tu_fifo_write+0x6a>
1000adb2:	8962      	ldrh	r2, [r4, #10]
1000adb4:	189b      	adds	r3, r3, r2
1000adb6:	b29b      	uxth	r3, r3
1000adb8:	6960      	ldr	r0, [r4, #20]
1000adba:	2701      	movs	r7, #1
1000adbc:	81e3      	strh	r3, [r4, #14]
1000adbe:	2800      	cmp	r0, #0
1000adc0:	d001      	beq.n	1000adc6 <tu_fifo_write+0x66>
1000adc2:	f000 fa29 	bl	1000b218 <__mutex_exit_veneer>
1000adc6:	0038      	movs	r0, r7
1000adc8:	bdf8      	pop	{r3, r4, r5, r6, r7, pc}
1000adca:	89a2      	ldrh	r2, [r4, #12]
1000adcc:	429a      	cmp	r2, r3
1000adce:	d2f3      	bcs.n	1000adb8 <tu_fifo_write+0x58>
1000add0:	e7ef      	b.n	1000adb2 <tu_fifo_write+0x52>
1000add2:	7a27      	ldrb	r7, [r4, #8]
1000add4:	2f00      	cmp	r7, #0
1000add6:	d1da      	bne.n	1000ad8e <tu_fifo_write+0x2e>
1000add8:	e7f5      	b.n	1000adc6 <tu_fifo_write+0x66>
1000adda:	46c0      	nop			; (mov r8, r8)

1000addc <tu_fifo_write_n>:
1000addc:	b5f8      	push	{r3, r4, r5, r6, r7, lr}
1000adde:	4645      	mov	r5, r8
1000ade0:	464e      	mov	r6, r9
1000ade2:	46de      	mov	lr, fp
1000ade4:	4657      	mov	r7, sl
1000ade6:	4688      	mov	r8, r1
1000ade8:	b5e0      	push	{r5, r6, r7, lr}
1000adea:	0005      	movs	r5, r0
1000adec:	1e16      	subs	r6, r2, #0
1000adee:	d05a      	beq.n	1000aea6 <tu_fifo_write_n+0xca>
1000adf0:	6940      	ldr	r0, [r0, #20]
1000adf2:	2800      	cmp	r0, #0
1000adf4:	d003      	beq.n	1000adfe <tu_fifo_write_n+0x22>
1000adf6:	2101      	movs	r1, #1
1000adf8:	4249      	negs	r1, r1
1000adfa:	f000 fa2d 	bl	1000b258 <__mutex_enter_timeout_ms_veneer>
1000adfe:	89ef      	ldrh	r7, [r5, #14]
1000ae00:	7a2b      	ldrb	r3, [r5, #8]
1000ae02:	8a29      	ldrh	r1, [r5, #16]
1000ae04:	b2bf      	uxth	r7, r7
1000ae06:	b289      	uxth	r1, r1
1000ae08:	2b00      	cmp	r3, #0
1000ae0a:	d13b      	bne.n	1000ae84 <tu_fifo_write_n+0xa8>
1000ae0c:	1a7a      	subs	r2, r7, r1
1000ae0e:	88ab      	ldrh	r3, [r5, #4]
1000ae10:	b292      	uxth	r2, r2
1000ae12:	428f      	cmp	r7, r1
1000ae14:	d202      	bcs.n	1000ae1c <tu_fifo_write_n+0x40>
1000ae16:	8969      	ldrh	r1, [r5, #10]
1000ae18:	1a52      	subs	r2, r2, r1
1000ae1a:	b292      	uxth	r2, r2
1000ae1c:	1a9a      	subs	r2, r3, r2
1000ae1e:	1c11      	adds	r1, r2, #0
1000ae20:	b292      	uxth	r2, r2
1000ae22:	42b2      	cmp	r2, r6
1000ae24:	d853      	bhi.n	1000aece <tu_fifo_write_n+0xf2>
1000ae26:	88ea      	ldrh	r2, [r5, #6]
1000ae28:	b28e      	uxth	r6, r1
1000ae2a:	4692      	mov	sl, r2
1000ae2c:	1af2      	subs	r2, r6, r3
1000ae2e:	b292      	uxth	r2, r2
1000ae30:	4691      	mov	r9, r2
1000ae32:	003c      	movs	r4, r7
1000ae34:	429f      	cmp	r7, r3
1000ae36:	d303      	bcc.n	1000ae40 <tu_fifo_write_n+0x64>
1000ae38:	1ae4      	subs	r4, r4, r3
1000ae3a:	b2a4      	uxth	r4, r4
1000ae3c:	429c      	cmp	r4, r3
1000ae3e:	d2fb      	bcs.n	1000ae38 <tu_fifo_write_n+0x5c>
1000ae40:	4650      	mov	r0, sl
1000ae42:	682a      	ldr	r2, [r5, #0]
1000ae44:	4360      	muls	r0, r4
1000ae46:	4694      	mov	ip, r2
1000ae48:	1b1b      	subs	r3, r3, r4
1000ae4a:	b29b      	uxth	r3, r3
1000ae4c:	4652      	mov	r2, sl
1000ae4e:	4460      	add	r0, ip
1000ae50:	429e      	cmp	r6, r3
1000ae52:	d82a      	bhi.n	1000aeaa <tu_fifo_write_n+0xce>
1000ae54:	4641      	mov	r1, r8
1000ae56:	4372      	muls	r2, r6
1000ae58:	f7fd fa9e 	bl	10008398 <__wrap___aeabi_memcpy>
1000ae5c:	19f3      	adds	r3, r6, r7
1000ae5e:	b29b      	uxth	r3, r3
1000ae60:	429f      	cmp	r7, r3
1000ae62:	d81c      	bhi.n	1000ae9e <tu_fifo_write_n+0xc2>
1000ae64:	89aa      	ldrh	r2, [r5, #12]
1000ae66:	429a      	cmp	r2, r3
1000ae68:	d319      	bcc.n	1000ae9e <tu_fifo_write_n+0xc2>
1000ae6a:	6968      	ldr	r0, [r5, #20]
1000ae6c:	81eb      	strh	r3, [r5, #14]
1000ae6e:	2800      	cmp	r0, #0
1000ae70:	d001      	beq.n	1000ae76 <tu_fifo_write_n+0x9a>
1000ae72:	f000 f9d1 	bl	1000b218 <__mutex_exit_veneer>
1000ae76:	0030      	movs	r0, r6
1000ae78:	bcf0      	pop	{r4, r5, r6, r7}
1000ae7a:	46bb      	mov	fp, r7
1000ae7c:	46b2      	mov	sl, r6
1000ae7e:	46a9      	mov	r9, r5
1000ae80:	46a0      	mov	r8, r4
1000ae82:	bdf8      	pop	{r3, r4, r5, r6, r7, pc}
1000ae84:	88ea      	ldrh	r2, [r5, #6]
1000ae86:	88ab      	ldrh	r3, [r5, #4]
1000ae88:	4692      	mov	sl, r2
1000ae8a:	429e      	cmp	r6, r3
1000ae8c:	d321      	bcc.n	1000aed2 <tu_fifo_write_n+0xf6>
1000ae8e:	1af6      	subs	r6, r6, r3
1000ae90:	4356      	muls	r6, r2
1000ae92:	2200      	movs	r2, #0
1000ae94:	44b0      	add	r8, r6
1000ae96:	000f      	movs	r7, r1
1000ae98:	001e      	movs	r6, r3
1000ae9a:	4691      	mov	r9, r2
1000ae9c:	e7c9      	b.n	1000ae32 <tu_fifo_write_n+0x56>
1000ae9e:	896a      	ldrh	r2, [r5, #10]
1000aea0:	189b      	adds	r3, r3, r2
1000aea2:	b29b      	uxth	r3, r3
1000aea4:	e7e1      	b.n	1000ae6a <tu_fifo_write_n+0x8e>
1000aea6:	2600      	movs	r6, #0
1000aea8:	e7e5      	b.n	1000ae76 <tu_fifo_write_n+0x9a>
1000aeaa:	4353      	muls	r3, r2
1000aeac:	b29b      	uxth	r3, r3
1000aeae:	001a      	movs	r2, r3
1000aeb0:	4641      	mov	r1, r8
1000aeb2:	469b      	mov	fp, r3
1000aeb4:	f7fd fa70 	bl	10008398 <__wrap___aeabi_memcpy>
1000aeb8:	0022      	movs	r2, r4
1000aeba:	4653      	mov	r3, sl
1000aebc:	4641      	mov	r1, r8
1000aebe:	444a      	add	r2, r9
1000aec0:	435a      	muls	r2, r3
1000aec2:	6828      	ldr	r0, [r5, #0]
1000aec4:	b292      	uxth	r2, r2
1000aec6:	4459      	add	r1, fp
1000aec8:	f7fd fa66 	bl	10008398 <__wrap___aeabi_memcpy>
1000aecc:	e7c6      	b.n	1000ae5c <tu_fifo_write_n+0x80>
1000aece:	1c31      	adds	r1, r6, #0
1000aed0:	e7a9      	b.n	1000ae26 <tu_fifo_write_n+0x4a>
1000aed2:	1af2      	subs	r2, r6, r3
1000aed4:	b292      	uxth	r2, r2
1000aed6:	4691      	mov	r9, r2
1000aed8:	e7ab      	b.n	1000ae32 <tu_fifo_write_n+0x56>
1000aeda:	46c0      	nop			; (mov r8, r8)

1000aedc <tu_fifo_clear>:
1000aedc:	b510      	push	{r4, lr}
1000aede:	0004      	movs	r4, r0
1000aee0:	6940      	ldr	r0, [r0, #20]
1000aee2:	2800      	cmp	r0, #0
1000aee4:	d003      	beq.n	1000aeee <tu_fifo_clear+0x12>
1000aee6:	2101      	movs	r1, #1
1000aee8:	4249      	negs	r1, r1
1000aeea:	f000 f9b5 	bl	1000b258 <__mutex_enter_timeout_ms_veneer>
1000aeee:	69a0      	ldr	r0, [r4, #24]
1000aef0:	2800      	cmp	r0, #0
1000aef2:	d003      	beq.n	1000aefc <tu_fifo_clear+0x20>
1000aef4:	2101      	movs	r1, #1
1000aef6:	4249      	negs	r1, r1
1000aef8:	f000 f9ae 	bl	1000b258 <__mutex_enter_timeout_ms_veneer>
1000aefc:	2300      	movs	r3, #0
1000aefe:	81e3      	strh	r3, [r4, #14]
1000af00:	8223      	strh	r3, [r4, #16]
1000af02:	88a3      	ldrh	r3, [r4, #4]
1000af04:	6960      	ldr	r0, [r4, #20]
1000af06:	005b      	lsls	r3, r3, #1
1000af08:	b29b      	uxth	r3, r3
1000af0a:	1e5a      	subs	r2, r3, #1
1000af0c:	425b      	negs	r3, r3
1000af0e:	81a2      	strh	r2, [r4, #12]
1000af10:	8163      	strh	r3, [r4, #10]
1000af12:	2800      	cmp	r0, #0
1000af14:	d001      	beq.n	1000af1a <tu_fifo_clear+0x3e>
1000af16:	f000 f97f 	bl	1000b218 <__mutex_exit_veneer>
1000af1a:	69a0      	ldr	r0, [r4, #24]
1000af1c:	2800      	cmp	r0, #0
1000af1e:	d001      	beq.n	1000af24 <tu_fifo_clear+0x48>
1000af20:	f000 f97a 	bl	1000b218 <__mutex_exit_veneer>
1000af24:	2001      	movs	r0, #1
1000af26:	bd10      	pop	{r4, pc}

1000af28 <tu_fifo_set_overwritable>:
1000af28:	b570      	push	{r4, r5, r6, lr}
1000af2a:	0004      	movs	r4, r0
1000af2c:	6940      	ldr	r0, [r0, #20]
1000af2e:	000d      	movs	r5, r1
1000af30:	2800      	cmp	r0, #0
1000af32:	d003      	beq.n	1000af3c <tu_fifo_set_overwritable+0x14>
1000af34:	2101      	movs	r1, #1
1000af36:	4249      	negs	r1, r1
1000af38:	f000 f98e 	bl	1000b258 <__mutex_enter_timeout_ms_veneer>
1000af3c:	69a0      	ldr	r0, [r4, #24]
1000af3e:	2800      	cmp	r0, #0
1000af40:	d003      	beq.n	1000af4a <tu_fifo_set_overwritable+0x22>
1000af42:	2101      	movs	r1, #1
1000af44:	4249      	negs	r1, r1
1000af46:	f000 f987 	bl	1000b258 <__mutex_enter_timeout_ms_veneer>
1000af4a:	6960      	ldr	r0, [r4, #20]
1000af4c:	7225      	strb	r5, [r4, #8]
1000af4e:	2800      	cmp	r0, #0
1000af50:	d001      	beq.n	1000af56 <tu_fifo_set_overwritable+0x2e>
1000af52:	f000 f961 	bl	1000b218 <__mutex_exit_veneer>
1000af56:	69a0      	ldr	r0, [r4, #24]
1000af58:	2800      	cmp	r0, #0
1000af5a:	d001      	beq.n	1000af60 <tu_fifo_set_overwritable+0x38>
1000af5c:	f000 f95c 	bl	1000b218 <__mutex_exit_veneer>
1000af60:	2001      	movs	r0, #1
1000af62:	bd70      	pop	{r4, r5, r6, pc}

1000af64 <_retrieve_unique_id_on_boot>:
1000af64:	b510      	push	{r4, lr}
1000af66:	4802      	ldr	r0, [pc, #8]	; (1000af70 <_retrieve_unique_id_on_boot+0xc>)
1000af68:	f000 f8d8 	bl	1000b11c <flash_get_unique_id>
1000af6c:	bd10      	pop	{r4, pc}
1000af6e:	46c0      	nop			; (mov r8, r8)
1000af70:	2000af98 	.word	0x2000af98

1000af74 <pico_get_unique_board_id_string>:
1000af74:	b530      	push	{r4, r5, lr}
1000af76:	1e4b      	subs	r3, r1, #1
1000af78:	2901      	cmp	r1, #1
1000af7a:	d100      	bne.n	1000af7e <pico_get_unique_board_id_string+0xa>
1000af7c:	e0a7      	b.n	1000b0ce <pico_get_unique_board_id_string+0x15a>
1000af7e:	4a66      	ldr	r2, [pc, #408]	; (1000b118 <pico_get_unique_board_id_string+0x1a4>)
1000af80:	7811      	ldrb	r1, [r2, #0]
1000af82:	110d      	asrs	r5, r1, #4
1000af84:	002c      	movs	r4, r5
1000af86:	3430      	adds	r4, #48	; 0x30
1000af88:	299f      	cmp	r1, #159	; 0x9f
1000af8a:	d900      	bls.n	1000af8e <pico_get_unique_board_id_string+0x1a>
1000af8c:	e0a2      	b.n	1000b0d4 <pico_get_unique_board_id_string+0x160>
1000af8e:	7004      	strb	r4, [r0, #0]
1000af90:	2b01      	cmp	r3, #1
1000af92:	d100      	bne.n	1000af96 <pico_get_unique_board_id_string+0x22>
1000af94:	e0be      	b.n	1000b114 <pico_get_unique_board_id_string+0x1a0>
1000af96:	210f      	movs	r1, #15
1000af98:	7814      	ldrb	r4, [r2, #0]
1000af9a:	4021      	ands	r1, r4
1000af9c:	000c      	movs	r4, r1
1000af9e:	3430      	adds	r4, #48	; 0x30
1000afa0:	2909      	cmp	r1, #9
1000afa2:	dd00      	ble.n	1000afa6 <pico_get_unique_board_id_string+0x32>
1000afa4:	e098      	b.n	1000b0d8 <pico_get_unique_board_id_string+0x164>
1000afa6:	7044      	strb	r4, [r0, #1]
1000afa8:	2b02      	cmp	r3, #2
1000afaa:	d100      	bne.n	1000afae <pico_get_unique_board_id_string+0x3a>
1000afac:	e0b2      	b.n	1000b114 <pico_get_unique_board_id_string+0x1a0>
1000afae:	7854      	ldrb	r4, [r2, #1]
1000afb0:	1125      	asrs	r5, r4, #4
1000afb2:	0029      	movs	r1, r5
1000afb4:	3130      	adds	r1, #48	; 0x30
1000afb6:	2c9f      	cmp	r4, #159	; 0x9f
1000afb8:	d900      	bls.n	1000afbc <pico_get_unique_board_id_string+0x48>
1000afba:	e090      	b.n	1000b0de <pico_get_unique_board_id_string+0x16a>
1000afbc:	7081      	strb	r1, [r0, #2]
1000afbe:	2b03      	cmp	r3, #3
1000afc0:	d100      	bne.n	1000afc4 <pico_get_unique_board_id_string+0x50>
1000afc2:	e0a7      	b.n	1000b114 <pico_get_unique_board_id_string+0x1a0>
1000afc4:	210f      	movs	r1, #15
1000afc6:	4021      	ands	r1, r4
1000afc8:	000c      	movs	r4, r1
1000afca:	3430      	adds	r4, #48	; 0x30
1000afcc:	2909      	cmp	r1, #9
1000afce:	dd00      	ble.n	1000afd2 <pico_get_unique_board_id_string+0x5e>
1000afd0:	e087      	b.n	1000b0e2 <pico_get_unique_board_id_string+0x16e>
1000afd2:	70c4      	strb	r4, [r0, #3]
1000afd4:	2b04      	cmp	r3, #4
1000afd6:	d100      	bne.n	1000afda <pico_get_unique_board_id_string+0x66>
1000afd8:	e09c      	b.n	1000b114 <pico_get_unique_board_id_string+0x1a0>
1000afda:	7894      	ldrb	r4, [r2, #2]
1000afdc:	1125      	asrs	r5, r4, #4
1000afde:	0029      	movs	r1, r5
1000afe0:	3130      	adds	r1, #48	; 0x30
1000afe2:	2c9f      	cmp	r4, #159	; 0x9f
1000afe4:	d900      	bls.n	1000afe8 <pico_get_unique_board_id_string+0x74>
1000afe6:	e07f      	b.n	1000b0e8 <pico_get_unique_board_id_string+0x174>
1000afe8:	7101      	strb	r1, [r0, #4]
1000afea:	2b05      	cmp	r3, #5
1000afec:	d100      	bne.n	1000aff0 <pico_get_unique_board_id_string+0x7c>
1000afee:	e091      	b.n	1000b114 <pico_get_unique_board_id_string+0x1a0>
1000aff0:	210f      	movs	r1, #15
1000aff2:	4021      	ands	r1, r4
1000aff4:	000c      	movs	r4, r1
1000aff6:	3430      	adds	r4, #48	; 0x30
1000aff8:	2909      	cmp	r1, #9
1000affa:	dd00      	ble.n	1000affe <pico_get_unique_board_id_string+0x8a>
1000affc:	e076      	b.n	1000b0ec <pico_get_unique_board_id_string+0x178>
1000affe:	7144      	strb	r4, [r0, #5]
1000b000:	2b06      	cmp	r3, #6
1000b002:	d100      	bne.n	1000b006 <pico_get_unique_board_id_string+0x92>
1000b004:	e086      	b.n	1000b114 <pico_get_unique_board_id_string+0x1a0>
1000b006:	78d4      	ldrb	r4, [r2, #3]
1000b008:	1125      	asrs	r5, r4, #4
1000b00a:	0029      	movs	r1, r5
1000b00c:	3130      	adds	r1, #48	; 0x30
1000b00e:	2c9f      	cmp	r4, #159	; 0x9f
1000b010:	d900      	bls.n	1000b014 <pico_get_unique_board_id_string+0xa0>
1000b012:	e06e      	b.n	1000b0f2 <pico_get_unique_board_id_string+0x17e>
1000b014:	7181      	strb	r1, [r0, #6]
1000b016:	2b07      	cmp	r3, #7
1000b018:	d100      	bne.n	1000b01c <pico_get_unique_board_id_string+0xa8>
1000b01a:	e07b      	b.n	1000b114 <pico_get_unique_board_id_string+0x1a0>
1000b01c:	210f      	movs	r1, #15
1000b01e:	4021      	ands	r1, r4
1000b020:	000c      	movs	r4, r1
1000b022:	3430      	adds	r4, #48	; 0x30
1000b024:	2909      	cmp	r1, #9
1000b026:	dc66      	bgt.n	1000b0f6 <pico_get_unique_board_id_string+0x182>
1000b028:	71c4      	strb	r4, [r0, #7]
1000b02a:	2b08      	cmp	r3, #8
1000b02c:	d100      	bne.n	1000b030 <pico_get_unique_board_id_string+0xbc>
1000b02e:	e071      	b.n	1000b114 <pico_get_unique_board_id_string+0x1a0>
1000b030:	7914      	ldrb	r4, [r2, #4]
1000b032:	1125      	asrs	r5, r4, #4
1000b034:	0029      	movs	r1, r5
1000b036:	3130      	adds	r1, #48	; 0x30
1000b038:	2c9f      	cmp	r4, #159	; 0x9f
1000b03a:	d85f      	bhi.n	1000b0fc <pico_get_unique_board_id_string+0x188>
1000b03c:	7201      	strb	r1, [r0, #8]
1000b03e:	2b09      	cmp	r3, #9
1000b040:	d068      	beq.n	1000b114 <pico_get_unique_board_id_string+0x1a0>
1000b042:	210f      	movs	r1, #15
1000b044:	4021      	ands	r1, r4
1000b046:	000c      	movs	r4, r1
1000b048:	3430      	adds	r4, #48	; 0x30
1000b04a:	2909      	cmp	r1, #9
1000b04c:	dc58      	bgt.n	1000b100 <pico_get_unique_board_id_string+0x18c>
1000b04e:	7244      	strb	r4, [r0, #9]
1000b050:	2b0a      	cmp	r3, #10
1000b052:	d05f      	beq.n	1000b114 <pico_get_unique_board_id_string+0x1a0>
1000b054:	7954      	ldrb	r4, [r2, #5]
1000b056:	1125      	asrs	r5, r4, #4
1000b058:	0029      	movs	r1, r5
1000b05a:	3130      	adds	r1, #48	; 0x30
1000b05c:	2c9f      	cmp	r4, #159	; 0x9f
1000b05e:	d852      	bhi.n	1000b106 <pico_get_unique_board_id_string+0x192>
1000b060:	7281      	strb	r1, [r0, #10]
1000b062:	2b0b      	cmp	r3, #11
1000b064:	d056      	beq.n	1000b114 <pico_get_unique_board_id_string+0x1a0>
1000b066:	210f      	movs	r1, #15
1000b068:	4021      	ands	r1, r4
1000b06a:	000c      	movs	r4, r1
1000b06c:	3430      	adds	r4, #48	; 0x30
1000b06e:	2909      	cmp	r1, #9
1000b070:	dc4b      	bgt.n	1000b10a <pico_get_unique_board_id_string+0x196>
1000b072:	72c4      	strb	r4, [r0, #11]
1000b074:	2b0c      	cmp	r3, #12
1000b076:	d04d      	beq.n	1000b114 <pico_get_unique_board_id_string+0x1a0>
1000b078:	7994      	ldrb	r4, [r2, #6]
1000b07a:	1125      	asrs	r5, r4, #4
1000b07c:	0029      	movs	r1, r5
1000b07e:	3130      	adds	r1, #48	; 0x30
1000b080:	2c9f      	cmp	r4, #159	; 0x9f
1000b082:	d900      	bls.n	1000b086 <pico_get_unique_board_id_string+0x112>
1000b084:	3107      	adds	r1, #7
1000b086:	7301      	strb	r1, [r0, #12]
1000b088:	2b0d      	cmp	r3, #13
1000b08a:	d043      	beq.n	1000b114 <pico_get_unique_board_id_string+0x1a0>
1000b08c:	210f      	movs	r1, #15
1000b08e:	4021      	ands	r1, r4
1000b090:	000c      	movs	r4, r1
1000b092:	3430      	adds	r4, #48	; 0x30
1000b094:	2909      	cmp	r1, #9
1000b096:	dd01      	ble.n	1000b09c <pico_get_unique_board_id_string+0x128>
1000b098:	3137      	adds	r1, #55	; 0x37
1000b09a:	000c      	movs	r4, r1
1000b09c:	7344      	strb	r4, [r0, #13]
1000b09e:	2b0e      	cmp	r3, #14
1000b0a0:	d038      	beq.n	1000b114 <pico_get_unique_board_id_string+0x1a0>
1000b0a2:	79d1      	ldrb	r1, [r2, #7]
1000b0a4:	110c      	asrs	r4, r1, #4
1000b0a6:	0022      	movs	r2, r4
1000b0a8:	3230      	adds	r2, #48	; 0x30
1000b0aa:	299f      	cmp	r1, #159	; 0x9f
1000b0ac:	d900      	bls.n	1000b0b0 <pico_get_unique_board_id_string+0x13c>
1000b0ae:	3207      	adds	r2, #7
1000b0b0:	7382      	strb	r2, [r0, #14]
1000b0b2:	2b0f      	cmp	r3, #15
1000b0b4:	d02e      	beq.n	1000b114 <pico_get_unique_board_id_string+0x1a0>
1000b0b6:	220f      	movs	r2, #15
1000b0b8:	400a      	ands	r2, r1
1000b0ba:	0011      	movs	r1, r2
1000b0bc:	3137      	adds	r1, #55	; 0x37
1000b0be:	2a09      	cmp	r2, #9
1000b0c0:	dc01      	bgt.n	1000b0c6 <pico_get_unique_board_id_string+0x152>
1000b0c2:	3230      	adds	r2, #48	; 0x30
1000b0c4:	0011      	movs	r1, r2
1000b0c6:	73c1      	strb	r1, [r0, #15]
1000b0c8:	2b10      	cmp	r3, #16
1000b0ca:	d023      	beq.n	1000b114 <pico_get_unique_board_id_string+0x1a0>
1000b0cc:	3010      	adds	r0, #16
1000b0ce:	2300      	movs	r3, #0
1000b0d0:	7003      	strb	r3, [r0, #0]
1000b0d2:	bd30      	pop	{r4, r5, pc}
1000b0d4:	3407      	adds	r4, #7
1000b0d6:	e75a      	b.n	1000af8e <pico_get_unique_board_id_string+0x1a>
1000b0d8:	3137      	adds	r1, #55	; 0x37
1000b0da:	000c      	movs	r4, r1
1000b0dc:	e763      	b.n	1000afa6 <pico_get_unique_board_id_string+0x32>
1000b0de:	3107      	adds	r1, #7
1000b0e0:	e76c      	b.n	1000afbc <pico_get_unique_board_id_string+0x48>
1000b0e2:	3137      	adds	r1, #55	; 0x37
1000b0e4:	000c      	movs	r4, r1
1000b0e6:	e774      	b.n	1000afd2 <pico_get_unique_board_id_string+0x5e>
1000b0e8:	3107      	adds	r1, #7
1000b0ea:	e77d      	b.n	1000afe8 <pico_get_unique_board_id_string+0x74>
1000b0ec:	3137      	adds	r1, #55	; 0x37
1000b0ee:	000c      	movs	r4, r1
1000b0f0:	e785      	b.n	1000affe <pico_get_unique_board_id_string+0x8a>
1000b0f2:	3107      	adds	r1, #7
1000b0f4:	e78e      	b.n	1000b014 <pico_get_unique_board_id_string+0xa0>
1000b0f6:	3137      	adds	r1, #55	; 0x37
1000b0f8:	000c      	movs	r4, r1
1000b0fa:	e795      	b.n	1000b028 <pico_get_unique_board_id_string+0xb4>
1000b0fc:	3107      	adds	r1, #7
1000b0fe:	e79d      	b.n	1000b03c <pico_get_unique_board_id_string+0xc8>
1000b100:	3137      	adds	r1, #55	; 0x37
1000b102:	000c      	movs	r4, r1
1000b104:	e7a3      	b.n	1000b04e <pico_get_unique_board_id_string+0xda>
1000b106:	3107      	adds	r1, #7
1000b108:	e7aa      	b.n	1000b060 <pico_get_unique_board_id_string+0xec>
1000b10a:	3137      	adds	r1, #55	; 0x37
1000b10c:	000c      	movs	r4, r1
1000b10e:	72c4      	strb	r4, [r0, #11]
1000b110:	2b0c      	cmp	r3, #12
1000b112:	d1b1      	bne.n	1000b078 <pico_get_unique_board_id_string+0x104>
1000b114:	18c0      	adds	r0, r0, r3
1000b116:	e7da      	b.n	1000b0ce <pico_get_unique_board_id_string+0x15a>
1000b118:	2000af98 	.word	0x2000af98

1000b11c <flash_get_unique_id>:
1000b11c:	b530      	push	{r4, r5, lr}
1000b11e:	2500      	movs	r5, #0
1000b120:	b089      	sub	sp, #36	; 0x24
1000b122:	0004      	movs	r4, r0
1000b124:	2209      	movs	r2, #9
1000b126:	2100      	movs	r1, #0
1000b128:	a801      	add	r0, sp, #4
1000b12a:	9500      	str	r5, [sp, #0]
1000b12c:	f7fd f92e 	bl	1000838c <__wrap_memset>
1000b130:	2209      	movs	r2, #9
1000b132:	2100      	movs	r1, #0
1000b134:	a805      	add	r0, sp, #20
1000b136:	9504      	str	r5, [sp, #16]
1000b138:	f7fd f928 	bl	1000838c <__wrap_memset>
1000b13c:	234b      	movs	r3, #75	; 0x4b
1000b13e:	466a      	mov	r2, sp
1000b140:	4668      	mov	r0, sp
1000b142:	7013      	strb	r3, [r2, #0]
1000b144:	a904      	add	r1, sp, #16
1000b146:	220d      	movs	r2, #13
1000b148:	f000 f85e 	bl	1000b208 <__flash_do_cmd_veneer>
1000b14c:	2115      	movs	r1, #21
1000b14e:	2208      	movs	r2, #8
1000b150:	0020      	movs	r0, r4
1000b152:	4469      	add	r1, sp
1000b154:	f7fd f920 	bl	10008398 <__wrap___aeabi_memcpy>
1000b158:	b009      	add	sp, #36	; 0x24
1000b15a:	bd30      	pop	{r4, r5, pc}

1000b15c <srandom>:
1000b15c:	2200      	movs	r2, #0
1000b15e:	4b03      	ldr	r3, [pc, #12]	; (1000b16c <srandom+0x10>)
1000b160:	681b      	ldr	r3, [r3, #0]
1000b162:	33a8      	adds	r3, #168	; 0xa8
1000b164:	6018      	str	r0, [r3, #0]
1000b166:	605a      	str	r2, [r3, #4]
1000b168:	4770      	bx	lr
1000b16a:	46c0      	nop			; (mov r8, r8)
1000b16c:	20000470 	.word	0x20000470

1000b170 <random>:
1000b170:	4b09      	ldr	r3, [pc, #36]	; (1000b198 <random+0x28>)
1000b172:	b510      	push	{r4, lr}
1000b174:	681c      	ldr	r4, [r3, #0]
1000b176:	4a09      	ldr	r2, [pc, #36]	; (1000b19c <random+0x2c>)
1000b178:	34a8      	adds	r4, #168	; 0xa8
1000b17a:	6820      	ldr	r0, [r4, #0]
1000b17c:	6861      	ldr	r1, [r4, #4]
1000b17e:	4b08      	ldr	r3, [pc, #32]	; (1000b1a0 <random+0x30>)
1000b180:	f7fd f89a 	bl	100082b8 <__wrap___aeabi_lmul>
1000b184:	2201      	movs	r2, #1
1000b186:	2300      	movs	r3, #0
1000b188:	1880      	adds	r0, r0, r2
1000b18a:	4159      	adcs	r1, r3
1000b18c:	6020      	str	r0, [r4, #0]
1000b18e:	6061      	str	r1, [r4, #4]
1000b190:	0048      	lsls	r0, r1, #1
1000b192:	0840      	lsrs	r0, r0, #1
1000b194:	bd10      	pop	{r4, pc}
1000b196:	46c0      	nop			; (mov r8, r8)
1000b198:	20000470 	.word	0x20000470
1000b19c:	4c957f2d 	.word	0x4c957f2d
1000b1a0:	5851f42d 	.word	0x5851f42d

1000b1a4 <strlen>:
1000b1a4:	b510      	push	{r4, lr}
1000b1a6:	0783      	lsls	r3, r0, #30
1000b1a8:	d00a      	beq.n	1000b1c0 <strlen+0x1c>
1000b1aa:	0003      	movs	r3, r0
1000b1ac:	2103      	movs	r1, #3
1000b1ae:	e002      	b.n	1000b1b6 <strlen+0x12>
1000b1b0:	3301      	adds	r3, #1
1000b1b2:	420b      	tst	r3, r1
1000b1b4:	d005      	beq.n	1000b1c2 <strlen+0x1e>
1000b1b6:	781a      	ldrb	r2, [r3, #0]
1000b1b8:	2a00      	cmp	r2, #0
1000b1ba:	d1f9      	bne.n	1000b1b0 <strlen+0xc>
1000b1bc:	1a18      	subs	r0, r3, r0
1000b1be:	bd10      	pop	{r4, pc}
1000b1c0:	0003      	movs	r3, r0
1000b1c2:	6819      	ldr	r1, [r3, #0]
1000b1c4:	4a0c      	ldr	r2, [pc, #48]	; (1000b1f8 <strlen+0x54>)
1000b1c6:	4c0d      	ldr	r4, [pc, #52]	; (1000b1fc <strlen+0x58>)
1000b1c8:	188a      	adds	r2, r1, r2
1000b1ca:	438a      	bics	r2, r1
1000b1cc:	4222      	tst	r2, r4
1000b1ce:	d10f      	bne.n	1000b1f0 <strlen+0x4c>
1000b1d0:	6859      	ldr	r1, [r3, #4]
1000b1d2:	4a09      	ldr	r2, [pc, #36]	; (1000b1f8 <strlen+0x54>)
1000b1d4:	3304      	adds	r3, #4
1000b1d6:	188a      	adds	r2, r1, r2
1000b1d8:	438a      	bics	r2, r1
1000b1da:	4222      	tst	r2, r4
1000b1dc:	d108      	bne.n	1000b1f0 <strlen+0x4c>
1000b1de:	6859      	ldr	r1, [r3, #4]
1000b1e0:	4a05      	ldr	r2, [pc, #20]	; (1000b1f8 <strlen+0x54>)
1000b1e2:	3304      	adds	r3, #4
1000b1e4:	188a      	adds	r2, r1, r2
1000b1e6:	438a      	bics	r2, r1
1000b1e8:	4222      	tst	r2, r4
1000b1ea:	d0f1      	beq.n	1000b1d0 <strlen+0x2c>
1000b1ec:	e000      	b.n	1000b1f0 <strlen+0x4c>
1000b1ee:	3301      	adds	r3, #1
1000b1f0:	781a      	ldrb	r2, [r3, #0]
1000b1f2:	2a00      	cmp	r2, #0
1000b1f4:	d1fb      	bne.n	1000b1ee <strlen+0x4a>
1000b1f6:	e7e1      	b.n	1000b1bc <strlen+0x18>
1000b1f8:	fefefeff 	.word	0xfefefeff
1000b1fc:	80808080 	.word	0x80808080

1000b200 <_fini>:
1000b200:	b5f8      	push	{r3, r4, r5, r6, r7, lr}
1000b202:	46c0      	nop			; (mov r8, r8)
1000b204:	0000      	movs	r0, r0
	...

1000b208 <__flash_do_cmd_veneer>:
1000b208:	b401      	push	{r0}
1000b20a:	4802      	ldr	r0, [pc, #8]	; (1000b214 <__flash_do_cmd_veneer+0xc>)
1000b20c:	4684      	mov	ip, r0
1000b20e:	bc01      	pop	{r0}
1000b210:	4760      	bx	ip
1000b212:	bf00      	nop
1000b214:	20000261 	.word	0x20000261

1000b218 <__mutex_exit_veneer>:
1000b218:	b401      	push	{r0}
1000b21a:	4802      	ldr	r0, [pc, #8]	; (1000b224 <__mutex_exit_veneer+0xc>)
1000b21c:	4684      	mov	ip, r0
1000b21e:	bc01      	pop	{r0}
1000b220:	4760      	bx	ip
1000b222:	bf00      	nop
1000b224:	200001c9 	.word	0x200001c9

1000b228 <____aeabi_ldiv0_veneer>:
1000b228:	b401      	push	{r0}
1000b22a:	4802      	ldr	r0, [pc, #8]	; (1000b234 <____aeabi_ldiv0_veneer+0xc>)
1000b22c:	4684      	mov	ip, r0
1000b22e:	bc01      	pop	{r0}
1000b230:	4760      	bx	ip
1000b232:	bf00      	nop
1000b234:	20000325 	.word	0x20000325

1000b238 <____aeabi_idiv0_veneer>:
1000b238:	b401      	push	{r0}
1000b23a:	4802      	ldr	r0, [pc, #8]	; (1000b244 <____aeabi_idiv0_veneer+0xc>)
1000b23c:	4684      	mov	ip, r0
1000b23e:	bc01      	pop	{r0}
1000b240:	4760      	bx	ip
1000b242:	bf00      	nop
1000b244:	20000325 	.word	0x20000325

1000b248 <__mutex_try_enter_veneer>:
1000b248:	b401      	push	{r0}
1000b24a:	4802      	ldr	r0, [pc, #8]	; (1000b254 <__mutex_try_enter_veneer+0xc>)
1000b24c:	4684      	mov	ip, r0
1000b24e:	bc01      	pop	{r0}
1000b250:	4760      	bx	ip
1000b252:	bf00      	nop
1000b254:	200000fd 	.word	0x200000fd

1000b258 <__mutex_enter_timeout_ms_veneer>:
1000b258:	b401      	push	{r0}
1000b25a:	4802      	ldr	r0, [pc, #8]	; (1000b264 <__mutex_enter_timeout_ms_veneer+0xc>)
1000b25c:	4684      	mov	ip, r0
1000b25e:	bc01      	pop	{r0}
1000b260:	4760      	bx	ip
1000b262:	bf00      	nop
1000b264:	20000141 	.word	0x20000141

1000b268 <__mutex_enter_blocking_veneer>:
1000b268:	b401      	push	{r0}
1000b26a:	4802      	ldr	r0, [pc, #8]	; (1000b274 <__mutex_enter_blocking_veneer+0xc>)
1000b26c:	4684      	mov	ip, r0
1000b26e:	bc01      	pop	{r0}
1000b270:	4760      	bx	ip
1000b272:	bf00      	nop
1000b274:	200000c1 	.word	0x200000c1

Disassembly of section .data:

200000c0 <mutex_enter_blocking>:
200000c0:	b570      	push	{r4, r5, r6, lr}
200000c2:	0004      	movs	r4, r0
200000c4:	f000 f958 	bl	20000378 <__ulPortLockGetCurrentOwnerId_veneer>
200000c8:	0005      	movs	r5, r0
200000ca:	e002      	b.n	200000d2 <mutex_enter_blocking+0x12>
200000cc:	0020      	movs	r0, r4
200000ce:	f000 f933 	bl	20000338 <__vPortLockInternalSpinUnlockWithWait_veneer>
200000d2:	6822      	ldr	r2, [r4, #0]
200000d4:	f3ef 8110 	mrs	r1, PRIMASK
200000d8:	b672      	cpsid	i
200000da:	6813      	ldr	r3, [r2, #0]
200000dc:	2b00      	cmp	r3, #0
200000de:	d0fc      	beq.n	200000da <mutex_enter_blocking+0x1a>
200000e0:	f3bf 8f5f 	dmb	sy
200000e4:	6863      	ldr	r3, [r4, #4]
200000e6:	3301      	adds	r3, #1
200000e8:	d1f0      	bne.n	200000cc <mutex_enter_blocking+0xc>
200000ea:	6065      	str	r5, [r4, #4]
200000ec:	6823      	ldr	r3, [r4, #0]
200000ee:	f3bf 8f5f 	dmb	sy
200000f2:	2200      	movs	r2, #0
200000f4:	601a      	str	r2, [r3, #0]
200000f6:	f381 8810 	msr	PRIMASK, r1
200000fa:	bd70      	pop	{r4, r5, r6, pc}

200000fc <mutex_try_enter>:
200000fc:	b570      	push	{r4, r5, r6, lr}
200000fe:	6802      	ldr	r2, [r0, #0]
20000100:	0004      	movs	r4, r0
20000102:	f3ef 8510 	mrs	r5, PRIMASK
20000106:	b672      	cpsid	i
20000108:	6813      	ldr	r3, [r2, #0]
2000010a:	2b00      	cmp	r3, #0
2000010c:	d0fc      	beq.n	20000108 <mutex_try_enter+0xc>
2000010e:	f3bf 8f5f 	dmb	sy
20000112:	6863      	ldr	r3, [r4, #4]
20000114:	1c5a      	adds	r2, r3, #1
20000116:	d00d      	beq.n	20000134 <mutex_try_enter+0x38>
20000118:	2900      	cmp	r1, #0
2000011a:	d009      	beq.n	20000130 <mutex_try_enter+0x34>
2000011c:	2000      	movs	r0, #0
2000011e:	600b      	str	r3, [r1, #0]
20000120:	6823      	ldr	r3, [r4, #0]
20000122:	f3bf 8f5f 	dmb	sy
20000126:	2200      	movs	r2, #0
20000128:	601a      	str	r2, [r3, #0]
2000012a:	f385 8810 	msr	PRIMASK, r5
2000012e:	bd70      	pop	{r4, r5, r6, pc}
20000130:	2000      	movs	r0, #0
20000132:	e7f5      	b.n	20000120 <mutex_try_enter+0x24>
20000134:	f000 f920 	bl	20000378 <__ulPortLockGetCurrentOwnerId_veneer>
20000138:	6060      	str	r0, [r4, #4]
2000013a:	2001      	movs	r0, #1
2000013c:	e7f0      	b.n	20000120 <mutex_try_enter+0x24>
2000013e:	46c0      	nop			; (mov r8, r8)

20000140 <mutex_enter_timeout_ms>:
20000140:	b5f0      	push	{r4, r5, r6, r7, lr}
20000142:	b083      	sub	sp, #12
20000144:	000c      	movs	r4, r1
20000146:	0007      	movs	r7, r0
20000148:	f000 f8ee 	bl	20000328 <__time_us_64_veneer>
2000014c:	22fa      	movs	r2, #250	; 0xfa
2000014e:	2300      	movs	r3, #0
20000150:	9000      	str	r0, [sp, #0]
20000152:	9101      	str	r1, [sp, #4]
20000154:	0020      	movs	r0, r4
20000156:	0092      	lsls	r2, r2, #2
20000158:	2100      	movs	r1, #0
2000015a:	f000 f905 	bl	20000368 <____wrap___aeabi_lmul_veneer>
2000015e:	9a00      	ldr	r2, [sp, #0]
20000160:	9b01      	ldr	r3, [sp, #4]
20000162:	0014      	movs	r4, r2
20000164:	001d      	movs	r5, r3
20000166:	1824      	adds	r4, r4, r0
20000168:	414d      	adcs	r5, r1
2000016a:	42ab      	cmp	r3, r5
2000016c:	d825      	bhi.n	200001ba <mutex_enter_timeout_ms+0x7a>
2000016e:	d021      	beq.n	200001b4 <mutex_enter_timeout_ms+0x74>
20000170:	f000 f902 	bl	20000378 <__ulPortLockGetCurrentOwnerId_veneer>
20000174:	0006      	movs	r6, r0
20000176:	e006      	b.n	20000186 <mutex_enter_timeout_ms+0x46>
20000178:	0022      	movs	r2, r4
2000017a:	002b      	movs	r3, r5
2000017c:	0038      	movs	r0, r7
2000017e:	f000 f8e3 	bl	20000348 <__xPortLockInternalSpinUnlockWithBestEffortWaitOrTimeout_veneer>
20000182:	2800      	cmp	r0, #0
20000184:	d11d      	bne.n	200001c2 <mutex_enter_timeout_ms+0x82>
20000186:	683a      	ldr	r2, [r7, #0]
20000188:	f3ef 8110 	mrs	r1, PRIMASK
2000018c:	b672      	cpsid	i
2000018e:	6813      	ldr	r3, [r2, #0]
20000190:	2b00      	cmp	r3, #0
20000192:	d0fc      	beq.n	2000018e <mutex_enter_timeout_ms+0x4e>
20000194:	f3bf 8f5f 	dmb	sy
20000198:	687b      	ldr	r3, [r7, #4]
2000019a:	3301      	adds	r3, #1
2000019c:	d1ec      	bne.n	20000178 <mutex_enter_timeout_ms+0x38>
2000019e:	607e      	str	r6, [r7, #4]
200001a0:	683b      	ldr	r3, [r7, #0]
200001a2:	f3bf 8f5f 	dmb	sy
200001a6:	2200      	movs	r2, #0
200001a8:	601a      	str	r2, [r3, #0]
200001aa:	f381 8810 	msr	PRIMASK, r1
200001ae:	2001      	movs	r0, #1
200001b0:	b003      	add	sp, #12
200001b2:	bdf0      	pop	{r4, r5, r6, r7, pc}
200001b4:	9b00      	ldr	r3, [sp, #0]
200001b6:	42a3      	cmp	r3, r4
200001b8:	d9da      	bls.n	20000170 <mutex_enter_timeout_ms+0x30>
200001ba:	2401      	movs	r4, #1
200001bc:	4264      	negs	r4, r4
200001be:	17e5      	asrs	r5, r4, #31
200001c0:	e7d6      	b.n	20000170 <mutex_enter_timeout_ms+0x30>
200001c2:	2000      	movs	r0, #0
200001c4:	e7f4      	b.n	200001b0 <mutex_enter_timeout_ms+0x70>
200001c6:	46c0      	nop			; (mov r8, r8)

200001c8 <mutex_exit>:
200001c8:	b510      	push	{r4, lr}
200001ca:	6802      	ldr	r2, [r0, #0]
200001cc:	f3ef 8110 	mrs	r1, PRIMASK
200001d0:	b672      	cpsid	i
200001d2:	6813      	ldr	r3, [r2, #0]
200001d4:	2b00      	cmp	r3, #0
200001d6:	d0fc      	beq.n	200001d2 <mutex_exit+0xa>
200001d8:	f3bf 8f5f 	dmb	sy
200001dc:	2301      	movs	r3, #1
200001de:	425b      	negs	r3, r3
200001e0:	6043      	str	r3, [r0, #4]
200001e2:	f000 f8b9 	bl	20000358 <__vPortLockInternalSpinUnlockWithNotify_veneer>
200001e6:	bd10      	pop	{r4, pc}

200001e8 <flash_init_boot2_copyout>:
200001e8:	4808      	ldr	r0, [pc, #32]	; (2000020c <flash_init_boot2_copyout+0x24>)
200001ea:	b510      	push	{r4, lr}
200001ec:	7803      	ldrb	r3, [r0, #0]
200001ee:	2b00      	cmp	r3, #0
200001f0:	d10a      	bne.n	20000208 <flash_init_boot2_copyout+0x20>
200001f2:	2380      	movs	r3, #128	; 0x80
200001f4:	4906      	ldr	r1, [pc, #24]	; (20000210 <flash_init_boot2_copyout+0x28>)
200001f6:	4a07      	ldr	r2, [pc, #28]	; (20000214 <flash_init_boot2_copyout+0x2c>)
200001f8:	055b      	lsls	r3, r3, #21
200001fa:	681c      	ldr	r4, [r3, #0]
200001fc:	50cc      	str	r4, [r1, r3]
200001fe:	3304      	adds	r3, #4
20000200:	4293      	cmp	r3, r2
20000202:	d1fa      	bne.n	200001fa <flash_init_boot2_copyout+0x12>
20000204:	2301      	movs	r3, #1
20000206:	7003      	strb	r3, [r0, #0]
20000208:	bd10      	pop	{r4, pc}
2000020a:	46c0      	nop			; (mov r8, r8)
2000020c:	20012dba 	.word	0x20012dba
20000210:	100014cc 	.word	0x100014cc
20000214:	10000100 	.word	0x10000100

20000218 <flash_enable_xip_via_boot2>:
20000218:	b510      	push	{r4, lr}
2000021a:	4b02      	ldr	r3, [pc, #8]	; (20000224 <flash_enable_xip_via_boot2+0xc>)
2000021c:	3301      	adds	r3, #1
2000021e:	4798      	blx	r3
20000220:	bd10      	pop	{r4, pc}
20000222:	46c0      	nop			; (mov r8, r8)
20000224:	200014cc 	.word	0x200014cc

20000228 <flash_cs_force.constprop.0>:
20000228:	4b03      	ldr	r3, [pc, #12]	; (20000238 <flash_cs_force.constprop.0+0x10>)
2000022a:	681a      	ldr	r2, [r3, #0]
2000022c:	23c0      	movs	r3, #192	; 0xc0
2000022e:	009b      	lsls	r3, r3, #2
20000230:	4393      	bics	r3, r2
20000232:	4a02      	ldr	r2, [pc, #8]	; (2000023c <flash_cs_force.constprop.0+0x14>)
20000234:	6013      	str	r3, [r2, #0]
20000236:	4770      	bx	lr
20000238:	4001800c 	.word	0x4001800c
2000023c:	4001900c 	.word	0x4001900c

20000240 <flash_cs_force.constprop.1>:
20000240:	4b05      	ldr	r3, [pc, #20]	; (20000258 <flash_cs_force.constprop.1+0x18>)
20000242:	681a      	ldr	r2, [r3, #0]
20000244:	2380      	movs	r3, #128	; 0x80
20000246:	009b      	lsls	r3, r3, #2
20000248:	4053      	eors	r3, r2
2000024a:	22c0      	movs	r2, #192	; 0xc0
2000024c:	0092      	lsls	r2, r2, #2
2000024e:	4013      	ands	r3, r2
20000250:	4a02      	ldr	r2, [pc, #8]	; (2000025c <flash_cs_force.constprop.1+0x1c>)
20000252:	6013      	str	r3, [r2, #0]
20000254:	4770      	bx	lr
20000256:	46c0      	nop			; (mov r8, r8)
20000258:	4001800c 	.word	0x4001800c
2000025c:	4001900c 	.word	0x4001900c

20000260 <flash_do_cmd>:
20000260:	2314      	movs	r3, #20
20000262:	b5f0      	push	{r4, r5, r6, r7, lr}
20000264:	46d6      	mov	lr, sl
20000266:	464f      	mov	r7, r9
20000268:	4646      	mov	r6, r8
2000026a:	469a      	mov	sl, r3
2000026c:	4681      	mov	r9, r0
2000026e:	8818      	ldrh	r0, [r3, #0]
20000270:	3304      	adds	r3, #4
20000272:	b5c0      	push	{r6, r7, lr}
20000274:	4698      	mov	r8, r3
20000276:	000e      	movs	r6, r1
20000278:	881b      	ldrh	r3, [r3, #0]
2000027a:	4927      	ldr	r1, [pc, #156]	; (20000318 <flash_do_cmd+0xb8>)
2000027c:	0014      	movs	r4, r2
2000027e:	4798      	blx	r3
20000280:	4653      	mov	r3, sl
20000282:	0007      	movs	r7, r0
20000284:	8818      	ldrh	r0, [r3, #0]
20000286:	4643      	mov	r3, r8
20000288:	4924      	ldr	r1, [pc, #144]	; (2000031c <flash_do_cmd+0xbc>)
2000028a:	881b      	ldrh	r3, [r3, #0]
2000028c:	4798      	blx	r3
2000028e:	4653      	mov	r3, sl
20000290:	0005      	movs	r5, r0
20000292:	8818      	ldrh	r0, [r3, #0]
20000294:	4643      	mov	r3, r8
20000296:	4922      	ldr	r1, [pc, #136]	; (20000320 <flash_do_cmd+0xc0>)
20000298:	881b      	ldrh	r3, [r3, #0]
2000029a:	4798      	blx	r3
2000029c:	4680      	mov	r8, r0
2000029e:	f7ff ffa3 	bl	200001e8 <flash_init_boot2_copyout>
200002a2:	47b8      	blx	r7
200002a4:	47a8      	blx	r5
200002a6:	f7ff ffcb 	bl	20000240 <flash_cs_force.constprop.1>
200002aa:	2c00      	cmp	r4, #0
200002ac:	d01b      	beq.n	200002e6 <flash_do_cmd+0x86>
200002ae:	21c0      	movs	r1, #192	; 0xc0
200002b0:	0022      	movs	r2, r4
200002b2:	2708      	movs	r7, #8
200002b4:	2002      	movs	r0, #2
200002b6:	0549      	lsls	r1, r1, #21
200002b8:	003d      	movs	r5, r7
200002ba:	6a8b      	ldr	r3, [r1, #40]	; 0x28
200002bc:	401d      	ands	r5, r3
200002be:	4218      	tst	r0, r3
200002c0:	d00b      	beq.n	200002da <flash_do_cmd+0x7a>
200002c2:	2c00      	cmp	r4, #0
200002c4:	d009      	beq.n	200002da <flash_do_cmd+0x7a>
200002c6:	1b13      	subs	r3, r2, r4
200002c8:	2b0d      	cmp	r3, #13
200002ca:	d81f      	bhi.n	2000030c <flash_do_cmd+0xac>
200002cc:	464b      	mov	r3, r9
200002ce:	781b      	ldrb	r3, [r3, #0]
200002d0:	3c01      	subs	r4, #1
200002d2:	660b      	str	r3, [r1, #96]	; 0x60
200002d4:	2301      	movs	r3, #1
200002d6:	469c      	mov	ip, r3
200002d8:	44e1      	add	r9, ip
200002da:	0023      	movs	r3, r4
200002dc:	2d00      	cmp	r5, #0
200002de:	d10c      	bne.n	200002fa <flash_do_cmd+0x9a>
200002e0:	4313      	orrs	r3, r2
200002e2:	2b00      	cmp	r3, #0
200002e4:	d1e8      	bne.n	200002b8 <flash_do_cmd+0x58>
200002e6:	f7ff ff9f 	bl	20000228 <flash_cs_force.constprop.0>
200002ea:	47c0      	blx	r8
200002ec:	f7ff ff94 	bl	20000218 <flash_enable_xip_via_boot2>
200002f0:	bce0      	pop	{r5, r6, r7}
200002f2:	46ba      	mov	sl, r7
200002f4:	46b1      	mov	r9, r6
200002f6:	46a8      	mov	r8, r5
200002f8:	bdf0      	pop	{r4, r5, r6, r7, pc}
200002fa:	2a00      	cmp	r2, #0
200002fc:	d0f1      	beq.n	200002e2 <flash_do_cmd+0x82>
200002fe:	6e0b      	ldr	r3, [r1, #96]	; 0x60
20000300:	3a01      	subs	r2, #1
20000302:	7033      	strb	r3, [r6, #0]
20000304:	0013      	movs	r3, r2
20000306:	3601      	adds	r6, #1
20000308:	4323      	orrs	r3, r4
2000030a:	e7ea      	b.n	200002e2 <flash_do_cmd+0x82>
2000030c:	2d00      	cmp	r5, #0
2000030e:	d0d3      	beq.n	200002b8 <flash_do_cmd+0x58>
20000310:	2a00      	cmp	r2, #0
20000312:	d0d1      	beq.n	200002b8 <flash_do_cmd+0x58>
20000314:	e7f3      	b.n	200002fe <flash_do_cmd+0x9e>
20000316:	46c0      	nop			; (mov r8, r8)
20000318:	00004649 	.word	0x00004649
2000031c:	00005845 	.word	0x00005845
20000320:	00004346 	.word	0x00004346

20000324 <__aeabi_idiv0>:
20000324:	4770      	bx	lr
20000326:	46c0      	nop			; (mov r8, r8)

20000328 <__time_us_64_veneer>:
20000328:	b401      	push	{r0}
2000032a:	4802      	ldr	r0, [pc, #8]	; (20000334 <__time_us_64_veneer+0xc>)
2000032c:	4684      	mov	ip, r0
2000032e:	bc01      	pop	{r0}
20000330:	4760      	bx	ip
20000332:	bf00      	nop
20000334:	10002b01 	.word	0x10002b01

20000338 <__vPortLockInternalSpinUnlockWithWait_veneer>:
20000338:	b401      	push	{r0}
2000033a:	4802      	ldr	r0, [pc, #8]	; (20000344 <__vPortLockInternalSpinUnlockWithWait_veneer+0xc>)
2000033c:	4684      	mov	ip, r0
2000033e:	bc01      	pop	{r0}
20000340:	4760      	bx	ip
20000342:	bf00      	nop
20000344:	100033e9 	.word	0x100033e9

20000348 <__xPortLockInternalSpinUnlockWithBestEffortWaitOrTimeout_veneer>:
20000348:	b401      	push	{r0}
2000034a:	4802      	ldr	r0, [pc, #8]	; (20000354 <__xPortLockInternalSpinUnlockWithBestEffortWaitOrTimeout_veneer+0xc>)
2000034c:	4684      	mov	ip, r0
2000034e:	bc01      	pop	{r0}
20000350:	4760      	bx	ip
20000352:	bf00      	nop
20000354:	10003521 	.word	0x10003521

20000358 <__vPortLockInternalSpinUnlockWithNotify_veneer>:
20000358:	b401      	push	{r0}
2000035a:	4802      	ldr	r0, [pc, #8]	; (20000364 <__vPortLockInternalSpinUnlockWithNotify_veneer+0xc>)
2000035c:	4684      	mov	ip, r0
2000035e:	bc01      	pop	{r0}
20000360:	4760      	bx	ip
20000362:	bf00      	nop
20000364:	10003451 	.word	0x10003451

20000368 <____wrap___aeabi_lmul_veneer>:
20000368:	b401      	push	{r0}
2000036a:	4802      	ldr	r0, [pc, #8]	; (20000374 <____wrap___aeabi_lmul_veneer+0xc>)
2000036c:	4684      	mov	ip, r0
2000036e:	bc01      	pop	{r0}
20000370:	4760      	bx	ip
20000372:	bf00      	nop
20000374:	100082b9 	.word	0x100082b9

20000378 <__ulPortLockGetCurrentOwnerId_veneer>:
20000378:	b401      	push	{r0}
2000037a:	4802      	ldr	r0, [pc, #8]	; (20000384 <__ulPortLockGetCurrentOwnerId_veneer+0xc>)
2000037c:	4684      	mov	ip, r0
2000037e:	bc01      	pop	{r0}
20000380:	4760      	bx	ip
20000382:	bf00      	nop
20000384:	100033bd 	.word	0x100033bd

20000388 <bcmCounter>:
20000388:	                                         ..

2000038a <bitPlanes>:
2000038a:	                                         ..

2000038c <ledmxActiveImage>:
2000038c:	20001a64                                d.. 

20000390 <striped_spin_lock_num>:
20000390:	00000010                                ....

20000394 <irq_handler_chain_slots>:
20000394:	00000000 	.word	0x00000000
20000398:	00010000 	.word	0x00010000
	...
200003a4:	00020000 	.word	0x00020000
	...
200003b0:	00030000 	.word	0x00030000
	...
200003bc:	00ff0000 	.word	0x00ff0000
200003c0:	00000000 	.word	0x00000000

200003c4 <irq_handler_chain_first_slot>:
200003c4:	b500      	push	{lr}
200003c6:	6848      	ldr	r0, [r1, #4]
200003c8:	3101      	adds	r1, #1
200003ca:	468e      	mov	lr, r1
200003cc:	4700      	bx	r0

200003ce <irq_handler_chain_remove_tail>:
200003ce:	4670      	mov	r0, lr
200003d0:	3809      	subs	r0, #9
200003d2:	4901      	ldr	r1, [pc, #4]	; (200003d8 <irq_handler_chain_remove_tail+0xa>)
200003d4:	4788      	blx	r1
200003d6:	bd00      	pop	{pc}
200003d8:	10002209 	.word	0x10002209

200003dc <default_alarm_pool>:
200003dc:	200003f4 00000000 200008d0 200019fc     ... ....... ... 
	...

200003f4 <default_alarm_pool_heap>:
200003f4:	20001a0c 00000000 00000000 00000010     ... ............

20000404 <ucLaunchCoreNum>:
20000404:	000000ff                                ....

20000408 <uxTopUsedPriority>:
20000408:	00000003 00000000                       ........

20000410 <aeabi_bits_funcs>:
20000410:	00003350 	.word	0x00003350
20000414:	0000334c 	.word	0x0000334c
20000418:	00003354 	.word	0x00003354
2000041c:	00003352 	.word	0x00003352

20000420 <aeabi_bits_funcs_end>:
20000420:	0000534d 	.word	0x0000534d
20000424:	0000434d 	.word	0x0000434d
20000428:	00003453 	.word	0x00003453
2000042c:	00003443 	.word	0x00003443

20000430 <stdio_usb>:
20000430:	10008911 00000000 100088a9 00000000     ................
20000440:	00000100                                ....

20000444 <ep_dir_string>:
20000444:	1000b89c 1000b8a0                       ........

2000044c <_usbd_qdef>:
2000044c:	20000fd8 000c0010 ffe00000 0000001f     ... ............
	...

20000470 <_impure_ptr>:
20000470:	20000478 00000000                       x.. ....

20000478 <impure_data>:
20000478:	00000000 20000764 200007cc 20000834     ....d.. ... 4.. 
	...
20000520:	00000001 00000000 abcd330e e66d1234     .........3..4.m.
20000530:	0005deec 0000000b 00000000 00000000     ................
	...

200008a0 <malloc_mutex>:
	...

200008a8 <print_mutex>:
	...

200008b0 <__mutex_array_end>:
200008b0:	1000837d 	.word	0x1000837d
200008b4:	100075a9 	.word	0x100075a9
200008b8:	10007cc5 	.word	0x10007cc5
200008bc:	100082ed 	.word	0x100082ed

200008c0 <__frame_dummy_init_array_entry>:
200008c0:	10000339 10003621 1000af65              9...!6..e...
